
GccBoardProject1.elf:     file format elf32-avr

Sections:
Idx Name          Size      VMA       LMA       File off  Algn
  0 .data         00000010  00800100  00003f58  00003fec  2**0
                  CONTENTS, ALLOC, LOAD, DATA
  1 .text         00003f58  00000000  00000000  00000094  2**1
                  CONTENTS, ALLOC, LOAD, READONLY, CODE
  2 .bss          00000161  00800110  00800110  00003ffc  2**0
                  ALLOC
  3 .comment      00000030  00000000  00000000  00003ffc  2**0
                  CONTENTS, READONLY
  4 .note.gnu.avr.deviceinfo 0000003c  00000000  00000000  0000402c  2**2
                  CONTENTS, READONLY
  5 .debug_info   00000672  00000000  00000000  00004068  2**0
                  CONTENTS, READONLY, DEBUGGING
  6 .debug_abbrev 00000619  00000000  00000000  000046da  2**0
                  CONTENTS, READONLY, DEBUGGING
  7 .debug_line   0000013f  00000000  00000000  00004cf3  2**0
                  CONTENTS, READONLY, DEBUGGING
  8 .debug_str    00000231  00000000  00000000  00004e32  2**0
                  CONTENTS, READONLY, DEBUGGING

Disassembly of section .text:

00000000 <__vectors>:
       0:	7b c0       	rjmp	.+246    	; 0xf8 <__ctors_end>
       2:	00 00       	nop
       4:	96 c0       	rjmp	.+300    	; 0x132 <__bad_interrupt>
       6:	00 00       	nop
       8:	94 c0       	rjmp	.+296    	; 0x132 <__bad_interrupt>
       a:	00 00       	nop
       c:	92 c0       	rjmp	.+292    	; 0x132 <__bad_interrupt>
       e:	00 00       	nop
      10:	90 c0       	rjmp	.+288    	; 0x132 <__bad_interrupt>
      12:	00 00       	nop
      14:	8e c0       	rjmp	.+284    	; 0x132 <__bad_interrupt>
      16:	00 00       	nop
      18:	8c c0       	rjmp	.+280    	; 0x132 <__bad_interrupt>
      1a:	00 00       	nop
      1c:	8a c0       	rjmp	.+276    	; 0x132 <__bad_interrupt>
      1e:	00 00       	nop
      20:	88 c0       	rjmp	.+272    	; 0x132 <__bad_interrupt>
      22:	00 00       	nop
      24:	0c 94 66 19 	jmp	0x32cc	; 0x32cc <__vector_9>
      28:	84 c0       	rjmp	.+264    	; 0x132 <__bad_interrupt>
      2a:	00 00       	nop
      2c:	82 c0       	rjmp	.+260    	; 0x132 <__bad_interrupt>
      2e:	00 00       	nop
      30:	80 c0       	rjmp	.+256    	; 0x132 <__bad_interrupt>
      32:	00 00       	nop
      34:	7e c0       	rjmp	.+252    	; 0x132 <__bad_interrupt>
      36:	00 00       	nop
      38:	7c c0       	rjmp	.+248    	; 0x132 <__bad_interrupt>
      3a:	00 00       	nop
      3c:	7a c0       	rjmp	.+244    	; 0x132 <__bad_interrupt>
      3e:	00 00       	nop
      40:	0c 94 ac 19 	jmp	0x3358	; 0x3358 <__vector_16>
      44:	76 c0       	rjmp	.+236    	; 0x132 <__bad_interrupt>
      46:	00 00       	nop
      48:	74 c0       	rjmp	.+232    	; 0x132 <__bad_interrupt>
      4a:	00 00       	nop
      4c:	72 c0       	rjmp	.+228    	; 0x132 <__bad_interrupt>
      4e:	00 00       	nop
      50:	70 c0       	rjmp	.+224    	; 0x132 <__bad_interrupt>
      52:	00 00       	nop
      54:	6e c0       	rjmp	.+220    	; 0x132 <__bad_interrupt>
      56:	00 00       	nop
      58:	6c c0       	rjmp	.+216    	; 0x132 <__bad_interrupt>
      5a:	00 00       	nop
      5c:	6a c0       	rjmp	.+212    	; 0x132 <__bad_interrupt>
      5e:	00 00       	nop
      60:	68 c0       	rjmp	.+208    	; 0x132 <__bad_interrupt>
      62:	00 00       	nop
      64:	66 c0       	rjmp	.+204    	; 0x132 <__bad_interrupt>
      66:	00 00       	nop
      68:	64 c0       	rjmp	.+200    	; 0x132 <__bad_interrupt>
      6a:	00 00       	nop
      6c:	62 c0       	rjmp	.+196    	; 0x132 <__bad_interrupt>
      6e:	00 00       	nop
      70:	03 6e       	ori	r16, 0xE3	; 227
      72:	db 36       	cpi	r29, 0x6B	; 107
      74:	3d 9a       	sbi	0x07, 5	; 7
      76:	99 99       	sbic	0x13, 1	; 19
      78:	99 3d       	cpi	r25, 0xD9	; 217
      7a:	ab aa       	std	Y+51, r10	; 0x33
      7c:	aa 2a       	or	r10, r26
      7e:	3e 00       	.word	0x003e	; ????
      80:	00 00       	nop
      82:	80 3f       	cpi	r24, 0xF0	; 240
      84:	08 4a       	sbci	r16, 0xA8	; 168
      86:	d7 3b       	cpi	r29, 0xB7	; 183
      88:	3b ce       	rjmp	.-906    	; 0xfffffd00 <__eeprom_end+0xff7efd00>
      8a:	01 6e       	ori	r16, 0xE1	; 225
      8c:	84 bc       	out	0x24, r8	; 36
      8e:	bf fd       	.word	0xfdbf	; ????
      90:	c1 2f       	mov	r28, r17
      92:	3d 6c       	ori	r19, 0xCD	; 205
      94:	74 31       	cpi	r23, 0x14	; 20
      96:	9a bd       	out	0x2a, r25	; 42
      98:	56 83       	std	Z+6, r21	; 0x06
      9a:	3d da       	rcall	.-2950   	; 0xfffff516 <__eeprom_end+0xff7ef516>
      9c:	3d 00       	.word	0x003d	; ????
      9e:	c7 7f       	andi	r28, 0xF7	; 247
      a0:	11 be       	out	0x31, r1	; 49
      a2:	d9 e4       	ldi	r29, 0x49	; 73
      a4:	bb 4c       	sbci	r27, 0xCB	; 203
      a6:	3e 91       	ld	r19, -X
      a8:	6b aa       	std	Y+51, r6	; 0x33
      aa:	aa be       	out	0x3a, r10	; 58
      ac:	00 00       	nop
      ae:	00 80       	ld	r0, Z
      b0:	3f 07       	cpc	r19, r31
      b2:	2c 7a       	andi	r18, 0xAC	; 172
      b4:	a5 ba       	out	0x15, r10	; 21
      b6:	6c c5       	rjmp	.+2776   	; 0xb90 <calcAnchorPositions+0x656>
      b8:	90 da       	rcall	.-2784   	; 0xfffff5da <__eeprom_end+0xff7ef5da>
      ba:	3b 93       	.word	0x933b	; ????
      bc:	65 fc       	sbrc	r6, 5
      be:	8b bc       	out	0x2b, r8	; 43
      c0:	53 f8       	bld	r5, 3
      c2:	10 fd       	sbrc	r17, 0
      c4:	3c 56       	subi	r19, 0x6C	; 108
      c6:	92 83       	std	Z+2, r25	; 0x02
      c8:	4d bd       	out	0x2d, r20	; 45
      ca:	87 9d       	mul	r24, r7
      cc:	3a b6       	in	r3, 0x3a	; 58
      ce:	3d cb       	rjmp	.-2438   	; 0xfffff74a <__eeprom_end+0xff7ef74a>
      d0:	c9 bf       	out	0x39, r28	; 57
      d2:	5b be       	out	0x3b, r5	; 59
      d4:	73 da       	rcall	.-2842   	; 0xfffff5bc <__eeprom_end+0xff7ef5bc>
      d6:	0f c9       	rjmp	.-3554   	; 0xfffff2f6 <__eeprom_end+0xff7ef2f6>
      d8:	3f 05       	cpc	r19, r15
      da:	a8 4c       	sbci	r26, 0xC8	; 200
      dc:	cd b2       	in	r12, 0x1d	; 29
      de:	d4 4e       	sbci	r29, 0xE4	; 228
      e0:	b9 38       	cpi	r27, 0x89	; 137
      e2:	36 a9       	ldd	r19, Z+54	; 0x36
      e4:	02 0c       	add	r0, r2
      e6:	50 b9       	out	0x00, r21	; 0
      e8:	91 86       	std	Z+9, r9	; 0x09
      ea:	88 08       	sbc	r8, r8
      ec:	3c a6       	std	Y+44, r3	; 0x2c
      ee:	aa aa       	std	Y+50, r10	; 0x32
      f0:	2a be       	out	0x3a, r2	; 58
      f2:	00 00       	nop
      f4:	00 80       	ld	r0, Z
      f6:	3f 00       	.word	0x003f	; ????

000000f8 <__ctors_end>:
      f8:	11 24       	eor	r1, r1
      fa:	1f be       	out	0x3f, r1	; 63
      fc:	cf ef       	ldi	r28, 0xFF	; 255
      fe:	d0 e1       	ldi	r29, 0x10	; 16
     100:	de bf       	out	0x3e, r29	; 62
     102:	cd bf       	out	0x3d, r28	; 61

00000104 <__do_copy_data>:
     104:	11 e0       	ldi	r17, 0x01	; 1
     106:	a0 e0       	ldi	r26, 0x00	; 0
     108:	b1 e0       	ldi	r27, 0x01	; 1
     10a:	e8 e5       	ldi	r30, 0x58	; 88
     10c:	ff e3       	ldi	r31, 0x3F	; 63
     10e:	02 c0       	rjmp	.+4      	; 0x114 <__do_copy_data+0x10>
     110:	05 90       	lpm	r0, Z+
     112:	0d 92       	st	X+, r0
     114:	a0 31       	cpi	r26, 0x10	; 16
     116:	b1 07       	cpc	r27, r17
     118:	d9 f7       	brne	.-10     	; 0x110 <__do_copy_data+0xc>

0000011a <__do_clear_bss>:
     11a:	22 e0       	ldi	r18, 0x02	; 2
     11c:	a0 e1       	ldi	r26, 0x10	; 16
     11e:	b1 e0       	ldi	r27, 0x01	; 1
     120:	01 c0       	rjmp	.+2      	; 0x124 <.do_clear_bss_start>

00000122 <.do_clear_bss_loop>:
     122:	1d 92       	st	X+, r1

00000124 <.do_clear_bss_start>:
     124:	a1 37       	cpi	r26, 0x71	; 113
     126:	b2 07       	cpc	r27, r18
     128:	e1 f7       	brne	.-8      	; 0x122 <.do_clear_bss_loop>
     12a:	0e 94 f7 17 	call	0x2fee	; 0x2fee <main>
     12e:	0c 94 aa 1f 	jmp	0x3f54	; 0x3f54 <_exit>

00000132 <__bad_interrupt>:
     132:	66 cf       	rjmp	.-308    	; 0x0 <__vectors>

00000134 <accelerationsToAngles>:
     134:	6f 92       	push	r6
     136:	7f 92       	push	r7
     138:	8f 92       	push	r8
     13a:	9f 92       	push	r9
     13c:	af 92       	push	r10
     13e:	bf 92       	push	r11
     140:	cf 92       	push	r12
     142:	df 92       	push	r13
     144:	ef 92       	push	r14
     146:	ff 92       	push	r15
     148:	0f 93       	push	r16
     14a:	1f 93       	push	r17
     14c:	cf 93       	push	r28
     14e:	df 93       	push	r29
     150:	cd b7       	in	r28, 0x3d	; 61
     152:	de b7       	in	r29, 0x3e	; 62
     154:	ca 54       	subi	r28, 0x4A	; 74
     156:	d1 09       	sbc	r29, r1
     158:	0f b6       	in	r0, 0x3f	; 63
     15a:	f8 94       	cli
     15c:	de bf       	out	0x3e, r29	; 62
     15e:	0f be       	out	0x3f, r0	; 63
     160:	cd bf       	out	0x3d, r28	; 61
     162:	fe 01       	movw	r30, r28
     164:	ef 5b       	subi	r30, 0xBF	; 191
     166:	ff 4f       	sbci	r31, 0xFF	; 255
     168:	91 83       	std	Z+1, r25	; 0x01
     16a:	80 83       	st	Z, r24
     16c:	ce 01       	movw	r24, r28
     16e:	8d 5b       	subi	r24, 0xBD	; 189
     170:	9f 4f       	sbci	r25, 0xFF	; 255
     172:	fc 01       	movw	r30, r24
     174:	40 83       	st	Z, r20
     176:	51 83       	std	Z+1, r21	; 0x01
     178:	62 83       	std	Z+2, r22	; 0x02
     17a:	73 83       	std	Z+3, r23	; 0x03
     17c:	ce 01       	movw	r24, r28
     17e:	89 5b       	subi	r24, 0xB9	; 185
     180:	9f 4f       	sbci	r25, 0xFF	; 255
     182:	fc 01       	movw	r30, r24
     184:	00 83       	st	Z, r16
     186:	11 83       	std	Z+1, r17	; 0x01
     188:	22 83       	std	Z+2, r18	; 0x02
     18a:	33 83       	std	Z+3, r19	; 0x03
     18c:	ce 01       	movw	r24, r28
     18e:	8d 5b       	subi	r24, 0xBD	; 189
     190:	9f 4f       	sbci	r25, 0xFF	; 255
     192:	fc 01       	movw	r30, r24
     194:	80 81       	ld	r24, Z
     196:	91 81       	ldd	r25, Z+1	; 0x01
     198:	a2 81       	ldd	r26, Z+2	; 0x02
     19a:	b3 81       	ldd	r27, Z+3	; 0x03
     19c:	bc 01       	movw	r22, r24
     19e:	cd 01       	movw	r24, r26
     1a0:	b5 d0       	rcall	.+362    	; 0x30c <accToAngle>
     1a2:	dc 01       	movw	r26, r24
     1a4:	cb 01       	movw	r24, r22
     1a6:	89 83       	std	Y+1, r24	; 0x01
     1a8:	9a 83       	std	Y+2, r25	; 0x02
     1aa:	ab 83       	std	Y+3, r26	; 0x03
     1ac:	bc 83       	std	Y+4, r27	; 0x04
     1ae:	ce 01       	movw	r24, r28
     1b0:	8d 5b       	subi	r24, 0xBD	; 189
     1b2:	9f 4f       	sbci	r25, 0xFF	; 255
     1b4:	fc 01       	movw	r30, r24
     1b6:	80 81       	ld	r24, Z
     1b8:	91 81       	ldd	r25, Z+1	; 0x01
     1ba:	a2 81       	ldd	r26, Z+2	; 0x02
     1bc:	b3 81       	ldd	r27, Z+3	; 0x03
     1be:	bc 01       	movw	r22, r24
     1c0:	cd 01       	movw	r24, r26
     1c2:	a4 d0       	rcall	.+328    	; 0x30c <accToAngle>
     1c4:	dc 01       	movw	r26, r24
     1c6:	cb 01       	movw	r24, r22
     1c8:	8d 83       	std	Y+5, r24	; 0x05
     1ca:	9e 83       	std	Y+6, r25	; 0x06
     1cc:	af 83       	std	Y+7, r26	; 0x07
     1ce:	b8 87       	std	Y+8, r27	; 0x08
     1d0:	80 e0       	ldi	r24, 0x00	; 0
     1d2:	90 e0       	ldi	r25, 0x00	; 0
     1d4:	a0 e8       	ldi	r26, 0x80	; 128
     1d6:	bf e3       	ldi	r27, 0x3F	; 63
     1d8:	8d 8b       	std	Y+21, r24	; 0x15
     1da:	9e 8b       	std	Y+22, r25	; 0x16
     1dc:	af 8b       	std	Y+23, r26	; 0x17
     1de:	b8 8f       	std	Y+24, r27	; 0x18
     1e0:	19 8e       	std	Y+25, r1	; 0x19
     1e2:	1a 8e       	std	Y+26, r1	; 0x1a
     1e4:	1b 8e       	std	Y+27, r1	; 0x1b
     1e6:	1c 8e       	std	Y+28, r1	; 0x1c
     1e8:	1d 8e       	std	Y+29, r1	; 0x1d
     1ea:	1e 8e       	std	Y+30, r1	; 0x1e
     1ec:	1f 8e       	std	Y+31, r1	; 0x1f
     1ee:	18 a2       	std	Y+32, r1	; 0x20
     1f0:	fe 01       	movw	r30, r28
     1f2:	b1 96       	adiw	r30, 0x21	; 33
     1f4:	89 81       	ldd	r24, Y+1	; 0x01
     1f6:	9a 81       	ldd	r25, Y+2	; 0x02
     1f8:	ab 81       	ldd	r26, Y+3	; 0x03
     1fa:	bc 81       	ldd	r27, Y+4	; 0x04
     1fc:	4c 01       	movw	r8, r24
     1fe:	5d 01       	movw	r10, r26
     200:	cd 88       	ldd	r12, Y+21	; 0x15
     202:	de 88       	ldd	r13, Y+22	; 0x16
     204:	ef 88       	ldd	r14, Y+23	; 0x17
     206:	f8 8c       	ldd	r15, Y+24	; 0x18
     208:	09 8d       	ldd	r16, Y+25	; 0x19
     20a:	1a 8d       	ldd	r17, Y+26	; 0x1a
     20c:	2b 8d       	ldd	r18, Y+27	; 0x1b
     20e:	3c 8d       	ldd	r19, Y+28	; 0x1c
     210:	4d 8d       	ldd	r20, Y+29	; 0x1d
     212:	5e 8d       	ldd	r21, Y+30	; 0x1e
     214:	6f 8d       	ldd	r22, Y+31	; 0x1f
     216:	78 a1       	ldd	r23, Y+32	; 0x20
     218:	cf 01       	movw	r24, r30
     21a:	0e 94 62 10 	call	0x20c4	; 0x20c4 <quatForRot>
     21e:	19 86       	std	Y+9, r1	; 0x09
     220:	1a 86       	std	Y+10, r1	; 0x0a
     222:	1b 86       	std	Y+11, r1	; 0x0b
     224:	1c 86       	std	Y+12, r1	; 0x0c
     226:	80 e0       	ldi	r24, 0x00	; 0
     228:	90 e0       	ldi	r25, 0x00	; 0
     22a:	a0 e8       	ldi	r26, 0x80	; 128
     22c:	bf e3       	ldi	r27, 0x3F	; 63
     22e:	8d 87       	std	Y+13, r24	; 0x0d
     230:	9e 87       	std	Y+14, r25	; 0x0e
     232:	af 87       	std	Y+15, r26	; 0x0f
     234:	b8 8b       	std	Y+16, r27	; 0x10
     236:	19 8a       	std	Y+17, r1	; 0x11
     238:	1a 8a       	std	Y+18, r1	; 0x12
     23a:	1b 8a       	std	Y+19, r1	; 0x13
     23c:	1c 8a       	std	Y+20, r1	; 0x14
     23e:	fe 01       	movw	r30, r28
     240:	f1 96       	adiw	r30, 0x31	; 49
     242:	8d 81       	ldd	r24, Y+5	; 0x05
     244:	9e 81       	ldd	r25, Y+6	; 0x06
     246:	af 81       	ldd	r26, Y+7	; 0x07
     248:	b8 85       	ldd	r27, Y+8	; 0x08
     24a:	4c 01       	movw	r8, r24
     24c:	5d 01       	movw	r10, r26
     24e:	c9 84       	ldd	r12, Y+9	; 0x09
     250:	da 84       	ldd	r13, Y+10	; 0x0a
     252:	eb 84       	ldd	r14, Y+11	; 0x0b
     254:	fc 84       	ldd	r15, Y+12	; 0x0c
     256:	0d 85       	ldd	r16, Y+13	; 0x0d
     258:	1e 85       	ldd	r17, Y+14	; 0x0e
     25a:	2f 85       	ldd	r18, Y+15	; 0x0f
     25c:	38 89       	ldd	r19, Y+16	; 0x10
     25e:	49 89       	ldd	r20, Y+17	; 0x11
     260:	5a 89       	ldd	r21, Y+18	; 0x12
     262:	6b 89       	ldd	r22, Y+19	; 0x13
     264:	7c 89       	ldd	r23, Y+20	; 0x14
     266:	cf 01       	movw	r24, r30
     268:	0e 94 62 10 	call	0x20c4	; 0x20c4 <quatForRot>
     26c:	ce 01       	movw	r24, r28
     26e:	8f 5b       	subi	r24, 0xBF	; 191
     270:	9f 4f       	sbci	r25, 0xFF	; 255
     272:	fc 01       	movw	r30, r24
     274:	60 80       	ld	r6, Z
     276:	71 80       	ldd	r7, Z+1	; 0x01
     278:	8d b7       	in	r24, 0x3d	; 61
     27a:	9e b7       	in	r25, 0x3e	; 62
     27c:	40 97       	sbiw	r24, 0x10	; 16
     27e:	0f b6       	in	r0, 0x3f	; 63
     280:	f8 94       	cli
     282:	9e bf       	out	0x3e, r25	; 62
     284:	0f be       	out	0x3f, r0	; 63
     286:	8d bf       	out	0x3d, r24	; 61
     288:	8d b7       	in	r24, 0x3d	; 61
     28a:	9e b7       	in	r25, 0x3e	; 62
     28c:	01 96       	adiw	r24, 0x01	; 1
     28e:	20 e1       	ldi	r18, 0x10	; 16
     290:	fe 01       	movw	r30, r28
     292:	f1 96       	adiw	r30, 0x31	; 49
     294:	dc 01       	movw	r26, r24
     296:	01 90       	ld	r0, Z+
     298:	0d 92       	st	X+, r0
     29a:	2a 95       	dec	r18
     29c:	e1 f7       	brne	.-8      	; 0x296 <accelerationsToAngles+0x162>
     29e:	89 a0       	ldd	r8, Y+33	; 0x21
     2a0:	9a a0       	ldd	r9, Y+34	; 0x22
     2a2:	ab a0       	ldd	r10, Y+35	; 0x23
     2a4:	bc a0       	ldd	r11, Y+36	; 0x24
     2a6:	cd a0       	ldd	r12, Y+37	; 0x25
     2a8:	de a0       	ldd	r13, Y+38	; 0x26
     2aa:	ef a0       	ldd	r14, Y+39	; 0x27
     2ac:	f8 a4       	ldd	r15, Y+40	; 0x28
     2ae:	09 a5       	ldd	r16, Y+41	; 0x29
     2b0:	1a a5       	ldd	r17, Y+42	; 0x2a
     2b2:	2b a5       	ldd	r18, Y+43	; 0x2b
     2b4:	3c a5       	ldd	r19, Y+44	; 0x2c
     2b6:	4d a5       	ldd	r20, Y+45	; 0x2d
     2b8:	5e a5       	ldd	r21, Y+46	; 0x2e
     2ba:	6f a5       	ldd	r22, Y+47	; 0x2f
     2bc:	78 a9       	ldd	r23, Y+48	; 0x30
     2be:	c3 01       	movw	r24, r6
     2c0:	0e 94 73 11 	call	0x22e6	; 0x22e6 <hamiltonP>
     2c4:	ed b7       	in	r30, 0x3d	; 61
     2c6:	fe b7       	in	r31, 0x3e	; 62
     2c8:	70 96       	adiw	r30, 0x10	; 16
     2ca:	0f b6       	in	r0, 0x3f	; 63
     2cc:	f8 94       	cli
     2ce:	de bf       	out	0x3e, r29	; 62
     2d0:	0f be       	out	0x3f, r0	; 63
     2d2:	cd bf       	out	0x3d, r28	; 61
     2d4:	ce 01       	movw	r24, r28
     2d6:	8f 5b       	subi	r24, 0xBF	; 191
     2d8:	9f 4f       	sbci	r25, 0xFF	; 255
     2da:	fc 01       	movw	r30, r24
     2dc:	80 81       	ld	r24, Z
     2de:	91 81       	ldd	r25, Z+1	; 0x01
     2e0:	c6 5b       	subi	r28, 0xB6	; 182
     2e2:	df 4f       	sbci	r29, 0xFF	; 255
     2e4:	0f b6       	in	r0, 0x3f	; 63
     2e6:	f8 94       	cli
     2e8:	de bf       	out	0x3e, r29	; 62
     2ea:	0f be       	out	0x3f, r0	; 63
     2ec:	cd bf       	out	0x3d, r28	; 61
     2ee:	df 91       	pop	r29
     2f0:	cf 91       	pop	r28
     2f2:	1f 91       	pop	r17
     2f4:	0f 91       	pop	r16
     2f6:	ff 90       	pop	r15
     2f8:	ef 90       	pop	r14
     2fa:	df 90       	pop	r13
     2fc:	cf 90       	pop	r12
     2fe:	bf 90       	pop	r11
     300:	af 90       	pop	r10
     302:	9f 90       	pop	r9
     304:	8f 90       	pop	r8
     306:	7f 90       	pop	r7
     308:	6f 90       	pop	r6
     30a:	08 95       	ret

0000030c <accToAngle>:
     30c:	cf 93       	push	r28
     30e:	df 93       	push	r29
     310:	cd b7       	in	r28, 0x3d	; 61
     312:	de b7       	in	r29, 0x3e	; 62
     314:	28 97       	sbiw	r28, 0x08	; 8
     316:	0f b6       	in	r0, 0x3f	; 63
     318:	f8 94       	cli
     31a:	de bf       	out	0x3e, r29	; 62
     31c:	0f be       	out	0x3f, r0	; 63
     31e:	cd bf       	out	0x3d, r28	; 61
     320:	6d 83       	std	Y+5, r22	; 0x05
     322:	7e 83       	std	Y+6, r23	; 0x06
     324:	8f 83       	std	Y+7, r24	; 0x07
     326:	98 87       	std	Y+8, r25	; 0x08
     328:	87 e9       	ldi	r24, 0x97	; 151
     32a:	99 ef       	ldi	r25, 0xF9	; 249
     32c:	ad ed       	ldi	r26, 0xDD	; 221
     32e:	b0 e4       	ldi	r27, 0x40	; 64
     330:	9c 01       	movw	r18, r24
     332:	ad 01       	movw	r20, r26
     334:	6d 81       	ldd	r22, Y+5	; 0x05
     336:	7e 81       	ldd	r23, Y+6	; 0x06
     338:	8f 81       	ldd	r24, Y+7	; 0x07
     33a:	98 85       	ldd	r25, Y+8	; 0x08
     33c:	0e 94 91 1e 	call	0x3d22	; 0x3d22 <__gesf2>
     340:	18 16       	cp	r1, r24
     342:	44 f4       	brge	.+16     	; 0x354 <accToAngle+0x48>
     344:	87 e9       	ldi	r24, 0x97	; 151
     346:	99 ef       	ldi	r25, 0xF9	; 249
     348:	ad ed       	ldi	r26, 0xDD	; 221
     34a:	b0 e4       	ldi	r27, 0x40	; 64
     34c:	8d 83       	std	Y+5, r24	; 0x05
     34e:	9e 83       	std	Y+6, r25	; 0x06
     350:	af 83       	std	Y+7, r26	; 0x07
     352:	b8 87       	std	Y+8, r27	; 0x08
     354:	83 ec       	ldi	r24, 0xC3	; 195
     356:	95 ef       	ldi	r25, 0xF5	; 245
     358:	ac e1       	ldi	r26, 0x1C	; 28
     35a:	b1 e4       	ldi	r27, 0x41	; 65
     35c:	9c 01       	movw	r18, r24
     35e:	ad 01       	movw	r20, r26
     360:	6d 81       	ldd	r22, Y+5	; 0x05
     362:	7e 81       	ldd	r23, Y+6	; 0x06
     364:	8f 81       	ldd	r24, Y+7	; 0x07
     366:	98 85       	ldd	r25, Y+8	; 0x08
     368:	0e 94 22 1d 	call	0x3a44	; 0x3a44 <__divsf3>
     36c:	dc 01       	movw	r26, r24
     36e:	cb 01       	movw	r24, r22
     370:	89 83       	std	Y+1, r24	; 0x01
     372:	9a 83       	std	Y+2, r25	; 0x02
     374:	ab 83       	std	Y+3, r26	; 0x03
     376:	bc 83       	std	Y+4, r27	; 0x04
     378:	89 81       	ldd	r24, Y+1	; 0x01
     37a:	9a 81       	ldd	r25, Y+2	; 0x02
     37c:	ab 81       	ldd	r26, Y+3	; 0x03
     37e:	bc 81       	ldd	r27, Y+4	; 0x04
     380:	bc 01       	movw	r22, r24
     382:	cd 01       	movw	r24, r26
     384:	0e 94 a6 1c 	call	0x394c	; 0x394c <asin>
     388:	dc 01       	movw	r26, r24
     38a:	cb 01       	movw	r24, r22
     38c:	bc 01       	movw	r22, r24
     38e:	cd 01       	movw	r24, r26
     390:	28 96       	adiw	r28, 0x08	; 8
     392:	0f b6       	in	r0, 0x3f	; 63
     394:	f8 94       	cli
     396:	de bf       	out	0x3e, r29	; 62
     398:	0f be       	out	0x3f, r0	; 63
     39a:	cd bf       	out	0x3d, r28	; 61
     39c:	df 91       	pop	r29
     39e:	cf 91       	pop	r28
     3a0:	08 95       	ret

000003a2 <initialize>:
     3a2:	af 92       	push	r10
     3a4:	bf 92       	push	r11
     3a6:	cf 92       	push	r12
     3a8:	df 92       	push	r13
     3aa:	ef 92       	push	r14
     3ac:	ff 92       	push	r15
     3ae:	0f 93       	push	r16
     3b0:	1f 93       	push	r17
     3b2:	cf 93       	push	r28
     3b4:	df 93       	push	r29
     3b6:	cd b7       	in	r28, 0x3d	; 61
     3b8:	de b7       	in	r29, 0x3e	; 62
     3ba:	60 97       	sbiw	r28, 0x10	; 16
     3bc:	0f b6       	in	r0, 0x3f	; 63
     3be:	f8 94       	cli
     3c0:	de bf       	out	0x3e, r29	; 62
     3c2:	0f be       	out	0x3f, r0	; 63
     3c4:	cd bf       	out	0x3d, r28	; 61
     3c6:	69 83       	std	Y+1, r22	; 0x01
     3c8:	7a 83       	std	Y+2, r23	; 0x02
     3ca:	8b 83       	std	Y+3, r24	; 0x03
     3cc:	9c 83       	std	Y+4, r25	; 0x04
     3ce:	2d 83       	std	Y+5, r18	; 0x05
     3d0:	3e 83       	std	Y+6, r19	; 0x06
     3d2:	4f 83       	std	Y+7, r20	; 0x07
     3d4:	58 87       	std	Y+8, r21	; 0x08
     3d6:	e9 86       	std	Y+9, r14	; 0x09
     3d8:	fa 86       	std	Y+10, r15	; 0x0a
     3da:	0b 87       	std	Y+11, r16	; 0x0b
     3dc:	1c 87       	std	Y+12, r17	; 0x0c
     3de:	ad 86       	std	Y+13, r10	; 0x0d
     3e0:	be 86       	std	Y+14, r11	; 0x0e
     3e2:	cf 86       	std	Y+15, r12	; 0x0f
     3e4:	d8 8a       	std	Y+16, r13	; 0x10
     3e6:	89 81       	ldd	r24, Y+1	; 0x01
     3e8:	9a 81       	ldd	r25, Y+2	; 0x02
     3ea:	ab 81       	ldd	r26, Y+3	; 0x03
     3ec:	bc 81       	ldd	r27, Y+4	; 0x04
     3ee:	80 93 75 01 	sts	0x0175, r24	; 0x800175 <baseSideLength>
     3f2:	90 93 76 01 	sts	0x0176, r25	; 0x800176 <baseSideLength+0x1>
     3f6:	a0 93 77 01 	sts	0x0177, r26	; 0x800177 <baseSideLength+0x2>
     3fa:	b0 93 78 01 	sts	0x0178, r27	; 0x800178 <baseSideLength+0x3>
     3fe:	8d 81       	ldd	r24, Y+5	; 0x05
     400:	9e 81       	ldd	r25, Y+6	; 0x06
     402:	af 81       	ldd	r26, Y+7	; 0x07
     404:	b8 85       	ldd	r27, Y+8	; 0x08
     406:	80 93 fd 01 	sts	0x01FD, r24	; 0x8001fd <platformSideLength>
     40a:	90 93 fe 01 	sts	0x01FE, r25	; 0x8001fe <platformSideLength+0x1>
     40e:	a0 93 ff 01 	sts	0x01FF, r26	; 0x8001ff <platformSideLength+0x2>
     412:	b0 93 00 02 	sts	0x0200, r27	; 0x800200 <platformSideLength+0x3>
     416:	89 85       	ldd	r24, Y+9	; 0x09
     418:	9a 85       	ldd	r25, Y+10	; 0x0a
     41a:	ab 85       	ldd	r26, Y+11	; 0x0b
     41c:	bc 85       	ldd	r27, Y+12	; 0x0c
     41e:	80 93 55 02 	sts	0x0255, r24	; 0x800255 <rodLength>
     422:	90 93 56 02 	sts	0x0256, r25	; 0x800256 <rodLength+0x1>
     426:	a0 93 57 02 	sts	0x0257, r26	; 0x800257 <rodLength+0x2>
     42a:	b0 93 58 02 	sts	0x0258, r27	; 0x800258 <rodLength+0x3>
     42e:	8d 85       	ldd	r24, Y+13	; 0x0d
     430:	9e 85       	ldd	r25, Y+14	; 0x0e
     432:	af 85       	ldd	r26, Y+15	; 0x0f
     434:	b8 89       	ldd	r27, Y+16	; 0x10
     436:	80 93 51 01 	sts	0x0151, r24	; 0x800151 <hornLength>
     43a:	90 93 52 01 	sts	0x0152, r25	; 0x800152 <hornLength+0x1>
     43e:	a0 93 53 01 	sts	0x0153, r26	; 0x800153 <hornLength+0x2>
     442:	b0 93 54 01 	sts	0x0154, r27	; 0x800154 <hornLength+0x3>
     446:	8d 8d       	ldd	r24, Y+29	; 0x1d
     448:	9e 8d       	ldd	r25, Y+30	; 0x1e
     44a:	af 8d       	ldd	r26, Y+31	; 0x1f
     44c:	b8 a1       	ldd	r27, Y+32	; 0x20
     44e:	80 93 55 01 	sts	0x0155, r24	; 0x800155 <basePositionKoeff>
     452:	90 93 56 01 	sts	0x0156, r25	; 0x800156 <basePositionKoeff+0x1>
     456:	a0 93 57 01 	sts	0x0157, r26	; 0x800157 <basePositionKoeff+0x2>
     45a:	b0 93 58 01 	sts	0x0158, r27	; 0x800158 <basePositionKoeff+0x3>
     45e:	89 a1       	ldd	r24, Y+33	; 0x21
     460:	9a a1       	ldd	r25, Y+34	; 0x22
     462:	ab a1       	ldd	r26, Y+35	; 0x23
     464:	bc a1       	ldd	r27, Y+36	; 0x24
     466:	80 93 59 01 	sts	0x0159, r24	; 0x800159 <platPositionKoeff>
     46a:	90 93 5a 01 	sts	0x015A, r25	; 0x80015a <platPositionKoeff+0x1>
     46e:	a0 93 5b 01 	sts	0x015B, r26	; 0x80015b <platPositionKoeff+0x2>
     472:	b0 93 5c 01 	sts	0x015C, r27	; 0x80015c <platPositionKoeff+0x3>
     476:	e1 d7       	rcall	.+4034   	; 0x143a <calcTriangleCorner>
     478:	20 d4       	rcall	.+2112   	; 0xcba <calcMotorPositions>
     47a:	5f d0       	rcall	.+190    	; 0x53a <calcAnchorPositions>
     47c:	12 d0       	rcall	.+36     	; 0x4a2 <calcHornAngle>
     47e:	00 00       	nop
     480:	60 96       	adiw	r28, 0x10	; 16
     482:	0f b6       	in	r0, 0x3f	; 63
     484:	f8 94       	cli
     486:	de bf       	out	0x3e, r29	; 62
     488:	0f be       	out	0x3f, r0	; 63
     48a:	cd bf       	out	0x3d, r28	; 61
     48c:	df 91       	pop	r29
     48e:	cf 91       	pop	r28
     490:	1f 91       	pop	r17
     492:	0f 91       	pop	r16
     494:	ff 90       	pop	r15
     496:	ef 90       	pop	r14
     498:	df 90       	pop	r13
     49a:	cf 90       	pop	r12
     49c:	bf 90       	pop	r11
     49e:	af 90       	pop	r10
     4a0:	08 95       	ret

000004a2 <calcHornAngle>:
     4a2:	cf 93       	push	r28
     4a4:	df 93       	push	r29
     4a6:	cd b7       	in	r28, 0x3d	; 61
     4a8:	de b7       	in	r29, 0x3e	; 62
     4aa:	8b ed       	ldi	r24, 0xDB	; 219
     4ac:	9f e0       	ldi	r25, 0x0F	; 15
     4ae:	a9 e4       	ldi	r26, 0x49	; 73
     4b0:	b0 e4       	ldi	r27, 0x40	; 64
     4b2:	80 93 5d 01 	sts	0x015D, r24	; 0x80015d <hornRotations>
     4b6:	90 93 5e 01 	sts	0x015E, r25	; 0x80015e <hornRotations+0x1>
     4ba:	a0 93 5f 01 	sts	0x015F, r26	; 0x80015f <hornRotations+0x2>
     4be:	b0 93 60 01 	sts	0x0160, r27	; 0x800160 <hornRotations+0x3>
     4c2:	10 92 61 01 	sts	0x0161, r1	; 0x800161 <hornRotations+0x4>
     4c6:	10 92 62 01 	sts	0x0162, r1	; 0x800162 <hornRotations+0x5>
     4ca:	10 92 63 01 	sts	0x0163, r1	; 0x800163 <hornRotations+0x6>
     4ce:	10 92 64 01 	sts	0x0164, r1	; 0x800164 <hornRotations+0x7>
     4d2:	82 e9       	ldi	r24, 0x92	; 146
     4d4:	9a e0       	ldi	r25, 0x0A	; 10
     4d6:	a6 e8       	ldi	r26, 0x86	; 134
     4d8:	bf e3       	ldi	r27, 0x3F	; 63
     4da:	80 93 65 01 	sts	0x0165, r24	; 0x800165 <hornRotations+0x8>
     4de:	90 93 66 01 	sts	0x0166, r25	; 0x800166 <hornRotations+0x9>
     4e2:	a0 93 67 01 	sts	0x0167, r26	; 0x800167 <hornRotations+0xa>
     4e6:	b0 93 68 01 	sts	0x0168, r27	; 0x800168 <hornRotations+0xb>
     4ea:	82 e9       	ldi	r24, 0x92	; 146
     4ec:	9a e0       	ldi	r25, 0x0A	; 10
     4ee:	a6 e0       	ldi	r26, 0x06	; 6
     4f0:	b0 ec       	ldi	r27, 0xC0	; 192
     4f2:	80 93 69 01 	sts	0x0169, r24	; 0x800169 <hornRotations+0xc>
     4f6:	90 93 6a 01 	sts	0x016A, r25	; 0x80016a <hornRotations+0xd>
     4fa:	a0 93 6b 01 	sts	0x016B, r26	; 0x80016b <hornRotations+0xe>
     4fe:	b0 93 6c 01 	sts	0x016C, r27	; 0x80016c <hornRotations+0xf>
     502:	82 e9       	ldi	r24, 0x92	; 146
     504:	9a e0       	ldi	r25, 0x0A	; 10
     506:	a6 e8       	ldi	r26, 0x86	; 134
     508:	bf eb       	ldi	r27, 0xBF	; 191
     50a:	80 93 6d 01 	sts	0x016D, r24	; 0x80016d <hornRotations+0x10>
     50e:	90 93 6e 01 	sts	0x016E, r25	; 0x80016e <hornRotations+0x11>
     512:	a0 93 6f 01 	sts	0x016F, r26	; 0x80016f <hornRotations+0x12>
     516:	b0 93 70 01 	sts	0x0170, r27	; 0x800170 <hornRotations+0x13>
     51a:	82 e9       	ldi	r24, 0x92	; 146
     51c:	9a e0       	ldi	r25, 0x0A	; 10
     51e:	a6 e0       	ldi	r26, 0x06	; 6
     520:	b0 e4       	ldi	r27, 0x40	; 64
     522:	80 93 71 01 	sts	0x0171, r24	; 0x800171 <hornRotations+0x14>
     526:	90 93 72 01 	sts	0x0172, r25	; 0x800172 <hornRotations+0x15>
     52a:	a0 93 73 01 	sts	0x0173, r26	; 0x800173 <hornRotations+0x16>
     52e:	b0 93 74 01 	sts	0x0174, r27	; 0x800174 <hornRotations+0x17>
     532:	00 00       	nop
     534:	df 91       	pop	r29
     536:	cf 91       	pop	r28
     538:	08 95       	ret

0000053a <calcAnchorPositions>:
     53a:	8f 92       	push	r8
     53c:	9f 92       	push	r9
     53e:	af 92       	push	r10
     540:	bf 92       	push	r11
     542:	cf 92       	push	r12
     544:	df 92       	push	r13
     546:	ef 92       	push	r14
     548:	ff 92       	push	r15
     54a:	0f 93       	push	r16
     54c:	1f 93       	push	r17
     54e:	cf 93       	push	r28
     550:	df 93       	push	r29
     552:	cd b7       	in	r28, 0x3d	; 61
     554:	de b7       	in	r29, 0x3e	; 62
     556:	cc 57       	subi	r28, 0x7C	; 124
     558:	d1 09       	sbc	r29, r1
     55a:	0f b6       	in	r0, 0x3f	; 63
     55c:	f8 94       	cli
     55e:	de bf       	out	0x3e, r29	; 62
     560:	0f be       	out	0x3f, r0	; 63
     562:	cd bf       	out	0x3d, r28	; 61
     564:	80 91 59 01 	lds	r24, 0x0159	; 0x800159 <platPositionKoeff>
     568:	90 91 5a 01 	lds	r25, 0x015A	; 0x80015a <platPositionKoeff+0x1>
     56c:	a0 91 5b 01 	lds	r26, 0x015B	; 0x80015b <platPositionKoeff+0x2>
     570:	b0 91 5c 01 	lds	r27, 0x015C	; 0x80015c <platPositionKoeff+0x3>
     574:	9c 01       	movw	r18, r24
     576:	ad 01       	movw	r20, r26
     578:	60 e0       	ldi	r22, 0x00	; 0
     57a:	70 e0       	ldi	r23, 0x00	; 0
     57c:	80 e8       	ldi	r24, 0x80	; 128
     57e:	9f e3       	ldi	r25, 0x3F	; 63
     580:	0e 94 41 1c 	call	0x3882	; 0x3882 <__subsf3>
     584:	dc 01       	movw	r26, r24
     586:	cb 01       	movw	r24, r22
     588:	89 83       	std	Y+1, r24	; 0x01
     58a:	9a 83       	std	Y+2, r25	; 0x02
     58c:	ab 83       	std	Y+3, r26	; 0x03
     58e:	bc 83       	std	Y+4, r27	; 0x04
     590:	5e 01       	movw	r10, r28
     592:	8d e4       	ldi	r24, 0x4D	; 77
     594:	a8 0e       	add	r10, r24
     596:	b1 1c       	adc	r11, r1
     598:	ad b7       	in	r26, 0x3d	; 61
     59a:	be b7       	in	r27, 0x3e	; 62
     59c:	1c 97       	sbiw	r26, 0x0c	; 12
     59e:	0f b6       	in	r0, 0x3f	; 63
     5a0:	f8 94       	cli
     5a2:	be bf       	out	0x3e, r27	; 62
     5a4:	0f be       	out	0x3f, r0	; 63
     5a6:	ad bf       	out	0x3d, r26	; 61
     5a8:	8d b7       	in	r24, 0x3d	; 61
     5aa:	9e b7       	in	r25, 0x3e	; 62
     5ac:	01 96       	adiw	r24, 0x01	; 1
     5ae:	2c e0       	ldi	r18, 0x0C	; 12
     5b0:	e1 e9       	ldi	r30, 0x91	; 145
     5b2:	f1 e0       	ldi	r31, 0x01	; 1
     5b4:	dc 01       	movw	r26, r24
     5b6:	01 90       	ld	r0, Z+
     5b8:	0d 92       	st	X+, r0
     5ba:	2a 95       	dec	r18
     5bc:	e1 f7       	brne	.-8      	; 0x5b6 <calcAnchorPositions+0x7c>
     5be:	c0 90 e5 01 	lds	r12, 0x01E5	; 0x8001e5 <Bp>
     5c2:	d0 90 e6 01 	lds	r13, 0x01E6	; 0x8001e6 <Bp+0x1>
     5c6:	e0 90 e7 01 	lds	r14, 0x01E7	; 0x8001e7 <Bp+0x2>
     5ca:	f0 90 e8 01 	lds	r15, 0x01E8	; 0x8001e8 <Bp+0x3>
     5ce:	00 91 e9 01 	lds	r16, 0x01E9	; 0x8001e9 <Bp+0x4>
     5d2:	10 91 ea 01 	lds	r17, 0x01EA	; 0x8001ea <Bp+0x5>
     5d6:	20 91 eb 01 	lds	r18, 0x01EB	; 0x8001eb <Bp+0x6>
     5da:	30 91 ec 01 	lds	r19, 0x01EC	; 0x8001ec <Bp+0x7>
     5de:	40 91 ed 01 	lds	r20, 0x01ED	; 0x8001ed <Bp+0x8>
     5e2:	50 91 ee 01 	lds	r21, 0x01EE	; 0x8001ee <Bp+0x9>
     5e6:	60 91 ef 01 	lds	r22, 0x01EF	; 0x8001ef <Bp+0xa>
     5ea:	70 91 f0 01 	lds	r23, 0x01F0	; 0x8001f0 <Bp+0xb>
     5ee:	c5 01       	movw	r24, r10
     5f0:	0e 94 66 15 	call	0x2acc	; 0x2acc <subtract>
     5f4:	8d b7       	in	r24, 0x3d	; 61
     5f6:	9e b7       	in	r25, 0x3e	; 62
     5f8:	0c 96       	adiw	r24, 0x0c	; 12
     5fa:	0f b6       	in	r0, 0x3f	; 63
     5fc:	f8 94       	cli
     5fe:	de bf       	out	0x3e, r29	; 62
     600:	0f be       	out	0x3f, r0	; 63
     602:	cd bf       	out	0x3d, r28	; 61
     604:	5e 01       	movw	r10, r28
     606:	99 e5       	ldi	r25, 0x59	; 89
     608:	a9 0e       	add	r10, r25
     60a:	b1 1c       	adc	r11, r1
     60c:	ad b7       	in	r26, 0x3d	; 61
     60e:	be b7       	in	r27, 0x3e	; 62
     610:	1c 97       	sbiw	r26, 0x0c	; 12
     612:	0f b6       	in	r0, 0x3f	; 63
     614:	f8 94       	cli
     616:	be bf       	out	0x3e, r27	; 62
     618:	0f be       	out	0x3f, r0	; 63
     61a:	ad bf       	out	0x3d, r26	; 61
     61c:	8d b7       	in	r24, 0x3d	; 61
     61e:	9e b7       	in	r25, 0x3e	; 62
     620:	01 96       	adiw	r24, 0x01	; 1
     622:	2c e0       	ldi	r18, 0x0C	; 12
     624:	e5 ee       	ldi	r30, 0xE5	; 229
     626:	f1 e0       	ldi	r31, 0x01	; 1
     628:	dc 01       	movw	r26, r24
     62a:	01 90       	ld	r0, Z+
     62c:	0d 92       	st	X+, r0
     62e:	2a 95       	dec	r18
     630:	e1 f7       	brne	.-8      	; 0x62a <calcAnchorPositions+0xf0>
     632:	c0 90 01 02 	lds	r12, 0x0201	; 0x800201 <Cp>
     636:	d0 90 02 02 	lds	r13, 0x0202	; 0x800202 <Cp+0x1>
     63a:	e0 90 03 02 	lds	r14, 0x0203	; 0x800203 <Cp+0x2>
     63e:	f0 90 04 02 	lds	r15, 0x0204	; 0x800204 <Cp+0x3>
     642:	00 91 05 02 	lds	r16, 0x0205	; 0x800205 <Cp+0x4>
     646:	10 91 06 02 	lds	r17, 0x0206	; 0x800206 <Cp+0x5>
     64a:	20 91 07 02 	lds	r18, 0x0207	; 0x800207 <Cp+0x6>
     64e:	30 91 08 02 	lds	r19, 0x0208	; 0x800208 <Cp+0x7>
     652:	40 91 09 02 	lds	r20, 0x0209	; 0x800209 <Cp+0x8>
     656:	50 91 0a 02 	lds	r21, 0x020A	; 0x80020a <Cp+0x9>
     65a:	60 91 0b 02 	lds	r22, 0x020B	; 0x80020b <Cp+0xa>
     65e:	70 91 0c 02 	lds	r23, 0x020C	; 0x80020c <Cp+0xb>
     662:	c5 01       	movw	r24, r10
     664:	0e 94 66 15 	call	0x2acc	; 0x2acc <subtract>
     668:	8d b7       	in	r24, 0x3d	; 61
     66a:	9e b7       	in	r25, 0x3e	; 62
     66c:	0c 96       	adiw	r24, 0x0c	; 12
     66e:	0f b6       	in	r0, 0x3f	; 63
     670:	f8 94       	cli
     672:	de bf       	out	0x3e, r29	; 62
     674:	0f be       	out	0x3f, r0	; 63
     676:	cd bf       	out	0x3d, r28	; 61
     678:	5e 01       	movw	r10, r28
     67a:	95 e6       	ldi	r25, 0x65	; 101
     67c:	a9 0e       	add	r10, r25
     67e:	b1 1c       	adc	r11, r1
     680:	ad b7       	in	r26, 0x3d	; 61
     682:	be b7       	in	r27, 0x3e	; 62
     684:	1c 97       	sbiw	r26, 0x0c	; 12
     686:	0f b6       	in	r0, 0x3f	; 63
     688:	f8 94       	cli
     68a:	be bf       	out	0x3e, r27	; 62
     68c:	0f be       	out	0x3f, r0	; 63
     68e:	ad bf       	out	0x3d, r26	; 61
     690:	8d b7       	in	r24, 0x3d	; 61
     692:	9e b7       	in	r25, 0x3e	; 62
     694:	01 96       	adiw	r24, 0x01	; 1
     696:	2c e0       	ldi	r18, 0x0C	; 12
     698:	e1 e0       	ldi	r30, 0x01	; 1
     69a:	f2 e0       	ldi	r31, 0x02	; 2
     69c:	dc 01       	movw	r26, r24
     69e:	01 90       	ld	r0, Z+
     6a0:	0d 92       	st	X+, r0
     6a2:	2a 95       	dec	r18
     6a4:	e1 f7       	brne	.-8      	; 0x69e <calcAnchorPositions+0x164>
     6a6:	c0 90 91 01 	lds	r12, 0x0191	; 0x800191 <Ap>
     6aa:	d0 90 92 01 	lds	r13, 0x0192	; 0x800192 <Ap+0x1>
     6ae:	e0 90 93 01 	lds	r14, 0x0193	; 0x800193 <Ap+0x2>
     6b2:	f0 90 94 01 	lds	r15, 0x0194	; 0x800194 <Ap+0x3>
     6b6:	00 91 95 01 	lds	r16, 0x0195	; 0x800195 <Ap+0x4>
     6ba:	10 91 96 01 	lds	r17, 0x0196	; 0x800196 <Ap+0x5>
     6be:	20 91 97 01 	lds	r18, 0x0197	; 0x800197 <Ap+0x6>
     6c2:	30 91 98 01 	lds	r19, 0x0198	; 0x800198 <Ap+0x7>
     6c6:	40 91 99 01 	lds	r20, 0x0199	; 0x800199 <Ap+0x8>
     6ca:	50 91 9a 01 	lds	r21, 0x019A	; 0x80019a <Ap+0x9>
     6ce:	60 91 9b 01 	lds	r22, 0x019B	; 0x80019b <Ap+0xa>
     6d2:	70 91 9c 01 	lds	r23, 0x019C	; 0x80019c <Ap+0xb>
     6d6:	c5 01       	movw	r24, r10
     6d8:	0e 94 66 15 	call	0x2acc	; 0x2acc <subtract>
     6dc:	8d b7       	in	r24, 0x3d	; 61
     6de:	9e b7       	in	r25, 0x3e	; 62
     6e0:	0c 96       	adiw	r24, 0x0c	; 12
     6e2:	0f b6       	in	r0, 0x3f	; 63
     6e4:	f8 94       	cli
     6e6:	de bf       	out	0x3e, r29	; 62
     6e8:	0f be       	out	0x3f, r0	; 63
     6ea:	cd bf       	out	0x3d, r28	; 61
     6ec:	20 91 59 01 	lds	r18, 0x0159	; 0x800159 <platPositionKoeff>
     6f0:	30 91 5a 01 	lds	r19, 0x015A	; 0x80015a <platPositionKoeff+0x1>
     6f4:	40 91 5b 01 	lds	r20, 0x015B	; 0x80015b <platPositionKoeff+0x2>
     6f8:	50 91 5c 01 	lds	r21, 0x015C	; 0x80015c <platPositionKoeff+0x3>
     6fc:	fe 01       	movw	r30, r28
     6fe:	ef 5b       	subi	r30, 0xBF	; 191
     700:	ff 4f       	sbci	r31, 0xFF	; 255
     702:	ce 01       	movw	r24, r28
     704:	83 5b       	subi	r24, 0xB3	; 179
     706:	9f 4f       	sbci	r25, 0xFF	; 255
     708:	49 01       	movw	r8, r18
     70a:	5a 01       	movw	r10, r20
     70c:	dc 01       	movw	r26, r24
     70e:	cc 90       	ld	r12, X
     710:	dc 01       	movw	r26, r24
     712:	11 96       	adiw	r26, 0x01	; 1
     714:	dc 90       	ld	r13, X
     716:	dc 01       	movw	r26, r24
     718:	12 96       	adiw	r26, 0x02	; 2
     71a:	ec 90       	ld	r14, X
     71c:	dc 01       	movw	r26, r24
     71e:	13 96       	adiw	r26, 0x03	; 3
     720:	fc 90       	ld	r15, X
     722:	dc 01       	movw	r26, r24
     724:	14 96       	adiw	r26, 0x04	; 4
     726:	0c 91       	ld	r16, X
     728:	dc 01       	movw	r26, r24
     72a:	15 96       	adiw	r26, 0x05	; 5
     72c:	1c 91       	ld	r17, X
     72e:	dc 01       	movw	r26, r24
     730:	16 96       	adiw	r26, 0x06	; 6
     732:	2c 91       	ld	r18, X
     734:	dc 01       	movw	r26, r24
     736:	17 96       	adiw	r26, 0x07	; 7
     738:	3c 91       	ld	r19, X
     73a:	dc 01       	movw	r26, r24
     73c:	18 96       	adiw	r26, 0x08	; 8
     73e:	4c 91       	ld	r20, X
     740:	dc 01       	movw	r26, r24
     742:	19 96       	adiw	r26, 0x09	; 9
     744:	5c 91       	ld	r21, X
     746:	dc 01       	movw	r26, r24
     748:	1a 96       	adiw	r26, 0x0a	; 10
     74a:	6c 91       	ld	r22, X
     74c:	dc 01       	movw	r26, r24
     74e:	1b 96       	adiw	r26, 0x0b	; 11
     750:	7c 91       	ld	r23, X
     752:	cf 01       	movw	r24, r30
     754:	0e 94 7b 14 	call	0x28f6	; 0x28f6 <multiply>
     758:	5e 01       	movw	r10, r28
     75a:	b1 e7       	ldi	r27, 0x71	; 113
     75c:	ab 0e       	add	r10, r27
     75e:	b1 1c       	adc	r11, r1
     760:	8d b7       	in	r24, 0x3d	; 61
     762:	9e b7       	in	r25, 0x3e	; 62
     764:	0c 97       	sbiw	r24, 0x0c	; 12
     766:	0f b6       	in	r0, 0x3f	; 63
     768:	f8 94       	cli
     76a:	9e bf       	out	0x3e, r25	; 62
     76c:	0f be       	out	0x3f, r0	; 63
     76e:	8d bf       	out	0x3d, r24	; 61
     770:	8d b7       	in	r24, 0x3d	; 61
     772:	9e b7       	in	r25, 0x3e	; 62
     774:	01 96       	adiw	r24, 0x01	; 1
     776:	2c e0       	ldi	r18, 0x0C	; 12
     778:	fe 01       	movw	r30, r28
     77a:	ef 5b       	subi	r30, 0xBF	; 191
     77c:	ff 4f       	sbci	r31, 0xFF	; 255
     77e:	dc 01       	movw	r26, r24
     780:	01 90       	ld	r0, Z+
     782:	0d 92       	st	X+, r0
     784:	2a 95       	dec	r18
     786:	e1 f7       	brne	.-8      	; 0x780 <calcAnchorPositions+0x246>
     788:	c0 90 91 01 	lds	r12, 0x0191	; 0x800191 <Ap>
     78c:	d0 90 92 01 	lds	r13, 0x0192	; 0x800192 <Ap+0x1>
     790:	e0 90 93 01 	lds	r14, 0x0193	; 0x800193 <Ap+0x2>
     794:	f0 90 94 01 	lds	r15, 0x0194	; 0x800194 <Ap+0x3>
     798:	00 91 95 01 	lds	r16, 0x0195	; 0x800195 <Ap+0x4>
     79c:	10 91 96 01 	lds	r17, 0x0196	; 0x800196 <Ap+0x5>
     7a0:	20 91 97 01 	lds	r18, 0x0197	; 0x800197 <Ap+0x6>
     7a4:	30 91 98 01 	lds	r19, 0x0198	; 0x800198 <Ap+0x7>
     7a8:	40 91 99 01 	lds	r20, 0x0199	; 0x800199 <Ap+0x8>
     7ac:	50 91 9a 01 	lds	r21, 0x019A	; 0x80019a <Ap+0x9>
     7b0:	60 91 9b 01 	lds	r22, 0x019B	; 0x80019b <Ap+0xa>
     7b4:	70 91 9c 01 	lds	r23, 0x019C	; 0x80019c <Ap+0xb>
     7b8:	c5 01       	movw	r24, r10
     7ba:	0e 94 f8 14 	call	0x29f0	; 0x29f0 <add>
     7be:	ad b7       	in	r26, 0x3d	; 61
     7c0:	be b7       	in	r27, 0x3e	; 62
     7c2:	1c 96       	adiw	r26, 0x0c	; 12
     7c4:	0f b6       	in	r0, 0x3f	; 63
     7c6:	f8 94       	cli
     7c8:	de bf       	out	0x3e, r29	; 62
     7ca:	0f be       	out	0x3f, r0	; 63
     7cc:	cd bf       	out	0x3d, r28	; 61
     7ce:	ce 01       	movw	r24, r28
     7d0:	8f 58       	subi	r24, 0x8F	; 143
     7d2:	9f 4f       	sbci	r25, 0xFF	; 255
     7d4:	2c e0       	ldi	r18, 0x0C	; 12
     7d6:	fc 01       	movw	r30, r24
     7d8:	ad e0       	ldi	r26, 0x0D	; 13
     7da:	b2 e0       	ldi	r27, 0x02	; 2
     7dc:	01 90       	ld	r0, Z+
     7de:	0d 92       	st	X+, r0
     7e0:	2a 95       	dec	r18
     7e2:	e1 f7       	brne	.-8      	; 0x7dc <calcAnchorPositions+0x2a2>
     7e4:	fe 01       	movw	r30, r28
     7e6:	f5 96       	adiw	r30, 0x35	; 53
     7e8:	29 81       	ldd	r18, Y+1	; 0x01
     7ea:	3a 81       	ldd	r19, Y+2	; 0x02
     7ec:	4b 81       	ldd	r20, Y+3	; 0x03
     7ee:	5c 81       	ldd	r21, Y+4	; 0x04
     7f0:	ce 01       	movw	r24, r28
     7f2:	8b 59       	subi	r24, 0x9B	; 155
     7f4:	9f 4f       	sbci	r25, 0xFF	; 255
     7f6:	49 01       	movw	r8, r18
     7f8:	5a 01       	movw	r10, r20
     7fa:	dc 01       	movw	r26, r24
     7fc:	cc 90       	ld	r12, X
     7fe:	dc 01       	movw	r26, r24
     800:	11 96       	adiw	r26, 0x01	; 1
     802:	dc 90       	ld	r13, X
     804:	dc 01       	movw	r26, r24
     806:	12 96       	adiw	r26, 0x02	; 2
     808:	ec 90       	ld	r14, X
     80a:	dc 01       	movw	r26, r24
     80c:	13 96       	adiw	r26, 0x03	; 3
     80e:	fc 90       	ld	r15, X
     810:	dc 01       	movw	r26, r24
     812:	14 96       	adiw	r26, 0x04	; 4
     814:	0c 91       	ld	r16, X
     816:	dc 01       	movw	r26, r24
     818:	15 96       	adiw	r26, 0x05	; 5
     81a:	1c 91       	ld	r17, X
     81c:	dc 01       	movw	r26, r24
     81e:	16 96       	adiw	r26, 0x06	; 6
     820:	2c 91       	ld	r18, X
     822:	dc 01       	movw	r26, r24
     824:	17 96       	adiw	r26, 0x07	; 7
     826:	3c 91       	ld	r19, X
     828:	dc 01       	movw	r26, r24
     82a:	18 96       	adiw	r26, 0x08	; 8
     82c:	4c 91       	ld	r20, X
     82e:	dc 01       	movw	r26, r24
     830:	19 96       	adiw	r26, 0x09	; 9
     832:	5c 91       	ld	r21, X
     834:	dc 01       	movw	r26, r24
     836:	1a 96       	adiw	r26, 0x0a	; 10
     838:	6c 91       	ld	r22, X
     83a:	dc 01       	movw	r26, r24
     83c:	1b 96       	adiw	r26, 0x0b	; 11
     83e:	7c 91       	ld	r23, X
     840:	cf 01       	movw	r24, r30
     842:	0e 94 7b 14 	call	0x28f6	; 0x28f6 <multiply>
     846:	5e 01       	movw	r10, r28
     848:	b1 e7       	ldi	r27, 0x71	; 113
     84a:	ab 0e       	add	r10, r27
     84c:	b1 1c       	adc	r11, r1
     84e:	8d b7       	in	r24, 0x3d	; 61
     850:	9e b7       	in	r25, 0x3e	; 62
     852:	0c 97       	sbiw	r24, 0x0c	; 12
     854:	0f b6       	in	r0, 0x3f	; 63
     856:	f8 94       	cli
     858:	9e bf       	out	0x3e, r25	; 62
     85a:	0f be       	out	0x3f, r0	; 63
     85c:	8d bf       	out	0x3d, r24	; 61
     85e:	8d b7       	in	r24, 0x3d	; 61
     860:	9e b7       	in	r25, 0x3e	; 62
     862:	01 96       	adiw	r24, 0x01	; 1
     864:	2c e0       	ldi	r18, 0x0C	; 12
     866:	fe 01       	movw	r30, r28
     868:	f5 96       	adiw	r30, 0x35	; 53
     86a:	dc 01       	movw	r26, r24
     86c:	01 90       	ld	r0, Z+
     86e:	0d 92       	st	X+, r0
     870:	2a 95       	dec	r18
     872:	e1 f7       	brne	.-8      	; 0x86c <calcAnchorPositions+0x332>
     874:	c0 90 01 02 	lds	r12, 0x0201	; 0x800201 <Cp>
     878:	d0 90 02 02 	lds	r13, 0x0202	; 0x800202 <Cp+0x1>
     87c:	e0 90 03 02 	lds	r14, 0x0203	; 0x800203 <Cp+0x2>
     880:	f0 90 04 02 	lds	r15, 0x0204	; 0x800204 <Cp+0x3>
     884:	00 91 05 02 	lds	r16, 0x0205	; 0x800205 <Cp+0x4>
     888:	10 91 06 02 	lds	r17, 0x0206	; 0x800206 <Cp+0x5>
     88c:	20 91 07 02 	lds	r18, 0x0207	; 0x800207 <Cp+0x6>
     890:	30 91 08 02 	lds	r19, 0x0208	; 0x800208 <Cp+0x7>
     894:	40 91 09 02 	lds	r20, 0x0209	; 0x800209 <Cp+0x8>
     898:	50 91 0a 02 	lds	r21, 0x020A	; 0x80020a <Cp+0x9>
     89c:	60 91 0b 02 	lds	r22, 0x020B	; 0x80020b <Cp+0xa>
     8a0:	70 91 0c 02 	lds	r23, 0x020C	; 0x80020c <Cp+0xb>
     8a4:	c5 01       	movw	r24, r10
     8a6:	0e 94 f8 14 	call	0x29f0	; 0x29f0 <add>
     8aa:	ad b7       	in	r26, 0x3d	; 61
     8ac:	be b7       	in	r27, 0x3e	; 62
     8ae:	1c 96       	adiw	r26, 0x0c	; 12
     8b0:	0f b6       	in	r0, 0x3f	; 63
     8b2:	f8 94       	cli
     8b4:	de bf       	out	0x3e, r29	; 62
     8b6:	0f be       	out	0x3f, r0	; 63
     8b8:	cd bf       	out	0x3d, r28	; 61
     8ba:	ce 01       	movw	r24, r28
     8bc:	8f 58       	subi	r24, 0x8F	; 143
     8be:	9f 4f       	sbci	r25, 0xFF	; 255
     8c0:	2c e0       	ldi	r18, 0x0C	; 12
     8c2:	fc 01       	movw	r30, r24
     8c4:	a9 e1       	ldi	r26, 0x19	; 25
     8c6:	b2 e0       	ldi	r27, 0x02	; 2
     8c8:	01 90       	ld	r0, Z+
     8ca:	0d 92       	st	X+, r0
     8cc:	2a 95       	dec	r18
     8ce:	e1 f7       	brne	.-8      	; 0x8c8 <calcAnchorPositions+0x38e>
     8d0:	20 91 59 01 	lds	r18, 0x0159	; 0x800159 <platPositionKoeff>
     8d4:	30 91 5a 01 	lds	r19, 0x015A	; 0x80015a <platPositionKoeff+0x1>
     8d8:	40 91 5b 01 	lds	r20, 0x015B	; 0x80015b <platPositionKoeff+0x2>
     8dc:	50 91 5c 01 	lds	r21, 0x015C	; 0x80015c <platPositionKoeff+0x3>
     8e0:	fe 01       	movw	r30, r28
     8e2:	b9 96       	adiw	r30, 0x29	; 41
     8e4:	ce 01       	movw	r24, r28
     8e6:	8b 59       	subi	r24, 0x9B	; 155
     8e8:	9f 4f       	sbci	r25, 0xFF	; 255
     8ea:	49 01       	movw	r8, r18
     8ec:	5a 01       	movw	r10, r20
     8ee:	dc 01       	movw	r26, r24
     8f0:	cc 90       	ld	r12, X
     8f2:	dc 01       	movw	r26, r24
     8f4:	11 96       	adiw	r26, 0x01	; 1
     8f6:	dc 90       	ld	r13, X
     8f8:	dc 01       	movw	r26, r24
     8fa:	12 96       	adiw	r26, 0x02	; 2
     8fc:	ec 90       	ld	r14, X
     8fe:	dc 01       	movw	r26, r24
     900:	13 96       	adiw	r26, 0x03	; 3
     902:	fc 90       	ld	r15, X
     904:	dc 01       	movw	r26, r24
     906:	14 96       	adiw	r26, 0x04	; 4
     908:	0c 91       	ld	r16, X
     90a:	dc 01       	movw	r26, r24
     90c:	15 96       	adiw	r26, 0x05	; 5
     90e:	1c 91       	ld	r17, X
     910:	dc 01       	movw	r26, r24
     912:	16 96       	adiw	r26, 0x06	; 6
     914:	2c 91       	ld	r18, X
     916:	dc 01       	movw	r26, r24
     918:	17 96       	adiw	r26, 0x07	; 7
     91a:	3c 91       	ld	r19, X
     91c:	dc 01       	movw	r26, r24
     91e:	18 96       	adiw	r26, 0x08	; 8
     920:	4c 91       	ld	r20, X
     922:	dc 01       	movw	r26, r24
     924:	19 96       	adiw	r26, 0x09	; 9
     926:	5c 91       	ld	r21, X
     928:	dc 01       	movw	r26, r24
     92a:	1a 96       	adiw	r26, 0x0a	; 10
     92c:	6c 91       	ld	r22, X
     92e:	dc 01       	movw	r26, r24
     930:	1b 96       	adiw	r26, 0x0b	; 11
     932:	7c 91       	ld	r23, X
     934:	cf 01       	movw	r24, r30
     936:	0e 94 7b 14 	call	0x28f6	; 0x28f6 <multiply>
     93a:	5e 01       	movw	r10, r28
     93c:	b1 e7       	ldi	r27, 0x71	; 113
     93e:	ab 0e       	add	r10, r27
     940:	b1 1c       	adc	r11, r1
     942:	8d b7       	in	r24, 0x3d	; 61
     944:	9e b7       	in	r25, 0x3e	; 62
     946:	0c 97       	sbiw	r24, 0x0c	; 12
     948:	0f b6       	in	r0, 0x3f	; 63
     94a:	f8 94       	cli
     94c:	9e bf       	out	0x3e, r25	; 62
     94e:	0f be       	out	0x3f, r0	; 63
     950:	8d bf       	out	0x3d, r24	; 61
     952:	8d b7       	in	r24, 0x3d	; 61
     954:	9e b7       	in	r25, 0x3e	; 62
     956:	01 96       	adiw	r24, 0x01	; 1
     958:	2c e0       	ldi	r18, 0x0C	; 12
     95a:	fe 01       	movw	r30, r28
     95c:	b9 96       	adiw	r30, 0x29	; 41
     95e:	dc 01       	movw	r26, r24
     960:	01 90       	ld	r0, Z+
     962:	0d 92       	st	X+, r0
     964:	2a 95       	dec	r18
     966:	e1 f7       	brne	.-8      	; 0x960 <calcAnchorPositions+0x426>
     968:	c0 90 01 02 	lds	r12, 0x0201	; 0x800201 <Cp>
     96c:	d0 90 02 02 	lds	r13, 0x0202	; 0x800202 <Cp+0x1>
     970:	e0 90 03 02 	lds	r14, 0x0203	; 0x800203 <Cp+0x2>
     974:	f0 90 04 02 	lds	r15, 0x0204	; 0x800204 <Cp+0x3>
     978:	00 91 05 02 	lds	r16, 0x0205	; 0x800205 <Cp+0x4>
     97c:	10 91 06 02 	lds	r17, 0x0206	; 0x800206 <Cp+0x5>
     980:	20 91 07 02 	lds	r18, 0x0207	; 0x800207 <Cp+0x6>
     984:	30 91 08 02 	lds	r19, 0x0208	; 0x800208 <Cp+0x7>
     988:	40 91 09 02 	lds	r20, 0x0209	; 0x800209 <Cp+0x8>
     98c:	50 91 0a 02 	lds	r21, 0x020A	; 0x80020a <Cp+0x9>
     990:	60 91 0b 02 	lds	r22, 0x020B	; 0x80020b <Cp+0xa>
     994:	70 91 0c 02 	lds	r23, 0x020C	; 0x80020c <Cp+0xb>
     998:	c5 01       	movw	r24, r10
     99a:	0e 94 f8 14 	call	0x29f0	; 0x29f0 <add>
     99e:	ad b7       	in	r26, 0x3d	; 61
     9a0:	be b7       	in	r27, 0x3e	; 62
     9a2:	1c 96       	adiw	r26, 0x0c	; 12
     9a4:	0f b6       	in	r0, 0x3f	; 63
     9a6:	f8 94       	cli
     9a8:	de bf       	out	0x3e, r29	; 62
     9aa:	0f be       	out	0x3f, r0	; 63
     9ac:	cd bf       	out	0x3d, r28	; 61
     9ae:	ce 01       	movw	r24, r28
     9b0:	8f 58       	subi	r24, 0x8F	; 143
     9b2:	9f 4f       	sbci	r25, 0xFF	; 255
     9b4:	2c e0       	ldi	r18, 0x0C	; 12
     9b6:	fc 01       	movw	r30, r24
     9b8:	a5 e2       	ldi	r26, 0x25	; 37
     9ba:	b2 e0       	ldi	r27, 0x02	; 2
     9bc:	01 90       	ld	r0, Z+
     9be:	0d 92       	st	X+, r0
     9c0:	2a 95       	dec	r18
     9c2:	e1 f7       	brne	.-8      	; 0x9bc <calcAnchorPositions+0x482>
     9c4:	fe 01       	movw	r30, r28
     9c6:	7d 96       	adiw	r30, 0x1d	; 29
     9c8:	29 81       	ldd	r18, Y+1	; 0x01
     9ca:	3a 81       	ldd	r19, Y+2	; 0x02
     9cc:	4b 81       	ldd	r20, Y+3	; 0x03
     9ce:	5c 81       	ldd	r21, Y+4	; 0x04
     9d0:	ce 01       	movw	r24, r28
     9d2:	87 5a       	subi	r24, 0xA7	; 167
     9d4:	9f 4f       	sbci	r25, 0xFF	; 255
     9d6:	49 01       	movw	r8, r18
     9d8:	5a 01       	movw	r10, r20
     9da:	dc 01       	movw	r26, r24
     9dc:	cc 90       	ld	r12, X
     9de:	dc 01       	movw	r26, r24
     9e0:	11 96       	adiw	r26, 0x01	; 1
     9e2:	dc 90       	ld	r13, X
     9e4:	dc 01       	movw	r26, r24
     9e6:	12 96       	adiw	r26, 0x02	; 2
     9e8:	ec 90       	ld	r14, X
     9ea:	dc 01       	movw	r26, r24
     9ec:	13 96       	adiw	r26, 0x03	; 3
     9ee:	fc 90       	ld	r15, X
     9f0:	dc 01       	movw	r26, r24
     9f2:	14 96       	adiw	r26, 0x04	; 4
     9f4:	0c 91       	ld	r16, X
     9f6:	dc 01       	movw	r26, r24
     9f8:	15 96       	adiw	r26, 0x05	; 5
     9fa:	1c 91       	ld	r17, X
     9fc:	dc 01       	movw	r26, r24
     9fe:	16 96       	adiw	r26, 0x06	; 6
     a00:	2c 91       	ld	r18, X
     a02:	dc 01       	movw	r26, r24
     a04:	17 96       	adiw	r26, 0x07	; 7
     a06:	3c 91       	ld	r19, X
     a08:	dc 01       	movw	r26, r24
     a0a:	18 96       	adiw	r26, 0x08	; 8
     a0c:	4c 91       	ld	r20, X
     a0e:	dc 01       	movw	r26, r24
     a10:	19 96       	adiw	r26, 0x09	; 9
     a12:	5c 91       	ld	r21, X
     a14:	dc 01       	movw	r26, r24
     a16:	1a 96       	adiw	r26, 0x0a	; 10
     a18:	6c 91       	ld	r22, X
     a1a:	dc 01       	movw	r26, r24
     a1c:	1b 96       	adiw	r26, 0x0b	; 11
     a1e:	7c 91       	ld	r23, X
     a20:	cf 01       	movw	r24, r30
     a22:	0e 94 7b 14 	call	0x28f6	; 0x28f6 <multiply>
     a26:	5e 01       	movw	r10, r28
     a28:	b1 e7       	ldi	r27, 0x71	; 113
     a2a:	ab 0e       	add	r10, r27
     a2c:	b1 1c       	adc	r11, r1
     a2e:	8d b7       	in	r24, 0x3d	; 61
     a30:	9e b7       	in	r25, 0x3e	; 62
     a32:	0c 97       	sbiw	r24, 0x0c	; 12
     a34:	0f b6       	in	r0, 0x3f	; 63
     a36:	f8 94       	cli
     a38:	9e bf       	out	0x3e, r25	; 62
     a3a:	0f be       	out	0x3f, r0	; 63
     a3c:	8d bf       	out	0x3d, r24	; 61
     a3e:	8d b7       	in	r24, 0x3d	; 61
     a40:	9e b7       	in	r25, 0x3e	; 62
     a42:	01 96       	adiw	r24, 0x01	; 1
     a44:	2c e0       	ldi	r18, 0x0C	; 12
     a46:	fe 01       	movw	r30, r28
     a48:	7d 96       	adiw	r30, 0x1d	; 29
     a4a:	dc 01       	movw	r26, r24
     a4c:	01 90       	ld	r0, Z+
     a4e:	0d 92       	st	X+, r0
     a50:	2a 95       	dec	r18
     a52:	e1 f7       	brne	.-8      	; 0xa4c <calcAnchorPositions+0x512>
     a54:	c0 90 e5 01 	lds	r12, 0x01E5	; 0x8001e5 <Bp>
     a58:	d0 90 e6 01 	lds	r13, 0x01E6	; 0x8001e6 <Bp+0x1>
     a5c:	e0 90 e7 01 	lds	r14, 0x01E7	; 0x8001e7 <Bp+0x2>
     a60:	f0 90 e8 01 	lds	r15, 0x01E8	; 0x8001e8 <Bp+0x3>
     a64:	00 91 e9 01 	lds	r16, 0x01E9	; 0x8001e9 <Bp+0x4>
     a68:	10 91 ea 01 	lds	r17, 0x01EA	; 0x8001ea <Bp+0x5>
     a6c:	20 91 eb 01 	lds	r18, 0x01EB	; 0x8001eb <Bp+0x6>
     a70:	30 91 ec 01 	lds	r19, 0x01EC	; 0x8001ec <Bp+0x7>
     a74:	40 91 ed 01 	lds	r20, 0x01ED	; 0x8001ed <Bp+0x8>
     a78:	50 91 ee 01 	lds	r21, 0x01EE	; 0x8001ee <Bp+0x9>
     a7c:	60 91 ef 01 	lds	r22, 0x01EF	; 0x8001ef <Bp+0xa>
     a80:	70 91 f0 01 	lds	r23, 0x01F0	; 0x8001f0 <Bp+0xb>
     a84:	c5 01       	movw	r24, r10
     a86:	0e 94 f8 14 	call	0x29f0	; 0x29f0 <add>
     a8a:	ad b7       	in	r26, 0x3d	; 61
     a8c:	be b7       	in	r27, 0x3e	; 62
     a8e:	1c 96       	adiw	r26, 0x0c	; 12
     a90:	0f b6       	in	r0, 0x3f	; 63
     a92:	f8 94       	cli
     a94:	de bf       	out	0x3e, r29	; 62
     a96:	0f be       	out	0x3f, r0	; 63
     a98:	cd bf       	out	0x3d, r28	; 61
     a9a:	ce 01       	movw	r24, r28
     a9c:	8f 58       	subi	r24, 0x8F	; 143
     a9e:	9f 4f       	sbci	r25, 0xFF	; 255
     aa0:	2c e0       	ldi	r18, 0x0C	; 12
     aa2:	fc 01       	movw	r30, r24
     aa4:	a1 e3       	ldi	r26, 0x31	; 49
     aa6:	b2 e0       	ldi	r27, 0x02	; 2
     aa8:	01 90       	ld	r0, Z+
     aaa:	0d 92       	st	X+, r0
     aac:	2a 95       	dec	r18
     aae:	e1 f7       	brne	.-8      	; 0xaa8 <calcAnchorPositions+0x56e>
     ab0:	20 91 59 01 	lds	r18, 0x0159	; 0x800159 <platPositionKoeff>
     ab4:	30 91 5a 01 	lds	r19, 0x015A	; 0x80015a <platPositionKoeff+0x1>
     ab8:	40 91 5b 01 	lds	r20, 0x015B	; 0x80015b <platPositionKoeff+0x2>
     abc:	50 91 5c 01 	lds	r21, 0x015C	; 0x80015c <platPositionKoeff+0x3>
     ac0:	fe 01       	movw	r30, r28
     ac2:	71 96       	adiw	r30, 0x11	; 17
     ac4:	ce 01       	movw	r24, r28
     ac6:	87 5a       	subi	r24, 0xA7	; 167
     ac8:	9f 4f       	sbci	r25, 0xFF	; 255
     aca:	49 01       	movw	r8, r18
     acc:	5a 01       	movw	r10, r20
     ace:	dc 01       	movw	r26, r24
     ad0:	cc 90       	ld	r12, X
     ad2:	dc 01       	movw	r26, r24
     ad4:	11 96       	adiw	r26, 0x01	; 1
     ad6:	dc 90       	ld	r13, X
     ad8:	dc 01       	movw	r26, r24
     ada:	12 96       	adiw	r26, 0x02	; 2
     adc:	ec 90       	ld	r14, X
     ade:	dc 01       	movw	r26, r24
     ae0:	13 96       	adiw	r26, 0x03	; 3
     ae2:	fc 90       	ld	r15, X
     ae4:	dc 01       	movw	r26, r24
     ae6:	14 96       	adiw	r26, 0x04	; 4
     ae8:	0c 91       	ld	r16, X
     aea:	dc 01       	movw	r26, r24
     aec:	15 96       	adiw	r26, 0x05	; 5
     aee:	1c 91       	ld	r17, X
     af0:	dc 01       	movw	r26, r24
     af2:	16 96       	adiw	r26, 0x06	; 6
     af4:	2c 91       	ld	r18, X
     af6:	dc 01       	movw	r26, r24
     af8:	17 96       	adiw	r26, 0x07	; 7
     afa:	3c 91       	ld	r19, X
     afc:	dc 01       	movw	r26, r24
     afe:	18 96       	adiw	r26, 0x08	; 8
     b00:	4c 91       	ld	r20, X
     b02:	dc 01       	movw	r26, r24
     b04:	19 96       	adiw	r26, 0x09	; 9
     b06:	5c 91       	ld	r21, X
     b08:	dc 01       	movw	r26, r24
     b0a:	1a 96       	adiw	r26, 0x0a	; 10
     b0c:	6c 91       	ld	r22, X
     b0e:	dc 01       	movw	r26, r24
     b10:	1b 96       	adiw	r26, 0x0b	; 11
     b12:	7c 91       	ld	r23, X
     b14:	cf 01       	movw	r24, r30
     b16:	0e 94 7b 14 	call	0x28f6	; 0x28f6 <multiply>
     b1a:	5e 01       	movw	r10, r28
     b1c:	b1 e7       	ldi	r27, 0x71	; 113
     b1e:	ab 0e       	add	r10, r27
     b20:	b1 1c       	adc	r11, r1
     b22:	8d b7       	in	r24, 0x3d	; 61
     b24:	9e b7       	in	r25, 0x3e	; 62
     b26:	0c 97       	sbiw	r24, 0x0c	; 12
     b28:	0f b6       	in	r0, 0x3f	; 63
     b2a:	f8 94       	cli
     b2c:	9e bf       	out	0x3e, r25	; 62
     b2e:	0f be       	out	0x3f, r0	; 63
     b30:	8d bf       	out	0x3d, r24	; 61
     b32:	8d b7       	in	r24, 0x3d	; 61
     b34:	9e b7       	in	r25, 0x3e	; 62
     b36:	01 96       	adiw	r24, 0x01	; 1
     b38:	2c e0       	ldi	r18, 0x0C	; 12
     b3a:	fe 01       	movw	r30, r28
     b3c:	71 96       	adiw	r30, 0x11	; 17
     b3e:	dc 01       	movw	r26, r24
     b40:	01 90       	ld	r0, Z+
     b42:	0d 92       	st	X+, r0
     b44:	2a 95       	dec	r18
     b46:	e1 f7       	brne	.-8      	; 0xb40 <calcAnchorPositions+0x606>
     b48:	c0 90 e5 01 	lds	r12, 0x01E5	; 0x8001e5 <Bp>
     b4c:	d0 90 e6 01 	lds	r13, 0x01E6	; 0x8001e6 <Bp+0x1>
     b50:	e0 90 e7 01 	lds	r14, 0x01E7	; 0x8001e7 <Bp+0x2>
     b54:	f0 90 e8 01 	lds	r15, 0x01E8	; 0x8001e8 <Bp+0x3>
     b58:	00 91 e9 01 	lds	r16, 0x01E9	; 0x8001e9 <Bp+0x4>
     b5c:	10 91 ea 01 	lds	r17, 0x01EA	; 0x8001ea <Bp+0x5>
     b60:	20 91 eb 01 	lds	r18, 0x01EB	; 0x8001eb <Bp+0x6>
     b64:	30 91 ec 01 	lds	r19, 0x01EC	; 0x8001ec <Bp+0x7>
     b68:	40 91 ed 01 	lds	r20, 0x01ED	; 0x8001ed <Bp+0x8>
     b6c:	50 91 ee 01 	lds	r21, 0x01EE	; 0x8001ee <Bp+0x9>
     b70:	60 91 ef 01 	lds	r22, 0x01EF	; 0x8001ef <Bp+0xa>
     b74:	70 91 f0 01 	lds	r23, 0x01F0	; 0x8001f0 <Bp+0xb>
     b78:	c5 01       	movw	r24, r10
     b7a:	0e 94 f8 14 	call	0x29f0	; 0x29f0 <add>
     b7e:	ad b7       	in	r26, 0x3d	; 61
     b80:	be b7       	in	r27, 0x3e	; 62
     b82:	1c 96       	adiw	r26, 0x0c	; 12
     b84:	0f b6       	in	r0, 0x3f	; 63
     b86:	f8 94       	cli
     b88:	de bf       	out	0x3e, r29	; 62
     b8a:	0f be       	out	0x3f, r0	; 63
     b8c:	cd bf       	out	0x3d, r28	; 61
     b8e:	ce 01       	movw	r24, r28
     b90:	8f 58       	subi	r24, 0x8F	; 143
     b92:	9f 4f       	sbci	r25, 0xFF	; 255
     b94:	2c e0       	ldi	r18, 0x0C	; 12
     b96:	fc 01       	movw	r30, r24
     b98:	ad e3       	ldi	r26, 0x3D	; 61
     b9a:	b2 e0       	ldi	r27, 0x02	; 2
     b9c:	01 90       	ld	r0, Z+
     b9e:	0d 92       	st	X+, r0
     ba0:	2a 95       	dec	r18
     ba2:	e1 f7       	brne	.-8      	; 0xb9c <calcAnchorPositions+0x662>
     ba4:	fe 01       	movw	r30, r28
     ba6:	35 96       	adiw	r30, 0x05	; 5
     ba8:	29 81       	ldd	r18, Y+1	; 0x01
     baa:	3a 81       	ldd	r19, Y+2	; 0x02
     bac:	4b 81       	ldd	r20, Y+3	; 0x03
     bae:	5c 81       	ldd	r21, Y+4	; 0x04
     bb0:	ce 01       	movw	r24, r28
     bb2:	83 5b       	subi	r24, 0xB3	; 179
     bb4:	9f 4f       	sbci	r25, 0xFF	; 255
     bb6:	49 01       	movw	r8, r18
     bb8:	5a 01       	movw	r10, r20
     bba:	dc 01       	movw	r26, r24
     bbc:	cc 90       	ld	r12, X
     bbe:	dc 01       	movw	r26, r24
     bc0:	11 96       	adiw	r26, 0x01	; 1
     bc2:	dc 90       	ld	r13, X
     bc4:	dc 01       	movw	r26, r24
     bc6:	12 96       	adiw	r26, 0x02	; 2
     bc8:	ec 90       	ld	r14, X
     bca:	dc 01       	movw	r26, r24
     bcc:	13 96       	adiw	r26, 0x03	; 3
     bce:	fc 90       	ld	r15, X
     bd0:	dc 01       	movw	r26, r24
     bd2:	14 96       	adiw	r26, 0x04	; 4
     bd4:	0c 91       	ld	r16, X
     bd6:	dc 01       	movw	r26, r24
     bd8:	15 96       	adiw	r26, 0x05	; 5
     bda:	1c 91       	ld	r17, X
     bdc:	dc 01       	movw	r26, r24
     bde:	16 96       	adiw	r26, 0x06	; 6
     be0:	2c 91       	ld	r18, X
     be2:	dc 01       	movw	r26, r24
     be4:	17 96       	adiw	r26, 0x07	; 7
     be6:	3c 91       	ld	r19, X
     be8:	dc 01       	movw	r26, r24
     bea:	18 96       	adiw	r26, 0x08	; 8
     bec:	4c 91       	ld	r20, X
     bee:	dc 01       	movw	r26, r24
     bf0:	19 96       	adiw	r26, 0x09	; 9
     bf2:	5c 91       	ld	r21, X
     bf4:	dc 01       	movw	r26, r24
     bf6:	1a 96       	adiw	r26, 0x0a	; 10
     bf8:	6c 91       	ld	r22, X
     bfa:	dc 01       	movw	r26, r24
     bfc:	1b 96       	adiw	r26, 0x0b	; 11
     bfe:	7c 91       	ld	r23, X
     c00:	cf 01       	movw	r24, r30
     c02:	0e 94 7b 14 	call	0x28f6	; 0x28f6 <multiply>
     c06:	5e 01       	movw	r10, r28
     c08:	b1 e7       	ldi	r27, 0x71	; 113
     c0a:	ab 0e       	add	r10, r27
     c0c:	b1 1c       	adc	r11, r1
     c0e:	8d b7       	in	r24, 0x3d	; 61
     c10:	9e b7       	in	r25, 0x3e	; 62
     c12:	0c 97       	sbiw	r24, 0x0c	; 12
     c14:	0f b6       	in	r0, 0x3f	; 63
     c16:	f8 94       	cli
     c18:	9e bf       	out	0x3e, r25	; 62
     c1a:	0f be       	out	0x3f, r0	; 63
     c1c:	8d bf       	out	0x3d, r24	; 61
     c1e:	8d b7       	in	r24, 0x3d	; 61
     c20:	9e b7       	in	r25, 0x3e	; 62
     c22:	01 96       	adiw	r24, 0x01	; 1
     c24:	2c e0       	ldi	r18, 0x0C	; 12
     c26:	fe 01       	movw	r30, r28
     c28:	35 96       	adiw	r30, 0x05	; 5
     c2a:	dc 01       	movw	r26, r24
     c2c:	01 90       	ld	r0, Z+
     c2e:	0d 92       	st	X+, r0
     c30:	2a 95       	dec	r18
     c32:	e1 f7       	brne	.-8      	; 0xc2c <calcAnchorPositions+0x6f2>
     c34:	c0 90 91 01 	lds	r12, 0x0191	; 0x800191 <Ap>
     c38:	d0 90 92 01 	lds	r13, 0x0192	; 0x800192 <Ap+0x1>
     c3c:	e0 90 93 01 	lds	r14, 0x0193	; 0x800193 <Ap+0x2>
     c40:	f0 90 94 01 	lds	r15, 0x0194	; 0x800194 <Ap+0x3>
     c44:	00 91 95 01 	lds	r16, 0x0195	; 0x800195 <Ap+0x4>
     c48:	10 91 96 01 	lds	r17, 0x0196	; 0x800196 <Ap+0x5>
     c4c:	20 91 97 01 	lds	r18, 0x0197	; 0x800197 <Ap+0x6>
     c50:	30 91 98 01 	lds	r19, 0x0198	; 0x800198 <Ap+0x7>
     c54:	40 91 99 01 	lds	r20, 0x0199	; 0x800199 <Ap+0x8>
     c58:	50 91 9a 01 	lds	r21, 0x019A	; 0x80019a <Ap+0x9>
     c5c:	60 91 9b 01 	lds	r22, 0x019B	; 0x80019b <Ap+0xa>
     c60:	70 91 9c 01 	lds	r23, 0x019C	; 0x80019c <Ap+0xb>
     c64:	c5 01       	movw	r24, r10
     c66:	0e 94 f8 14 	call	0x29f0	; 0x29f0 <add>
     c6a:	ad b7       	in	r26, 0x3d	; 61
     c6c:	be b7       	in	r27, 0x3e	; 62
     c6e:	1c 96       	adiw	r26, 0x0c	; 12
     c70:	0f b6       	in	r0, 0x3f	; 63
     c72:	f8 94       	cli
     c74:	de bf       	out	0x3e, r29	; 62
     c76:	0f be       	out	0x3f, r0	; 63
     c78:	cd bf       	out	0x3d, r28	; 61
     c7a:	ce 01       	movw	r24, r28
     c7c:	8f 58       	subi	r24, 0x8F	; 143
     c7e:	9f 4f       	sbci	r25, 0xFF	; 255
     c80:	2c e0       	ldi	r18, 0x0C	; 12
     c82:	fc 01       	movw	r30, r24
     c84:	a9 e4       	ldi	r26, 0x49	; 73
     c86:	b2 e0       	ldi	r27, 0x02	; 2
     c88:	01 90       	ld	r0, Z+
     c8a:	0d 92       	st	X+, r0
     c8c:	2a 95       	dec	r18
     c8e:	e1 f7       	brne	.-8      	; 0xc88 <calcAnchorPositions+0x74e>
     c90:	00 00       	nop
     c92:	c4 58       	subi	r28, 0x84	; 132
     c94:	df 4f       	sbci	r29, 0xFF	; 255
     c96:	0f b6       	in	r0, 0x3f	; 63
     c98:	f8 94       	cli
     c9a:	de bf       	out	0x3e, r29	; 62
     c9c:	0f be       	out	0x3f, r0	; 63
     c9e:	cd bf       	out	0x3d, r28	; 61
     ca0:	df 91       	pop	r29
     ca2:	cf 91       	pop	r28
     ca4:	1f 91       	pop	r17
     ca6:	0f 91       	pop	r16
     ca8:	ff 90       	pop	r15
     caa:	ef 90       	pop	r14
     cac:	df 90       	pop	r13
     cae:	cf 90       	pop	r12
     cb0:	bf 90       	pop	r11
     cb2:	af 90       	pop	r10
     cb4:	9f 90       	pop	r9
     cb6:	8f 90       	pop	r8
     cb8:	08 95       	ret

00000cba <calcMotorPositions>:
     cba:	8f 92       	push	r8
     cbc:	9f 92       	push	r9
     cbe:	af 92       	push	r10
     cc0:	bf 92       	push	r11
     cc2:	cf 92       	push	r12
     cc4:	df 92       	push	r13
     cc6:	ef 92       	push	r14
     cc8:	ff 92       	push	r15
     cca:	0f 93       	push	r16
     ccc:	1f 93       	push	r17
     cce:	cf 93       	push	r28
     cd0:	df 93       	push	r29
     cd2:	cd b7       	in	r28, 0x3d	; 61
     cd4:	de b7       	in	r29, 0x3e	; 62
     cd6:	cc 57       	subi	r28, 0x7C	; 124
     cd8:	d1 09       	sbc	r29, r1
     cda:	0f b6       	in	r0, 0x3f	; 63
     cdc:	f8 94       	cli
     cde:	de bf       	out	0x3e, r29	; 62
     ce0:	0f be       	out	0x3f, r0	; 63
     ce2:	cd bf       	out	0x3d, r28	; 61
     ce4:	80 91 55 01 	lds	r24, 0x0155	; 0x800155 <basePositionKoeff>
     ce8:	90 91 56 01 	lds	r25, 0x0156	; 0x800156 <basePositionKoeff+0x1>
     cec:	a0 91 57 01 	lds	r26, 0x0157	; 0x800157 <basePositionKoeff+0x2>
     cf0:	b0 91 58 01 	lds	r27, 0x0158	; 0x800158 <basePositionKoeff+0x3>
     cf4:	9c 01       	movw	r18, r24
     cf6:	ad 01       	movw	r20, r26
     cf8:	60 e0       	ldi	r22, 0x00	; 0
     cfa:	70 e0       	ldi	r23, 0x00	; 0
     cfc:	80 e8       	ldi	r24, 0x80	; 128
     cfe:	9f e3       	ldi	r25, 0x3F	; 63
     d00:	0e 94 41 1c 	call	0x3882	; 0x3882 <__subsf3>
     d04:	dc 01       	movw	r26, r24
     d06:	cb 01       	movw	r24, r22
     d08:	89 83       	std	Y+1, r24	; 0x01
     d0a:	9a 83       	std	Y+2, r25	; 0x02
     d0c:	ab 83       	std	Y+3, r26	; 0x03
     d0e:	bc 83       	std	Y+4, r27	; 0x04
     d10:	5e 01       	movw	r10, r28
     d12:	8d e4       	ldi	r24, 0x4D	; 77
     d14:	a8 0e       	add	r10, r24
     d16:	b1 1c       	adc	r11, r1
     d18:	ad b7       	in	r26, 0x3d	; 61
     d1a:	be b7       	in	r27, 0x3e	; 62
     d1c:	1c 97       	sbiw	r26, 0x0c	; 12
     d1e:	0f b6       	in	r0, 0x3f	; 63
     d20:	f8 94       	cli
     d22:	be bf       	out	0x3e, r27	; 62
     d24:	0f be       	out	0x3f, r0	; 63
     d26:	ad bf       	out	0x3d, r26	; 61
     d28:	8d b7       	in	r24, 0x3d	; 61
     d2a:	9e b7       	in	r25, 0x3e	; 62
     d2c:	01 96       	adiw	r24, 0x01	; 1
     d2e:	2c e0       	ldi	r18, 0x0C	; 12
     d30:	e1 ef       	ldi	r30, 0xF1	; 241
     d32:	f1 e0       	ldi	r31, 0x01	; 1
     d34:	dc 01       	movw	r26, r24
     d36:	01 90       	ld	r0, Z+
     d38:	0d 92       	st	X+, r0
     d3a:	2a 95       	dec	r18
     d3c:	e1 f7       	brne	.-8      	; 0xd36 <calcMotorPositions+0x7c>
     d3e:	c0 90 79 01 	lds	r12, 0x0179	; 0x800179 <Bb>
     d42:	d0 90 7a 01 	lds	r13, 0x017A	; 0x80017a <Bb+0x1>
     d46:	e0 90 7b 01 	lds	r14, 0x017B	; 0x80017b <Bb+0x2>
     d4a:	f0 90 7c 01 	lds	r15, 0x017C	; 0x80017c <Bb+0x3>
     d4e:	00 91 7d 01 	lds	r16, 0x017D	; 0x80017d <Bb+0x4>
     d52:	10 91 7e 01 	lds	r17, 0x017E	; 0x80017e <Bb+0x5>
     d56:	20 91 7f 01 	lds	r18, 0x017F	; 0x80017f <Bb+0x6>
     d5a:	30 91 80 01 	lds	r19, 0x0180	; 0x800180 <Bb+0x7>
     d5e:	40 91 81 01 	lds	r20, 0x0181	; 0x800181 <Bb+0x8>
     d62:	50 91 82 01 	lds	r21, 0x0182	; 0x800182 <Bb+0x9>
     d66:	60 91 83 01 	lds	r22, 0x0183	; 0x800183 <Bb+0xa>
     d6a:	70 91 84 01 	lds	r23, 0x0184	; 0x800184 <Bb+0xb>
     d6e:	c5 01       	movw	r24, r10
     d70:	0e 94 66 15 	call	0x2acc	; 0x2acc <subtract>
     d74:	8d b7       	in	r24, 0x3d	; 61
     d76:	9e b7       	in	r25, 0x3e	; 62
     d78:	0c 96       	adiw	r24, 0x0c	; 12
     d7a:	0f b6       	in	r0, 0x3f	; 63
     d7c:	f8 94       	cli
     d7e:	de bf       	out	0x3e, r29	; 62
     d80:	0f be       	out	0x3f, r0	; 63
     d82:	cd bf       	out	0x3d, r28	; 61
     d84:	5e 01       	movw	r10, r28
     d86:	99 e5       	ldi	r25, 0x59	; 89
     d88:	a9 0e       	add	r10, r25
     d8a:	b1 1c       	adc	r11, r1
     d8c:	ad b7       	in	r26, 0x3d	; 61
     d8e:	be b7       	in	r27, 0x3e	; 62
     d90:	1c 97       	sbiw	r26, 0x0c	; 12
     d92:	0f b6       	in	r0, 0x3f	; 63
     d94:	f8 94       	cli
     d96:	be bf       	out	0x3e, r27	; 62
     d98:	0f be       	out	0x3f, r0	; 63
     d9a:	ad bf       	out	0x3d, r26	; 61
     d9c:	8d b7       	in	r24, 0x3d	; 61
     d9e:	9e b7       	in	r25, 0x3e	; 62
     da0:	01 96       	adiw	r24, 0x01	; 1
     da2:	2c e0       	ldi	r18, 0x0C	; 12
     da4:	e9 e7       	ldi	r30, 0x79	; 121
     da6:	f1 e0       	ldi	r31, 0x01	; 1
     da8:	dc 01       	movw	r26, r24
     daa:	01 90       	ld	r0, Z+
     dac:	0d 92       	st	X+, r0
     dae:	2a 95       	dec	r18
     db0:	e1 f7       	brne	.-8      	; 0xdaa <calcMotorPositions+0xf0>
     db2:	c0 90 85 01 	lds	r12, 0x0185	; 0x800185 <Cb>
     db6:	d0 90 86 01 	lds	r13, 0x0186	; 0x800186 <Cb+0x1>
     dba:	e0 90 87 01 	lds	r14, 0x0187	; 0x800187 <Cb+0x2>
     dbe:	f0 90 88 01 	lds	r15, 0x0188	; 0x800188 <Cb+0x3>
     dc2:	00 91 89 01 	lds	r16, 0x0189	; 0x800189 <Cb+0x4>
     dc6:	10 91 8a 01 	lds	r17, 0x018A	; 0x80018a <Cb+0x5>
     dca:	20 91 8b 01 	lds	r18, 0x018B	; 0x80018b <Cb+0x6>
     dce:	30 91 8c 01 	lds	r19, 0x018C	; 0x80018c <Cb+0x7>
     dd2:	40 91 8d 01 	lds	r20, 0x018D	; 0x80018d <Cb+0x8>
     dd6:	50 91 8e 01 	lds	r21, 0x018E	; 0x80018e <Cb+0x9>
     dda:	60 91 8f 01 	lds	r22, 0x018F	; 0x80018f <Cb+0xa>
     dde:	70 91 90 01 	lds	r23, 0x0190	; 0x800190 <Cb+0xb>
     de2:	c5 01       	movw	r24, r10
     de4:	0e 94 66 15 	call	0x2acc	; 0x2acc <subtract>
     de8:	8d b7       	in	r24, 0x3d	; 61
     dea:	9e b7       	in	r25, 0x3e	; 62
     dec:	0c 96       	adiw	r24, 0x0c	; 12
     dee:	0f b6       	in	r0, 0x3f	; 63
     df0:	f8 94       	cli
     df2:	de bf       	out	0x3e, r29	; 62
     df4:	0f be       	out	0x3f, r0	; 63
     df6:	cd bf       	out	0x3d, r28	; 61
     df8:	5e 01       	movw	r10, r28
     dfa:	95 e6       	ldi	r25, 0x65	; 101
     dfc:	a9 0e       	add	r10, r25
     dfe:	b1 1c       	adc	r11, r1
     e00:	ad b7       	in	r26, 0x3d	; 61
     e02:	be b7       	in	r27, 0x3e	; 62
     e04:	1c 97       	sbiw	r26, 0x0c	; 12
     e06:	0f b6       	in	r0, 0x3f	; 63
     e08:	f8 94       	cli
     e0a:	be bf       	out	0x3e, r27	; 62
     e0c:	0f be       	out	0x3f, r0	; 63
     e0e:	ad bf       	out	0x3d, r26	; 61
     e10:	8d b7       	in	r24, 0x3d	; 61
     e12:	9e b7       	in	r25, 0x3e	; 62
     e14:	01 96       	adiw	r24, 0x01	; 1
     e16:	2c e0       	ldi	r18, 0x0C	; 12
     e18:	e5 e8       	ldi	r30, 0x85	; 133
     e1a:	f1 e0       	ldi	r31, 0x01	; 1
     e1c:	dc 01       	movw	r26, r24
     e1e:	01 90       	ld	r0, Z+
     e20:	0d 92       	st	X+, r0
     e22:	2a 95       	dec	r18
     e24:	e1 f7       	brne	.-8      	; 0xe1e <calcMotorPositions+0x164>
     e26:	c0 90 f1 01 	lds	r12, 0x01F1	; 0x8001f1 <Ab>
     e2a:	d0 90 f2 01 	lds	r13, 0x01F2	; 0x8001f2 <Ab+0x1>
     e2e:	e0 90 f3 01 	lds	r14, 0x01F3	; 0x8001f3 <Ab+0x2>
     e32:	f0 90 f4 01 	lds	r15, 0x01F4	; 0x8001f4 <Ab+0x3>
     e36:	00 91 f5 01 	lds	r16, 0x01F5	; 0x8001f5 <Ab+0x4>
     e3a:	10 91 f6 01 	lds	r17, 0x01F6	; 0x8001f6 <Ab+0x5>
     e3e:	20 91 f7 01 	lds	r18, 0x01F7	; 0x8001f7 <Ab+0x6>
     e42:	30 91 f8 01 	lds	r19, 0x01F8	; 0x8001f8 <Ab+0x7>
     e46:	40 91 f9 01 	lds	r20, 0x01F9	; 0x8001f9 <Ab+0x8>
     e4a:	50 91 fa 01 	lds	r21, 0x01FA	; 0x8001fa <Ab+0x9>
     e4e:	60 91 fb 01 	lds	r22, 0x01FB	; 0x8001fb <Ab+0xa>
     e52:	70 91 fc 01 	lds	r23, 0x01FC	; 0x8001fc <Ab+0xb>
     e56:	c5 01       	movw	r24, r10
     e58:	0e 94 66 15 	call	0x2acc	; 0x2acc <subtract>
     e5c:	8d b7       	in	r24, 0x3d	; 61
     e5e:	9e b7       	in	r25, 0x3e	; 62
     e60:	0c 96       	adiw	r24, 0x0c	; 12
     e62:	0f b6       	in	r0, 0x3f	; 63
     e64:	f8 94       	cli
     e66:	de bf       	out	0x3e, r29	; 62
     e68:	0f be       	out	0x3f, r0	; 63
     e6a:	cd bf       	out	0x3d, r28	; 61
     e6c:	fe 01       	movw	r30, r28
     e6e:	ef 5b       	subi	r30, 0xBF	; 191
     e70:	ff 4f       	sbci	r31, 0xFF	; 255
     e72:	29 81       	ldd	r18, Y+1	; 0x01
     e74:	3a 81       	ldd	r19, Y+2	; 0x02
     e76:	4b 81       	ldd	r20, Y+3	; 0x03
     e78:	5c 81       	ldd	r21, Y+4	; 0x04
     e7a:	ce 01       	movw	r24, r28
     e7c:	83 5b       	subi	r24, 0xB3	; 179
     e7e:	9f 4f       	sbci	r25, 0xFF	; 255
     e80:	49 01       	movw	r8, r18
     e82:	5a 01       	movw	r10, r20
     e84:	dc 01       	movw	r26, r24
     e86:	cc 90       	ld	r12, X
     e88:	dc 01       	movw	r26, r24
     e8a:	11 96       	adiw	r26, 0x01	; 1
     e8c:	dc 90       	ld	r13, X
     e8e:	dc 01       	movw	r26, r24
     e90:	12 96       	adiw	r26, 0x02	; 2
     e92:	ec 90       	ld	r14, X
     e94:	dc 01       	movw	r26, r24
     e96:	13 96       	adiw	r26, 0x03	; 3
     e98:	fc 90       	ld	r15, X
     e9a:	dc 01       	movw	r26, r24
     e9c:	14 96       	adiw	r26, 0x04	; 4
     e9e:	0c 91       	ld	r16, X
     ea0:	dc 01       	movw	r26, r24
     ea2:	15 96       	adiw	r26, 0x05	; 5
     ea4:	1c 91       	ld	r17, X
     ea6:	dc 01       	movw	r26, r24
     ea8:	16 96       	adiw	r26, 0x06	; 6
     eaa:	2c 91       	ld	r18, X
     eac:	dc 01       	movw	r26, r24
     eae:	17 96       	adiw	r26, 0x07	; 7
     eb0:	3c 91       	ld	r19, X
     eb2:	dc 01       	movw	r26, r24
     eb4:	18 96       	adiw	r26, 0x08	; 8
     eb6:	4c 91       	ld	r20, X
     eb8:	dc 01       	movw	r26, r24
     eba:	19 96       	adiw	r26, 0x09	; 9
     ebc:	5c 91       	ld	r21, X
     ebe:	dc 01       	movw	r26, r24
     ec0:	1a 96       	adiw	r26, 0x0a	; 10
     ec2:	6c 91       	ld	r22, X
     ec4:	dc 01       	movw	r26, r24
     ec6:	1b 96       	adiw	r26, 0x0b	; 11
     ec8:	7c 91       	ld	r23, X
     eca:	cf 01       	movw	r24, r30
     ecc:	0e 94 7b 14 	call	0x28f6	; 0x28f6 <multiply>
     ed0:	5e 01       	movw	r10, r28
     ed2:	b1 e7       	ldi	r27, 0x71	; 113
     ed4:	ab 0e       	add	r10, r27
     ed6:	b1 1c       	adc	r11, r1
     ed8:	8d b7       	in	r24, 0x3d	; 61
     eda:	9e b7       	in	r25, 0x3e	; 62
     edc:	0c 97       	sbiw	r24, 0x0c	; 12
     ede:	0f b6       	in	r0, 0x3f	; 63
     ee0:	f8 94       	cli
     ee2:	9e bf       	out	0x3e, r25	; 62
     ee4:	0f be       	out	0x3f, r0	; 63
     ee6:	8d bf       	out	0x3d, r24	; 61
     ee8:	8d b7       	in	r24, 0x3d	; 61
     eea:	9e b7       	in	r25, 0x3e	; 62
     eec:	01 96       	adiw	r24, 0x01	; 1
     eee:	2c e0       	ldi	r18, 0x0C	; 12
     ef0:	fe 01       	movw	r30, r28
     ef2:	ef 5b       	subi	r30, 0xBF	; 191
     ef4:	ff 4f       	sbci	r31, 0xFF	; 255
     ef6:	dc 01       	movw	r26, r24
     ef8:	01 90       	ld	r0, Z+
     efa:	0d 92       	st	X+, r0
     efc:	2a 95       	dec	r18
     efe:	e1 f7       	brne	.-8      	; 0xef8 <calcMotorPositions+0x23e>
     f00:	c0 90 f1 01 	lds	r12, 0x01F1	; 0x8001f1 <Ab>
     f04:	d0 90 f2 01 	lds	r13, 0x01F2	; 0x8001f2 <Ab+0x1>
     f08:	e0 90 f3 01 	lds	r14, 0x01F3	; 0x8001f3 <Ab+0x2>
     f0c:	f0 90 f4 01 	lds	r15, 0x01F4	; 0x8001f4 <Ab+0x3>
     f10:	00 91 f5 01 	lds	r16, 0x01F5	; 0x8001f5 <Ab+0x4>
     f14:	10 91 f6 01 	lds	r17, 0x01F6	; 0x8001f6 <Ab+0x5>
     f18:	20 91 f7 01 	lds	r18, 0x01F7	; 0x8001f7 <Ab+0x6>
     f1c:	30 91 f8 01 	lds	r19, 0x01F8	; 0x8001f8 <Ab+0x7>
     f20:	40 91 f9 01 	lds	r20, 0x01F9	; 0x8001f9 <Ab+0x8>
     f24:	50 91 fa 01 	lds	r21, 0x01FA	; 0x8001fa <Ab+0x9>
     f28:	60 91 fb 01 	lds	r22, 0x01FB	; 0x8001fb <Ab+0xa>
     f2c:	70 91 fc 01 	lds	r23, 0x01FC	; 0x8001fc <Ab+0xb>
     f30:	c5 01       	movw	r24, r10
     f32:	0e 94 f8 14 	call	0x29f0	; 0x29f0 <add>
     f36:	ad b7       	in	r26, 0x3d	; 61
     f38:	be b7       	in	r27, 0x3e	; 62
     f3a:	1c 96       	adiw	r26, 0x0c	; 12
     f3c:	0f b6       	in	r0, 0x3f	; 63
     f3e:	f8 94       	cli
     f40:	de bf       	out	0x3e, r29	; 62
     f42:	0f be       	out	0x3f, r0	; 63
     f44:	cd bf       	out	0x3d, r28	; 61
     f46:	ce 01       	movw	r24, r28
     f48:	8f 58       	subi	r24, 0x8F	; 143
     f4a:	9f 4f       	sbci	r25, 0xFF	; 255
     f4c:	2c e0       	ldi	r18, 0x0C	; 12
     f4e:	fc 01       	movw	r30, r24
     f50:	ad e9       	ldi	r26, 0x9D	; 157
     f52:	b1 e0       	ldi	r27, 0x01	; 1
     f54:	01 90       	ld	r0, Z+
     f56:	0d 92       	st	X+, r0
     f58:	2a 95       	dec	r18
     f5a:	e1 f7       	brne	.-8      	; 0xf54 <calcMotorPositions+0x29a>
     f5c:	20 91 55 01 	lds	r18, 0x0155	; 0x800155 <basePositionKoeff>
     f60:	30 91 56 01 	lds	r19, 0x0156	; 0x800156 <basePositionKoeff+0x1>
     f64:	40 91 57 01 	lds	r20, 0x0157	; 0x800157 <basePositionKoeff+0x2>
     f68:	50 91 58 01 	lds	r21, 0x0158	; 0x800158 <basePositionKoeff+0x3>
     f6c:	fe 01       	movw	r30, r28
     f6e:	f5 96       	adiw	r30, 0x35	; 53
     f70:	ce 01       	movw	r24, r28
     f72:	83 5b       	subi	r24, 0xB3	; 179
     f74:	9f 4f       	sbci	r25, 0xFF	; 255
     f76:	49 01       	movw	r8, r18
     f78:	5a 01       	movw	r10, r20
     f7a:	dc 01       	movw	r26, r24
     f7c:	cc 90       	ld	r12, X
     f7e:	dc 01       	movw	r26, r24
     f80:	11 96       	adiw	r26, 0x01	; 1
     f82:	dc 90       	ld	r13, X
     f84:	dc 01       	movw	r26, r24
     f86:	12 96       	adiw	r26, 0x02	; 2
     f88:	ec 90       	ld	r14, X
     f8a:	dc 01       	movw	r26, r24
     f8c:	13 96       	adiw	r26, 0x03	; 3
     f8e:	fc 90       	ld	r15, X
     f90:	dc 01       	movw	r26, r24
     f92:	14 96       	adiw	r26, 0x04	; 4
     f94:	0c 91       	ld	r16, X
     f96:	dc 01       	movw	r26, r24
     f98:	15 96       	adiw	r26, 0x05	; 5
     f9a:	1c 91       	ld	r17, X
     f9c:	dc 01       	movw	r26, r24
     f9e:	16 96       	adiw	r26, 0x06	; 6
     fa0:	2c 91       	ld	r18, X
     fa2:	dc 01       	movw	r26, r24
     fa4:	17 96       	adiw	r26, 0x07	; 7
     fa6:	3c 91       	ld	r19, X
     fa8:	dc 01       	movw	r26, r24
     faa:	18 96       	adiw	r26, 0x08	; 8
     fac:	4c 91       	ld	r20, X
     fae:	dc 01       	movw	r26, r24
     fb0:	19 96       	adiw	r26, 0x09	; 9
     fb2:	5c 91       	ld	r21, X
     fb4:	dc 01       	movw	r26, r24
     fb6:	1a 96       	adiw	r26, 0x0a	; 10
     fb8:	6c 91       	ld	r22, X
     fba:	dc 01       	movw	r26, r24
     fbc:	1b 96       	adiw	r26, 0x0b	; 11
     fbe:	7c 91       	ld	r23, X
     fc0:	cf 01       	movw	r24, r30
     fc2:	0e 94 7b 14 	call	0x28f6	; 0x28f6 <multiply>
     fc6:	5e 01       	movw	r10, r28
     fc8:	b1 e7       	ldi	r27, 0x71	; 113
     fca:	ab 0e       	add	r10, r27
     fcc:	b1 1c       	adc	r11, r1
     fce:	8d b7       	in	r24, 0x3d	; 61
     fd0:	9e b7       	in	r25, 0x3e	; 62
     fd2:	0c 97       	sbiw	r24, 0x0c	; 12
     fd4:	0f b6       	in	r0, 0x3f	; 63
     fd6:	f8 94       	cli
     fd8:	9e bf       	out	0x3e, r25	; 62
     fda:	0f be       	out	0x3f, r0	; 63
     fdc:	8d bf       	out	0x3d, r24	; 61
     fde:	8d b7       	in	r24, 0x3d	; 61
     fe0:	9e b7       	in	r25, 0x3e	; 62
     fe2:	01 96       	adiw	r24, 0x01	; 1
     fe4:	2c e0       	ldi	r18, 0x0C	; 12
     fe6:	fe 01       	movw	r30, r28
     fe8:	f5 96       	adiw	r30, 0x35	; 53
     fea:	dc 01       	movw	r26, r24
     fec:	01 90       	ld	r0, Z+
     fee:	0d 92       	st	X+, r0
     ff0:	2a 95       	dec	r18
     ff2:	e1 f7       	brne	.-8      	; 0xfec <calcMotorPositions+0x332>
     ff4:	c0 90 f1 01 	lds	r12, 0x01F1	; 0x8001f1 <Ab>
     ff8:	d0 90 f2 01 	lds	r13, 0x01F2	; 0x8001f2 <Ab+0x1>
     ffc:	e0 90 f3 01 	lds	r14, 0x01F3	; 0x8001f3 <Ab+0x2>
    1000:	f0 90 f4 01 	lds	r15, 0x01F4	; 0x8001f4 <Ab+0x3>
    1004:	00 91 f5 01 	lds	r16, 0x01F5	; 0x8001f5 <Ab+0x4>
    1008:	10 91 f6 01 	lds	r17, 0x01F6	; 0x8001f6 <Ab+0x5>
    100c:	20 91 f7 01 	lds	r18, 0x01F7	; 0x8001f7 <Ab+0x6>
    1010:	30 91 f8 01 	lds	r19, 0x01F8	; 0x8001f8 <Ab+0x7>
    1014:	40 91 f9 01 	lds	r20, 0x01F9	; 0x8001f9 <Ab+0x8>
    1018:	50 91 fa 01 	lds	r21, 0x01FA	; 0x8001fa <Ab+0x9>
    101c:	60 91 fb 01 	lds	r22, 0x01FB	; 0x8001fb <Ab+0xa>
    1020:	70 91 fc 01 	lds	r23, 0x01FC	; 0x8001fc <Ab+0xb>
    1024:	c5 01       	movw	r24, r10
    1026:	0e 94 f8 14 	call	0x29f0	; 0x29f0 <add>
    102a:	ad b7       	in	r26, 0x3d	; 61
    102c:	be b7       	in	r27, 0x3e	; 62
    102e:	1c 96       	adiw	r26, 0x0c	; 12
    1030:	0f b6       	in	r0, 0x3f	; 63
    1032:	f8 94       	cli
    1034:	de bf       	out	0x3e, r29	; 62
    1036:	0f be       	out	0x3f, r0	; 63
    1038:	cd bf       	out	0x3d, r28	; 61
    103a:	ce 01       	movw	r24, r28
    103c:	8f 58       	subi	r24, 0x8F	; 143
    103e:	9f 4f       	sbci	r25, 0xFF	; 255
    1040:	2c e0       	ldi	r18, 0x0C	; 12
    1042:	fc 01       	movw	r30, r24
    1044:	a9 ea       	ldi	r26, 0xA9	; 169
    1046:	b1 e0       	ldi	r27, 0x01	; 1
    1048:	01 90       	ld	r0, Z+
    104a:	0d 92       	st	X+, r0
    104c:	2a 95       	dec	r18
    104e:	e1 f7       	brne	.-8      	; 0x1048 <calcMotorPositions+0x38e>
    1050:	fe 01       	movw	r30, r28
    1052:	b9 96       	adiw	r30, 0x29	; 41
    1054:	29 81       	ldd	r18, Y+1	; 0x01
    1056:	3a 81       	ldd	r19, Y+2	; 0x02
    1058:	4b 81       	ldd	r20, Y+3	; 0x03
    105a:	5c 81       	ldd	r21, Y+4	; 0x04
    105c:	ce 01       	movw	r24, r28
    105e:	8b 59       	subi	r24, 0x9B	; 155
    1060:	9f 4f       	sbci	r25, 0xFF	; 255
    1062:	49 01       	movw	r8, r18
    1064:	5a 01       	movw	r10, r20
    1066:	dc 01       	movw	r26, r24
    1068:	cc 90       	ld	r12, X
    106a:	dc 01       	movw	r26, r24
    106c:	11 96       	adiw	r26, 0x01	; 1
    106e:	dc 90       	ld	r13, X
    1070:	dc 01       	movw	r26, r24
    1072:	12 96       	adiw	r26, 0x02	; 2
    1074:	ec 90       	ld	r14, X
    1076:	dc 01       	movw	r26, r24
    1078:	13 96       	adiw	r26, 0x03	; 3
    107a:	fc 90       	ld	r15, X
    107c:	dc 01       	movw	r26, r24
    107e:	14 96       	adiw	r26, 0x04	; 4
    1080:	0c 91       	ld	r16, X
    1082:	dc 01       	movw	r26, r24
    1084:	15 96       	adiw	r26, 0x05	; 5
    1086:	1c 91       	ld	r17, X
    1088:	dc 01       	movw	r26, r24
    108a:	16 96       	adiw	r26, 0x06	; 6
    108c:	2c 91       	ld	r18, X
    108e:	dc 01       	movw	r26, r24
    1090:	17 96       	adiw	r26, 0x07	; 7
    1092:	3c 91       	ld	r19, X
    1094:	dc 01       	movw	r26, r24
    1096:	18 96       	adiw	r26, 0x08	; 8
    1098:	4c 91       	ld	r20, X
    109a:	dc 01       	movw	r26, r24
    109c:	19 96       	adiw	r26, 0x09	; 9
    109e:	5c 91       	ld	r21, X
    10a0:	dc 01       	movw	r26, r24
    10a2:	1a 96       	adiw	r26, 0x0a	; 10
    10a4:	6c 91       	ld	r22, X
    10a6:	dc 01       	movw	r26, r24
    10a8:	1b 96       	adiw	r26, 0x0b	; 11
    10aa:	7c 91       	ld	r23, X
    10ac:	cf 01       	movw	r24, r30
    10ae:	0e 94 7b 14 	call	0x28f6	; 0x28f6 <multiply>
    10b2:	5e 01       	movw	r10, r28
    10b4:	b1 e7       	ldi	r27, 0x71	; 113
    10b6:	ab 0e       	add	r10, r27
    10b8:	b1 1c       	adc	r11, r1
    10ba:	8d b7       	in	r24, 0x3d	; 61
    10bc:	9e b7       	in	r25, 0x3e	; 62
    10be:	0c 97       	sbiw	r24, 0x0c	; 12
    10c0:	0f b6       	in	r0, 0x3f	; 63
    10c2:	f8 94       	cli
    10c4:	9e bf       	out	0x3e, r25	; 62
    10c6:	0f be       	out	0x3f, r0	; 63
    10c8:	8d bf       	out	0x3d, r24	; 61
    10ca:	8d b7       	in	r24, 0x3d	; 61
    10cc:	9e b7       	in	r25, 0x3e	; 62
    10ce:	01 96       	adiw	r24, 0x01	; 1
    10d0:	2c e0       	ldi	r18, 0x0C	; 12
    10d2:	fe 01       	movw	r30, r28
    10d4:	b9 96       	adiw	r30, 0x29	; 41
    10d6:	dc 01       	movw	r26, r24
    10d8:	01 90       	ld	r0, Z+
    10da:	0d 92       	st	X+, r0
    10dc:	2a 95       	dec	r18
    10de:	e1 f7       	brne	.-8      	; 0x10d8 <calcMotorPositions+0x41e>
    10e0:	c0 90 85 01 	lds	r12, 0x0185	; 0x800185 <Cb>
    10e4:	d0 90 86 01 	lds	r13, 0x0186	; 0x800186 <Cb+0x1>
    10e8:	e0 90 87 01 	lds	r14, 0x0187	; 0x800187 <Cb+0x2>
    10ec:	f0 90 88 01 	lds	r15, 0x0188	; 0x800188 <Cb+0x3>
    10f0:	00 91 89 01 	lds	r16, 0x0189	; 0x800189 <Cb+0x4>
    10f4:	10 91 8a 01 	lds	r17, 0x018A	; 0x80018a <Cb+0x5>
    10f8:	20 91 8b 01 	lds	r18, 0x018B	; 0x80018b <Cb+0x6>
    10fc:	30 91 8c 01 	lds	r19, 0x018C	; 0x80018c <Cb+0x7>
    1100:	40 91 8d 01 	lds	r20, 0x018D	; 0x80018d <Cb+0x8>
    1104:	50 91 8e 01 	lds	r21, 0x018E	; 0x80018e <Cb+0x9>
    1108:	60 91 8f 01 	lds	r22, 0x018F	; 0x80018f <Cb+0xa>
    110c:	70 91 90 01 	lds	r23, 0x0190	; 0x800190 <Cb+0xb>
    1110:	c5 01       	movw	r24, r10
    1112:	0e 94 f8 14 	call	0x29f0	; 0x29f0 <add>
    1116:	ad b7       	in	r26, 0x3d	; 61
    1118:	be b7       	in	r27, 0x3e	; 62
    111a:	1c 96       	adiw	r26, 0x0c	; 12
    111c:	0f b6       	in	r0, 0x3f	; 63
    111e:	f8 94       	cli
    1120:	de bf       	out	0x3e, r29	; 62
    1122:	0f be       	out	0x3f, r0	; 63
    1124:	cd bf       	out	0x3d, r28	; 61
    1126:	ce 01       	movw	r24, r28
    1128:	8f 58       	subi	r24, 0x8F	; 143
    112a:	9f 4f       	sbci	r25, 0xFF	; 255
    112c:	2c e0       	ldi	r18, 0x0C	; 12
    112e:	fc 01       	movw	r30, r24
    1130:	a5 eb       	ldi	r26, 0xB5	; 181
    1132:	b1 e0       	ldi	r27, 0x01	; 1
    1134:	01 90       	ld	r0, Z+
    1136:	0d 92       	st	X+, r0
    1138:	2a 95       	dec	r18
    113a:	e1 f7       	brne	.-8      	; 0x1134 <__stack+0x35>
    113c:	20 91 55 01 	lds	r18, 0x0155	; 0x800155 <basePositionKoeff>
    1140:	30 91 56 01 	lds	r19, 0x0156	; 0x800156 <basePositionKoeff+0x1>
    1144:	40 91 57 01 	lds	r20, 0x0157	; 0x800157 <basePositionKoeff+0x2>
    1148:	50 91 58 01 	lds	r21, 0x0158	; 0x800158 <basePositionKoeff+0x3>
    114c:	fe 01       	movw	r30, r28
    114e:	7d 96       	adiw	r30, 0x1d	; 29
    1150:	ce 01       	movw	r24, r28
    1152:	8b 59       	subi	r24, 0x9B	; 155
    1154:	9f 4f       	sbci	r25, 0xFF	; 255
    1156:	49 01       	movw	r8, r18
    1158:	5a 01       	movw	r10, r20
    115a:	dc 01       	movw	r26, r24
    115c:	cc 90       	ld	r12, X
    115e:	dc 01       	movw	r26, r24
    1160:	11 96       	adiw	r26, 0x01	; 1
    1162:	dc 90       	ld	r13, X
    1164:	dc 01       	movw	r26, r24
    1166:	12 96       	adiw	r26, 0x02	; 2
    1168:	ec 90       	ld	r14, X
    116a:	dc 01       	movw	r26, r24
    116c:	13 96       	adiw	r26, 0x03	; 3
    116e:	fc 90       	ld	r15, X
    1170:	dc 01       	movw	r26, r24
    1172:	14 96       	adiw	r26, 0x04	; 4
    1174:	0c 91       	ld	r16, X
    1176:	dc 01       	movw	r26, r24
    1178:	15 96       	adiw	r26, 0x05	; 5
    117a:	1c 91       	ld	r17, X
    117c:	dc 01       	movw	r26, r24
    117e:	16 96       	adiw	r26, 0x06	; 6
    1180:	2c 91       	ld	r18, X
    1182:	dc 01       	movw	r26, r24
    1184:	17 96       	adiw	r26, 0x07	; 7
    1186:	3c 91       	ld	r19, X
    1188:	dc 01       	movw	r26, r24
    118a:	18 96       	adiw	r26, 0x08	; 8
    118c:	4c 91       	ld	r20, X
    118e:	dc 01       	movw	r26, r24
    1190:	19 96       	adiw	r26, 0x09	; 9
    1192:	5c 91       	ld	r21, X
    1194:	dc 01       	movw	r26, r24
    1196:	1a 96       	adiw	r26, 0x0a	; 10
    1198:	6c 91       	ld	r22, X
    119a:	dc 01       	movw	r26, r24
    119c:	1b 96       	adiw	r26, 0x0b	; 11
    119e:	7c 91       	ld	r23, X
    11a0:	cf 01       	movw	r24, r30
    11a2:	0e 94 7b 14 	call	0x28f6	; 0x28f6 <multiply>
    11a6:	5e 01       	movw	r10, r28
    11a8:	b1 e7       	ldi	r27, 0x71	; 113
    11aa:	ab 0e       	add	r10, r27
    11ac:	b1 1c       	adc	r11, r1
    11ae:	8d b7       	in	r24, 0x3d	; 61
    11b0:	9e b7       	in	r25, 0x3e	; 62
    11b2:	0c 97       	sbiw	r24, 0x0c	; 12
    11b4:	0f b6       	in	r0, 0x3f	; 63
    11b6:	f8 94       	cli
    11b8:	9e bf       	out	0x3e, r25	; 62
    11ba:	0f be       	out	0x3f, r0	; 63
    11bc:	8d bf       	out	0x3d, r24	; 61
    11be:	8d b7       	in	r24, 0x3d	; 61
    11c0:	9e b7       	in	r25, 0x3e	; 62
    11c2:	01 96       	adiw	r24, 0x01	; 1
    11c4:	2c e0       	ldi	r18, 0x0C	; 12
    11c6:	fe 01       	movw	r30, r28
    11c8:	7d 96       	adiw	r30, 0x1d	; 29
    11ca:	dc 01       	movw	r26, r24
    11cc:	01 90       	ld	r0, Z+
    11ce:	0d 92       	st	X+, r0
    11d0:	2a 95       	dec	r18
    11d2:	e1 f7       	brne	.-8      	; 0x11cc <__stack+0xcd>
    11d4:	c0 90 85 01 	lds	r12, 0x0185	; 0x800185 <Cb>
    11d8:	d0 90 86 01 	lds	r13, 0x0186	; 0x800186 <Cb+0x1>
    11dc:	e0 90 87 01 	lds	r14, 0x0187	; 0x800187 <Cb+0x2>
    11e0:	f0 90 88 01 	lds	r15, 0x0188	; 0x800188 <Cb+0x3>
    11e4:	00 91 89 01 	lds	r16, 0x0189	; 0x800189 <Cb+0x4>
    11e8:	10 91 8a 01 	lds	r17, 0x018A	; 0x80018a <Cb+0x5>
    11ec:	20 91 8b 01 	lds	r18, 0x018B	; 0x80018b <Cb+0x6>
    11f0:	30 91 8c 01 	lds	r19, 0x018C	; 0x80018c <Cb+0x7>
    11f4:	40 91 8d 01 	lds	r20, 0x018D	; 0x80018d <Cb+0x8>
    11f8:	50 91 8e 01 	lds	r21, 0x018E	; 0x80018e <Cb+0x9>
    11fc:	60 91 8f 01 	lds	r22, 0x018F	; 0x80018f <Cb+0xa>
    1200:	70 91 90 01 	lds	r23, 0x0190	; 0x800190 <Cb+0xb>
    1204:	c5 01       	movw	r24, r10
    1206:	0e 94 f8 14 	call	0x29f0	; 0x29f0 <add>
    120a:	ad b7       	in	r26, 0x3d	; 61
    120c:	be b7       	in	r27, 0x3e	; 62
    120e:	1c 96       	adiw	r26, 0x0c	; 12
    1210:	0f b6       	in	r0, 0x3f	; 63
    1212:	f8 94       	cli
    1214:	de bf       	out	0x3e, r29	; 62
    1216:	0f be       	out	0x3f, r0	; 63
    1218:	cd bf       	out	0x3d, r28	; 61
    121a:	ce 01       	movw	r24, r28
    121c:	8f 58       	subi	r24, 0x8F	; 143
    121e:	9f 4f       	sbci	r25, 0xFF	; 255
    1220:	2c e0       	ldi	r18, 0x0C	; 12
    1222:	fc 01       	movw	r30, r24
    1224:	a1 ec       	ldi	r26, 0xC1	; 193
    1226:	b1 e0       	ldi	r27, 0x01	; 1
    1228:	01 90       	ld	r0, Z+
    122a:	0d 92       	st	X+, r0
    122c:	2a 95       	dec	r18
    122e:	e1 f7       	brne	.-8      	; 0x1228 <__stack+0x129>
    1230:	fe 01       	movw	r30, r28
    1232:	71 96       	adiw	r30, 0x11	; 17
    1234:	29 81       	ldd	r18, Y+1	; 0x01
    1236:	3a 81       	ldd	r19, Y+2	; 0x02
    1238:	4b 81       	ldd	r20, Y+3	; 0x03
    123a:	5c 81       	ldd	r21, Y+4	; 0x04
    123c:	ce 01       	movw	r24, r28
    123e:	87 5a       	subi	r24, 0xA7	; 167
    1240:	9f 4f       	sbci	r25, 0xFF	; 255
    1242:	49 01       	movw	r8, r18
    1244:	5a 01       	movw	r10, r20
    1246:	dc 01       	movw	r26, r24
    1248:	cc 90       	ld	r12, X
    124a:	dc 01       	movw	r26, r24
    124c:	11 96       	adiw	r26, 0x01	; 1
    124e:	dc 90       	ld	r13, X
    1250:	dc 01       	movw	r26, r24
    1252:	12 96       	adiw	r26, 0x02	; 2
    1254:	ec 90       	ld	r14, X
    1256:	dc 01       	movw	r26, r24
    1258:	13 96       	adiw	r26, 0x03	; 3
    125a:	fc 90       	ld	r15, X
    125c:	dc 01       	movw	r26, r24
    125e:	14 96       	adiw	r26, 0x04	; 4
    1260:	0c 91       	ld	r16, X
    1262:	dc 01       	movw	r26, r24
    1264:	15 96       	adiw	r26, 0x05	; 5
    1266:	1c 91       	ld	r17, X
    1268:	dc 01       	movw	r26, r24
    126a:	16 96       	adiw	r26, 0x06	; 6
    126c:	2c 91       	ld	r18, X
    126e:	dc 01       	movw	r26, r24
    1270:	17 96       	adiw	r26, 0x07	; 7
    1272:	3c 91       	ld	r19, X
    1274:	dc 01       	movw	r26, r24
    1276:	18 96       	adiw	r26, 0x08	; 8
    1278:	4c 91       	ld	r20, X
    127a:	dc 01       	movw	r26, r24
    127c:	19 96       	adiw	r26, 0x09	; 9
    127e:	5c 91       	ld	r21, X
    1280:	dc 01       	movw	r26, r24
    1282:	1a 96       	adiw	r26, 0x0a	; 10
    1284:	6c 91       	ld	r22, X
    1286:	dc 01       	movw	r26, r24
    1288:	1b 96       	adiw	r26, 0x0b	; 11
    128a:	7c 91       	ld	r23, X
    128c:	cf 01       	movw	r24, r30
    128e:	0e 94 7b 14 	call	0x28f6	; 0x28f6 <multiply>
    1292:	5e 01       	movw	r10, r28
    1294:	b1 e7       	ldi	r27, 0x71	; 113
    1296:	ab 0e       	add	r10, r27
    1298:	b1 1c       	adc	r11, r1
    129a:	8d b7       	in	r24, 0x3d	; 61
    129c:	9e b7       	in	r25, 0x3e	; 62
    129e:	0c 97       	sbiw	r24, 0x0c	; 12
    12a0:	0f b6       	in	r0, 0x3f	; 63
    12a2:	f8 94       	cli
    12a4:	9e bf       	out	0x3e, r25	; 62
    12a6:	0f be       	out	0x3f, r0	; 63
    12a8:	8d bf       	out	0x3d, r24	; 61
    12aa:	8d b7       	in	r24, 0x3d	; 61
    12ac:	9e b7       	in	r25, 0x3e	; 62
    12ae:	01 96       	adiw	r24, 0x01	; 1
    12b0:	2c e0       	ldi	r18, 0x0C	; 12
    12b2:	fe 01       	movw	r30, r28
    12b4:	71 96       	adiw	r30, 0x11	; 17
    12b6:	dc 01       	movw	r26, r24
    12b8:	01 90       	ld	r0, Z+
    12ba:	0d 92       	st	X+, r0
    12bc:	2a 95       	dec	r18
    12be:	e1 f7       	brne	.-8      	; 0x12b8 <__stack+0x1b9>
    12c0:	c0 90 79 01 	lds	r12, 0x0179	; 0x800179 <Bb>
    12c4:	d0 90 7a 01 	lds	r13, 0x017A	; 0x80017a <Bb+0x1>
    12c8:	e0 90 7b 01 	lds	r14, 0x017B	; 0x80017b <Bb+0x2>
    12cc:	f0 90 7c 01 	lds	r15, 0x017C	; 0x80017c <Bb+0x3>
    12d0:	00 91 7d 01 	lds	r16, 0x017D	; 0x80017d <Bb+0x4>
    12d4:	10 91 7e 01 	lds	r17, 0x017E	; 0x80017e <Bb+0x5>
    12d8:	20 91 7f 01 	lds	r18, 0x017F	; 0x80017f <Bb+0x6>
    12dc:	30 91 80 01 	lds	r19, 0x0180	; 0x800180 <Bb+0x7>
    12e0:	40 91 81 01 	lds	r20, 0x0181	; 0x800181 <Bb+0x8>
    12e4:	50 91 82 01 	lds	r21, 0x0182	; 0x800182 <Bb+0x9>
    12e8:	60 91 83 01 	lds	r22, 0x0183	; 0x800183 <Bb+0xa>
    12ec:	70 91 84 01 	lds	r23, 0x0184	; 0x800184 <Bb+0xb>
    12f0:	c5 01       	movw	r24, r10
    12f2:	0e 94 f8 14 	call	0x29f0	; 0x29f0 <add>
    12f6:	ad b7       	in	r26, 0x3d	; 61
    12f8:	be b7       	in	r27, 0x3e	; 62
    12fa:	1c 96       	adiw	r26, 0x0c	; 12
    12fc:	0f b6       	in	r0, 0x3f	; 63
    12fe:	f8 94       	cli
    1300:	de bf       	out	0x3e, r29	; 62
    1302:	0f be       	out	0x3f, r0	; 63
    1304:	cd bf       	out	0x3d, r28	; 61
    1306:	ce 01       	movw	r24, r28
    1308:	8f 58       	subi	r24, 0x8F	; 143
    130a:	9f 4f       	sbci	r25, 0xFF	; 255
    130c:	2c e0       	ldi	r18, 0x0C	; 12
    130e:	fc 01       	movw	r30, r24
    1310:	ad ec       	ldi	r26, 0xCD	; 205
    1312:	b1 e0       	ldi	r27, 0x01	; 1
    1314:	01 90       	ld	r0, Z+
    1316:	0d 92       	st	X+, r0
    1318:	2a 95       	dec	r18
    131a:	e1 f7       	brne	.-8      	; 0x1314 <__stack+0x215>
    131c:	20 91 55 01 	lds	r18, 0x0155	; 0x800155 <basePositionKoeff>
    1320:	30 91 56 01 	lds	r19, 0x0156	; 0x800156 <basePositionKoeff+0x1>
    1324:	40 91 57 01 	lds	r20, 0x0157	; 0x800157 <basePositionKoeff+0x2>
    1328:	50 91 58 01 	lds	r21, 0x0158	; 0x800158 <basePositionKoeff+0x3>
    132c:	fe 01       	movw	r30, r28
    132e:	35 96       	adiw	r30, 0x05	; 5
    1330:	ce 01       	movw	r24, r28
    1332:	87 5a       	subi	r24, 0xA7	; 167
    1334:	9f 4f       	sbci	r25, 0xFF	; 255
    1336:	49 01       	movw	r8, r18
    1338:	5a 01       	movw	r10, r20
    133a:	dc 01       	movw	r26, r24
    133c:	cc 90       	ld	r12, X
    133e:	dc 01       	movw	r26, r24
    1340:	11 96       	adiw	r26, 0x01	; 1
    1342:	dc 90       	ld	r13, X
    1344:	dc 01       	movw	r26, r24
    1346:	12 96       	adiw	r26, 0x02	; 2
    1348:	ec 90       	ld	r14, X
    134a:	dc 01       	movw	r26, r24
    134c:	13 96       	adiw	r26, 0x03	; 3
    134e:	fc 90       	ld	r15, X
    1350:	dc 01       	movw	r26, r24
    1352:	14 96       	adiw	r26, 0x04	; 4
    1354:	0c 91       	ld	r16, X
    1356:	dc 01       	movw	r26, r24
    1358:	15 96       	adiw	r26, 0x05	; 5
    135a:	1c 91       	ld	r17, X
    135c:	dc 01       	movw	r26, r24
    135e:	16 96       	adiw	r26, 0x06	; 6
    1360:	2c 91       	ld	r18, X
    1362:	dc 01       	movw	r26, r24
    1364:	17 96       	adiw	r26, 0x07	; 7
    1366:	3c 91       	ld	r19, X
    1368:	dc 01       	movw	r26, r24
    136a:	18 96       	adiw	r26, 0x08	; 8
    136c:	4c 91       	ld	r20, X
    136e:	dc 01       	movw	r26, r24
    1370:	19 96       	adiw	r26, 0x09	; 9
    1372:	5c 91       	ld	r21, X
    1374:	dc 01       	movw	r26, r24
    1376:	1a 96       	adiw	r26, 0x0a	; 10
    1378:	6c 91       	ld	r22, X
    137a:	dc 01       	movw	r26, r24
    137c:	1b 96       	adiw	r26, 0x0b	; 11
    137e:	7c 91       	ld	r23, X
    1380:	cf 01       	movw	r24, r30
    1382:	0e 94 7b 14 	call	0x28f6	; 0x28f6 <multiply>
    1386:	5e 01       	movw	r10, r28
    1388:	b1 e7       	ldi	r27, 0x71	; 113
    138a:	ab 0e       	add	r10, r27
    138c:	b1 1c       	adc	r11, r1
    138e:	8d b7       	in	r24, 0x3d	; 61
    1390:	9e b7       	in	r25, 0x3e	; 62
    1392:	0c 97       	sbiw	r24, 0x0c	; 12
    1394:	0f b6       	in	r0, 0x3f	; 63
    1396:	f8 94       	cli
    1398:	9e bf       	out	0x3e, r25	; 62
    139a:	0f be       	out	0x3f, r0	; 63
    139c:	8d bf       	out	0x3d, r24	; 61
    139e:	8d b7       	in	r24, 0x3d	; 61
    13a0:	9e b7       	in	r25, 0x3e	; 62
    13a2:	01 96       	adiw	r24, 0x01	; 1
    13a4:	2c e0       	ldi	r18, 0x0C	; 12
    13a6:	fe 01       	movw	r30, r28
    13a8:	35 96       	adiw	r30, 0x05	; 5
    13aa:	dc 01       	movw	r26, r24
    13ac:	01 90       	ld	r0, Z+
    13ae:	0d 92       	st	X+, r0
    13b0:	2a 95       	dec	r18
    13b2:	e1 f7       	brne	.-8      	; 0x13ac <__stack+0x2ad>
    13b4:	c0 90 79 01 	lds	r12, 0x0179	; 0x800179 <Bb>
    13b8:	d0 90 7a 01 	lds	r13, 0x017A	; 0x80017a <Bb+0x1>
    13bc:	e0 90 7b 01 	lds	r14, 0x017B	; 0x80017b <Bb+0x2>
    13c0:	f0 90 7c 01 	lds	r15, 0x017C	; 0x80017c <Bb+0x3>
    13c4:	00 91 7d 01 	lds	r16, 0x017D	; 0x80017d <Bb+0x4>
    13c8:	10 91 7e 01 	lds	r17, 0x017E	; 0x80017e <Bb+0x5>
    13cc:	20 91 7f 01 	lds	r18, 0x017F	; 0x80017f <Bb+0x6>
    13d0:	30 91 80 01 	lds	r19, 0x0180	; 0x800180 <Bb+0x7>
    13d4:	40 91 81 01 	lds	r20, 0x0181	; 0x800181 <Bb+0x8>
    13d8:	50 91 82 01 	lds	r21, 0x0182	; 0x800182 <Bb+0x9>
    13dc:	60 91 83 01 	lds	r22, 0x0183	; 0x800183 <Bb+0xa>
    13e0:	70 91 84 01 	lds	r23, 0x0184	; 0x800184 <Bb+0xb>
    13e4:	c5 01       	movw	r24, r10
    13e6:	0e 94 f8 14 	call	0x29f0	; 0x29f0 <add>
    13ea:	ad b7       	in	r26, 0x3d	; 61
    13ec:	be b7       	in	r27, 0x3e	; 62
    13ee:	1c 96       	adiw	r26, 0x0c	; 12
    13f0:	0f b6       	in	r0, 0x3f	; 63
    13f2:	f8 94       	cli
    13f4:	de bf       	out	0x3e, r29	; 62
    13f6:	0f be       	out	0x3f, r0	; 63
    13f8:	cd bf       	out	0x3d, r28	; 61
    13fa:	ce 01       	movw	r24, r28
    13fc:	8f 58       	subi	r24, 0x8F	; 143
    13fe:	9f 4f       	sbci	r25, 0xFF	; 255
    1400:	2c e0       	ldi	r18, 0x0C	; 12
    1402:	fc 01       	movw	r30, r24
    1404:	a9 ed       	ldi	r26, 0xD9	; 217
    1406:	b1 e0       	ldi	r27, 0x01	; 1
    1408:	01 90       	ld	r0, Z+
    140a:	0d 92       	st	X+, r0
    140c:	2a 95       	dec	r18
    140e:	e1 f7       	brne	.-8      	; 0x1408 <__stack+0x309>
    1410:	00 00       	nop
    1412:	c4 58       	subi	r28, 0x84	; 132
    1414:	df 4f       	sbci	r29, 0xFF	; 255
    1416:	0f b6       	in	r0, 0x3f	; 63
    1418:	f8 94       	cli
    141a:	de bf       	out	0x3e, r29	; 62
    141c:	0f be       	out	0x3f, r0	; 63
    141e:	cd bf       	out	0x3d, r28	; 61
    1420:	df 91       	pop	r29
    1422:	cf 91       	pop	r28
    1424:	1f 91       	pop	r17
    1426:	0f 91       	pop	r16
    1428:	ff 90       	pop	r15
    142a:	ef 90       	pop	r14
    142c:	df 90       	pop	r13
    142e:	cf 90       	pop	r12
    1430:	bf 90       	pop	r11
    1432:	af 90       	pop	r10
    1434:	9f 90       	pop	r9
    1436:	8f 90       	pop	r8
    1438:	08 95       	ret

0000143a <calcTriangleCorner>:
    143a:	ef 92       	push	r14
    143c:	ff 92       	push	r15
    143e:	0f 93       	push	r16
    1440:	1f 93       	push	r17
    1442:	cf 93       	push	r28
    1444:	df 93       	push	r29
    1446:	cd b7       	in	r28, 0x3d	; 61
    1448:	de b7       	in	r29, 0x3e	; 62
    144a:	60 97       	sbiw	r28, 0x10	; 16
    144c:	0f b6       	in	r0, 0x3f	; 63
    144e:	f8 94       	cli
    1450:	de bf       	out	0x3e, r29	; 62
    1452:	0f be       	out	0x3f, r0	; 63
    1454:	cd bf       	out	0x3d, r28	; 61
    1456:	80 91 00 01 	lds	r24, 0x0100	; 0x800100 <__data_start>
    145a:	90 91 01 01 	lds	r25, 0x0101	; 0x800101 <__data_start+0x1>
    145e:	a0 91 02 01 	lds	r26, 0x0102	; 0x800102 <__data_start+0x2>
    1462:	b0 91 03 01 	lds	r27, 0x0103	; 0x800103 <__data_start+0x3>
    1466:	20 e0       	ldi	r18, 0x00	; 0
    1468:	30 e0       	ldi	r19, 0x00	; 0
    146a:	40 ec       	ldi	r20, 0xC0	; 192
    146c:	50 e4       	ldi	r21, 0x40	; 64
    146e:	bc 01       	movw	r22, r24
    1470:	cd 01       	movw	r24, r26
    1472:	0e 94 22 1d 	call	0x3a44	; 0x3a44 <__divsf3>
    1476:	dc 01       	movw	r26, r24
    1478:	cb 01       	movw	r24, r22
    147a:	7c 01       	movw	r14, r24
    147c:	8d 01       	movw	r16, r26
    147e:	80 91 75 01 	lds	r24, 0x0175	; 0x800175 <baseSideLength>
    1482:	90 91 76 01 	lds	r25, 0x0176	; 0x800176 <baseSideLength+0x1>
    1486:	a0 91 77 01 	lds	r26, 0x0177	; 0x800177 <baseSideLength+0x2>
    148a:	b0 91 78 01 	lds	r27, 0x0178	; 0x800178 <baseSideLength+0x3>
    148e:	9c 01       	movw	r18, r24
    1490:	ad 01       	movw	r20, r26
    1492:	c8 01       	movw	r24, r16
    1494:	b7 01       	movw	r22, r14
    1496:	0e 94 9c 1e 	call	0x3d38	; 0x3d38 <__mulsf3>
    149a:	dc 01       	movw	r26, r24
    149c:	cb 01       	movw	r24, r22
    149e:	89 83       	std	Y+1, r24	; 0x01
    14a0:	9a 83       	std	Y+2, r25	; 0x02
    14a2:	ab 83       	std	Y+3, r26	; 0x03
    14a4:	bc 83       	std	Y+4, r27	; 0x04
    14a6:	89 81       	ldd	r24, Y+1	; 0x01
    14a8:	9a 81       	ldd	r25, Y+2	; 0x02
    14aa:	ab 81       	ldd	r26, Y+3	; 0x03
    14ac:	bc 81       	ldd	r27, Y+4	; 0x04
    14ae:	9c 01       	movw	r18, r24
    14b0:	ad 01       	movw	r20, r26
    14b2:	bc 01       	movw	r22, r24
    14b4:	cd 01       	movw	r24, r26
    14b6:	0e 94 42 1c 	call	0x3884	; 0x3884 <__addsf3>
    14ba:	dc 01       	movw	r26, r24
    14bc:	cb 01       	movw	r24, r22
    14be:	8d 83       	std	Y+5, r24	; 0x05
    14c0:	9e 83       	std	Y+6, r25	; 0x06
    14c2:	af 83       	std	Y+7, r26	; 0x07
    14c4:	b8 87       	std	Y+8, r27	; 0x08
    14c6:	80 91 75 01 	lds	r24, 0x0175	; 0x800175 <baseSideLength>
    14ca:	90 91 76 01 	lds	r25, 0x0176	; 0x800176 <baseSideLength+0x1>
    14ce:	a0 91 77 01 	lds	r26, 0x0177	; 0x800177 <baseSideLength+0x2>
    14d2:	b0 91 78 01 	lds	r27, 0x0178	; 0x800178 <baseSideLength+0x3>
    14d6:	b0 58       	subi	r27, 0x80	; 128
    14d8:	20 e0       	ldi	r18, 0x00	; 0
    14da:	30 e0       	ldi	r19, 0x00	; 0
    14dc:	40 e0       	ldi	r20, 0x00	; 0
    14de:	50 e4       	ldi	r21, 0x40	; 64
    14e0:	bc 01       	movw	r22, r24
    14e2:	cd 01       	movw	r24, r26
    14e4:	0e 94 22 1d 	call	0x3a44	; 0x3a44 <__divsf3>
    14e8:	dc 01       	movw	r26, r24
    14ea:	cb 01       	movw	r24, r22
    14ec:	9c 01       	movw	r18, r24
    14ee:	ad 01       	movw	r20, r26
    14f0:	89 81       	ldd	r24, Y+1	; 0x01
    14f2:	9a 81       	ldd	r25, Y+2	; 0x02
    14f4:	ab 81       	ldd	r26, Y+3	; 0x03
    14f6:	bc 81       	ldd	r27, Y+4	; 0x04
    14f8:	b0 58       	subi	r27, 0x80	; 128
    14fa:	20 93 f1 01 	sts	0x01F1, r18	; 0x8001f1 <Ab>
    14fe:	30 93 f2 01 	sts	0x01F2, r19	; 0x8001f2 <Ab+0x1>
    1502:	40 93 f3 01 	sts	0x01F3, r20	; 0x8001f3 <Ab+0x2>
    1506:	50 93 f4 01 	sts	0x01F4, r21	; 0x8001f4 <Ab+0x3>
    150a:	80 93 f5 01 	sts	0x01F5, r24	; 0x8001f5 <Ab+0x4>
    150e:	90 93 f6 01 	sts	0x01F6, r25	; 0x8001f6 <Ab+0x5>
    1512:	a0 93 f7 01 	sts	0x01F7, r26	; 0x8001f7 <Ab+0x6>
    1516:	b0 93 f8 01 	sts	0x01F8, r27	; 0x8001f8 <Ab+0x7>
    151a:	10 92 f9 01 	sts	0x01F9, r1	; 0x8001f9 <Ab+0x8>
    151e:	10 92 fa 01 	sts	0x01FA, r1	; 0x8001fa <Ab+0x9>
    1522:	10 92 fb 01 	sts	0x01FB, r1	; 0x8001fb <Ab+0xa>
    1526:	10 92 fc 01 	sts	0x01FC, r1	; 0x8001fc <Ab+0xb>
    152a:	80 91 75 01 	lds	r24, 0x0175	; 0x800175 <baseSideLength>
    152e:	90 91 76 01 	lds	r25, 0x0176	; 0x800176 <baseSideLength+0x1>
    1532:	a0 91 77 01 	lds	r26, 0x0177	; 0x800177 <baseSideLength+0x2>
    1536:	b0 91 78 01 	lds	r27, 0x0178	; 0x800178 <baseSideLength+0x3>
    153a:	20 e0       	ldi	r18, 0x00	; 0
    153c:	30 e0       	ldi	r19, 0x00	; 0
    153e:	40 e0       	ldi	r20, 0x00	; 0
    1540:	50 e4       	ldi	r21, 0x40	; 64
    1542:	bc 01       	movw	r22, r24
    1544:	cd 01       	movw	r24, r26
    1546:	0e 94 22 1d 	call	0x3a44	; 0x3a44 <__divsf3>
    154a:	dc 01       	movw	r26, r24
    154c:	cb 01       	movw	r24, r22
    154e:	9c 01       	movw	r18, r24
    1550:	ad 01       	movw	r20, r26
    1552:	89 81       	ldd	r24, Y+1	; 0x01
    1554:	9a 81       	ldd	r25, Y+2	; 0x02
    1556:	ab 81       	ldd	r26, Y+3	; 0x03
    1558:	bc 81       	ldd	r27, Y+4	; 0x04
    155a:	b0 58       	subi	r27, 0x80	; 128
    155c:	20 93 79 01 	sts	0x0179, r18	; 0x800179 <Bb>
    1560:	30 93 7a 01 	sts	0x017A, r19	; 0x80017a <Bb+0x1>
    1564:	40 93 7b 01 	sts	0x017B, r20	; 0x80017b <Bb+0x2>
    1568:	50 93 7c 01 	sts	0x017C, r21	; 0x80017c <Bb+0x3>
    156c:	80 93 7d 01 	sts	0x017D, r24	; 0x80017d <Bb+0x4>
    1570:	90 93 7e 01 	sts	0x017E, r25	; 0x80017e <Bb+0x5>
    1574:	a0 93 7f 01 	sts	0x017F, r26	; 0x80017f <Bb+0x6>
    1578:	b0 93 80 01 	sts	0x0180, r27	; 0x800180 <Bb+0x7>
    157c:	10 92 81 01 	sts	0x0181, r1	; 0x800181 <Bb+0x8>
    1580:	10 92 82 01 	sts	0x0182, r1	; 0x800182 <Bb+0x9>
    1584:	10 92 83 01 	sts	0x0183, r1	; 0x800183 <Bb+0xa>
    1588:	10 92 84 01 	sts	0x0184, r1	; 0x800184 <Bb+0xb>
    158c:	10 92 85 01 	sts	0x0185, r1	; 0x800185 <Cb>
    1590:	10 92 86 01 	sts	0x0186, r1	; 0x800186 <Cb+0x1>
    1594:	10 92 87 01 	sts	0x0187, r1	; 0x800187 <Cb+0x2>
    1598:	10 92 88 01 	sts	0x0188, r1	; 0x800188 <Cb+0x3>
    159c:	8d 81       	ldd	r24, Y+5	; 0x05
    159e:	9e 81       	ldd	r25, Y+6	; 0x06
    15a0:	af 81       	ldd	r26, Y+7	; 0x07
    15a2:	b8 85       	ldd	r27, Y+8	; 0x08
    15a4:	80 93 89 01 	sts	0x0189, r24	; 0x800189 <Cb+0x4>
    15a8:	90 93 8a 01 	sts	0x018A, r25	; 0x80018a <Cb+0x5>
    15ac:	a0 93 8b 01 	sts	0x018B, r26	; 0x80018b <Cb+0x6>
    15b0:	b0 93 8c 01 	sts	0x018C, r27	; 0x80018c <Cb+0x7>
    15b4:	10 92 8d 01 	sts	0x018D, r1	; 0x80018d <Cb+0x8>
    15b8:	10 92 8e 01 	sts	0x018E, r1	; 0x80018e <Cb+0x9>
    15bc:	10 92 8f 01 	sts	0x018F, r1	; 0x80018f <Cb+0xa>
    15c0:	10 92 90 01 	sts	0x0190, r1	; 0x800190 <Cb+0xb>
    15c4:	80 91 00 01 	lds	r24, 0x0100	; 0x800100 <__data_start>
    15c8:	90 91 01 01 	lds	r25, 0x0101	; 0x800101 <__data_start+0x1>
    15cc:	a0 91 02 01 	lds	r26, 0x0102	; 0x800102 <__data_start+0x2>
    15d0:	b0 91 03 01 	lds	r27, 0x0103	; 0x800103 <__data_start+0x3>
    15d4:	20 e0       	ldi	r18, 0x00	; 0
    15d6:	30 e0       	ldi	r19, 0x00	; 0
    15d8:	40 ec       	ldi	r20, 0xC0	; 192
    15da:	50 e4       	ldi	r21, 0x40	; 64
    15dc:	bc 01       	movw	r22, r24
    15de:	cd 01       	movw	r24, r26
    15e0:	0e 94 22 1d 	call	0x3a44	; 0x3a44 <__divsf3>
    15e4:	dc 01       	movw	r26, r24
    15e6:	cb 01       	movw	r24, r22
    15e8:	7c 01       	movw	r14, r24
    15ea:	8d 01       	movw	r16, r26
    15ec:	80 91 fd 01 	lds	r24, 0x01FD	; 0x8001fd <platformSideLength>
    15f0:	90 91 fe 01 	lds	r25, 0x01FE	; 0x8001fe <platformSideLength+0x1>
    15f4:	a0 91 ff 01 	lds	r26, 0x01FF	; 0x8001ff <platformSideLength+0x2>
    15f8:	b0 91 00 02 	lds	r27, 0x0200	; 0x800200 <platformSideLength+0x3>
    15fc:	9c 01       	movw	r18, r24
    15fe:	ad 01       	movw	r20, r26
    1600:	c8 01       	movw	r24, r16
    1602:	b7 01       	movw	r22, r14
    1604:	0e 94 9c 1e 	call	0x3d38	; 0x3d38 <__mulsf3>
    1608:	dc 01       	movw	r26, r24
    160a:	cb 01       	movw	r24, r22
    160c:	89 87       	std	Y+9, r24	; 0x09
    160e:	9a 87       	std	Y+10, r25	; 0x0a
    1610:	ab 87       	std	Y+11, r26	; 0x0b
    1612:	bc 87       	std	Y+12, r27	; 0x0c
    1614:	89 85       	ldd	r24, Y+9	; 0x09
    1616:	9a 85       	ldd	r25, Y+10	; 0x0a
    1618:	ab 85       	ldd	r26, Y+11	; 0x0b
    161a:	bc 85       	ldd	r27, Y+12	; 0x0c
    161c:	9c 01       	movw	r18, r24
    161e:	ad 01       	movw	r20, r26
    1620:	bc 01       	movw	r22, r24
    1622:	cd 01       	movw	r24, r26
    1624:	0e 94 42 1c 	call	0x3884	; 0x3884 <__addsf3>
    1628:	dc 01       	movw	r26, r24
    162a:	cb 01       	movw	r24, r22
    162c:	8d 87       	std	Y+13, r24	; 0x0d
    162e:	9e 87       	std	Y+14, r25	; 0x0e
    1630:	af 87       	std	Y+15, r26	; 0x0f
    1632:	b8 8b       	std	Y+16, r27	; 0x10
    1634:	8d 85       	ldd	r24, Y+13	; 0x0d
    1636:	9e 85       	ldd	r25, Y+14	; 0x0e
    1638:	af 85       	ldd	r26, Y+15	; 0x0f
    163a:	b8 89       	ldd	r27, Y+16	; 0x10
    163c:	b0 58       	subi	r27, 0x80	; 128
    163e:	10 92 91 01 	sts	0x0191, r1	; 0x800191 <Ap>
    1642:	10 92 92 01 	sts	0x0192, r1	; 0x800192 <Ap+0x1>
    1646:	10 92 93 01 	sts	0x0193, r1	; 0x800193 <Ap+0x2>
    164a:	10 92 94 01 	sts	0x0194, r1	; 0x800194 <Ap+0x3>
    164e:	80 93 95 01 	sts	0x0195, r24	; 0x800195 <Ap+0x4>
    1652:	90 93 96 01 	sts	0x0196, r25	; 0x800196 <Ap+0x5>
    1656:	a0 93 97 01 	sts	0x0197, r26	; 0x800197 <Ap+0x6>
    165a:	b0 93 98 01 	sts	0x0198, r27	; 0x800198 <Ap+0x7>
    165e:	10 92 99 01 	sts	0x0199, r1	; 0x800199 <Ap+0x8>
    1662:	10 92 9a 01 	sts	0x019A, r1	; 0x80019a <Ap+0x9>
    1666:	10 92 9b 01 	sts	0x019B, r1	; 0x80019b <Ap+0xa>
    166a:	10 92 9c 01 	sts	0x019C, r1	; 0x80019c <Ap+0xb>
    166e:	80 91 fd 01 	lds	r24, 0x01FD	; 0x8001fd <platformSideLength>
    1672:	90 91 fe 01 	lds	r25, 0x01FE	; 0x8001fe <platformSideLength+0x1>
    1676:	a0 91 ff 01 	lds	r26, 0x01FF	; 0x8001ff <platformSideLength+0x2>
    167a:	b0 91 00 02 	lds	r27, 0x0200	; 0x800200 <platformSideLength+0x3>
    167e:	20 e0       	ldi	r18, 0x00	; 0
    1680:	30 e0       	ldi	r19, 0x00	; 0
    1682:	40 e0       	ldi	r20, 0x00	; 0
    1684:	50 e4       	ldi	r21, 0x40	; 64
    1686:	bc 01       	movw	r22, r24
    1688:	cd 01       	movw	r24, r26
    168a:	0e 94 22 1d 	call	0x3a44	; 0x3a44 <__divsf3>
    168e:	dc 01       	movw	r26, r24
    1690:	cb 01       	movw	r24, r22
    1692:	80 93 e5 01 	sts	0x01E5, r24	; 0x8001e5 <Bp>
    1696:	90 93 e6 01 	sts	0x01E6, r25	; 0x8001e6 <Bp+0x1>
    169a:	a0 93 e7 01 	sts	0x01E7, r26	; 0x8001e7 <Bp+0x2>
    169e:	b0 93 e8 01 	sts	0x01E8, r27	; 0x8001e8 <Bp+0x3>
    16a2:	89 85       	ldd	r24, Y+9	; 0x09
    16a4:	9a 85       	ldd	r25, Y+10	; 0x0a
    16a6:	ab 85       	ldd	r26, Y+11	; 0x0b
    16a8:	bc 85       	ldd	r27, Y+12	; 0x0c
    16aa:	80 93 e9 01 	sts	0x01E9, r24	; 0x8001e9 <Bp+0x4>
    16ae:	90 93 ea 01 	sts	0x01EA, r25	; 0x8001ea <Bp+0x5>
    16b2:	a0 93 eb 01 	sts	0x01EB, r26	; 0x8001eb <Bp+0x6>
    16b6:	b0 93 ec 01 	sts	0x01EC, r27	; 0x8001ec <Bp+0x7>
    16ba:	10 92 ed 01 	sts	0x01ED, r1	; 0x8001ed <Bp+0x8>
    16be:	10 92 ee 01 	sts	0x01EE, r1	; 0x8001ee <Bp+0x9>
    16c2:	10 92 ef 01 	sts	0x01EF, r1	; 0x8001ef <Bp+0xa>
    16c6:	10 92 f0 01 	sts	0x01F0, r1	; 0x8001f0 <Bp+0xb>
    16ca:	80 91 fd 01 	lds	r24, 0x01FD	; 0x8001fd <platformSideLength>
    16ce:	90 91 fe 01 	lds	r25, 0x01FE	; 0x8001fe <platformSideLength+0x1>
    16d2:	a0 91 ff 01 	lds	r26, 0x01FF	; 0x8001ff <platformSideLength+0x2>
    16d6:	b0 91 00 02 	lds	r27, 0x0200	; 0x800200 <platformSideLength+0x3>
    16da:	b0 58       	subi	r27, 0x80	; 128
    16dc:	20 e0       	ldi	r18, 0x00	; 0
    16de:	30 e0       	ldi	r19, 0x00	; 0
    16e0:	40 e0       	ldi	r20, 0x00	; 0
    16e2:	50 e4       	ldi	r21, 0x40	; 64
    16e4:	bc 01       	movw	r22, r24
    16e6:	cd 01       	movw	r24, r26
    16e8:	0e 94 22 1d 	call	0x3a44	; 0x3a44 <__divsf3>
    16ec:	dc 01       	movw	r26, r24
    16ee:	cb 01       	movw	r24, r22
    16f0:	80 93 01 02 	sts	0x0201, r24	; 0x800201 <Cp>
    16f4:	90 93 02 02 	sts	0x0202, r25	; 0x800202 <Cp+0x1>
    16f8:	a0 93 03 02 	sts	0x0203, r26	; 0x800203 <Cp+0x2>
    16fc:	b0 93 04 02 	sts	0x0204, r27	; 0x800204 <Cp+0x3>
    1700:	89 85       	ldd	r24, Y+9	; 0x09
    1702:	9a 85       	ldd	r25, Y+10	; 0x0a
    1704:	ab 85       	ldd	r26, Y+11	; 0x0b
    1706:	bc 85       	ldd	r27, Y+12	; 0x0c
    1708:	80 93 05 02 	sts	0x0205, r24	; 0x800205 <Cp+0x4>
    170c:	90 93 06 02 	sts	0x0206, r25	; 0x800206 <Cp+0x5>
    1710:	a0 93 07 02 	sts	0x0207, r26	; 0x800207 <Cp+0x6>
    1714:	b0 93 08 02 	sts	0x0208, r27	; 0x800208 <Cp+0x7>
    1718:	10 92 09 02 	sts	0x0209, r1	; 0x800209 <Cp+0x8>
    171c:	10 92 0a 02 	sts	0x020A, r1	; 0x80020a <Cp+0x9>
    1720:	10 92 0b 02 	sts	0x020B, r1	; 0x80020b <Cp+0xa>
    1724:	10 92 0c 02 	sts	0x020C, r1	; 0x80020c <Cp+0xb>
    1728:	00 00       	nop
    172a:	60 96       	adiw	r28, 0x10	; 16
    172c:	0f b6       	in	r0, 0x3f	; 63
    172e:	f8 94       	cli
    1730:	de bf       	out	0x3e, r29	; 62
    1732:	0f be       	out	0x3f, r0	; 63
    1734:	cd bf       	out	0x3d, r28	; 61
    1736:	df 91       	pop	r29
    1738:	cf 91       	pop	r28
    173a:	1f 91       	pop	r17
    173c:	0f 91       	pop	r16
    173e:	ff 90       	pop	r15
    1740:	ef 90       	pop	r14
    1742:	08 95       	ret

00001744 <calcMotorAngles>:
    1744:	af 92       	push	r10
    1746:	bf 92       	push	r11
    1748:	cf 92       	push	r12
    174a:	df 92       	push	r13
    174c:	ef 92       	push	r14
    174e:	ff 92       	push	r15
    1750:	0f 93       	push	r16
    1752:	1f 93       	push	r17
    1754:	cf 93       	push	r28
    1756:	df 93       	push	r29
    1758:	cd b7       	in	r28, 0x3d	; 61
    175a:	de b7       	in	r29, 0x3e	; 62
    175c:	6a 97       	sbiw	r28, 0x1a	; 26
    175e:	0f b6       	in	r0, 0x3f	; 63
    1760:	f8 94       	cli
    1762:	de bf       	out	0x3e, r29	; 62
    1764:	0f be       	out	0x3f, r0	; 63
    1766:	cd bf       	out	0x3d, r28	; 61
    1768:	ef 86       	std	Y+15, r14	; 0x0f
    176a:	f8 8a       	std	Y+16, r15	; 0x10
    176c:	09 8b       	std	Y+17, r16	; 0x11
    176e:	1a 8b       	std	Y+18, r17	; 0x12
    1770:	2b 8b       	std	Y+19, r18	; 0x13
    1772:	3c 8b       	std	Y+20, r19	; 0x14
    1774:	4d 8b       	std	Y+21, r20	; 0x15
    1776:	5e 8b       	std	Y+22, r21	; 0x16
    1778:	6f 8b       	std	Y+23, r22	; 0x17
    177a:	78 8f       	std	Y+24, r23	; 0x18
    177c:	89 8f       	std	Y+25, r24	; 0x19
    177e:	9a 8f       	std	Y+26, r25	; 0x1a
    1780:	1a 82       	std	Y+2, r1	; 0x02
    1782:	19 82       	std	Y+1, r1	; 0x01
    1784:	c5 c0       	rjmp	.+394    	; 0x1910 <calcMotorAngles+0x1cc>
    1786:	5e 01       	movw	r10, r28
    1788:	23 e0       	ldi	r18, 0x03	; 3
    178a:	a2 0e       	add	r10, r18
    178c:	b1 1c       	adc	r11, r1
    178e:	29 81       	ldd	r18, Y+1	; 0x01
    1790:	3a 81       	ldd	r19, Y+2	; 0x02
    1792:	c9 01       	movw	r24, r18
    1794:	88 0f       	add	r24, r24
    1796:	99 1f       	adc	r25, r25
    1798:	82 0f       	add	r24, r18
    179a:	93 1f       	adc	r25, r19
    179c:	88 0f       	add	r24, r24
    179e:	99 1f       	adc	r25, r25
    17a0:	88 0f       	add	r24, r24
    17a2:	99 1f       	adc	r25, r25
    17a4:	9c 01       	movw	r18, r24
    17a6:	23 5f       	subi	r18, 0xF3	; 243
    17a8:	3d 4f       	sbci	r19, 0xFD	; 253
    17aa:	8d b7       	in	r24, 0x3d	; 61
    17ac:	9e b7       	in	r25, 0x3e	; 62
    17ae:	0c 97       	sbiw	r24, 0x0c	; 12
    17b0:	0f b6       	in	r0, 0x3f	; 63
    17b2:	f8 94       	cli
    17b4:	9e bf       	out	0x3e, r25	; 62
    17b6:	0f be       	out	0x3f, r0	; 63
    17b8:	8d bf       	out	0x3d, r24	; 61
    17ba:	8d b7       	in	r24, 0x3d	; 61
    17bc:	9e b7       	in	r25, 0x3e	; 62
    17be:	01 96       	adiw	r24, 0x01	; 1
    17c0:	4c e0       	ldi	r20, 0x0C	; 12
    17c2:	f9 01       	movw	r30, r18
    17c4:	dc 01       	movw	r26, r24
    17c6:	01 90       	ld	r0, Z+
    17c8:	0d 92       	st	X+, r0
    17ca:	4a 95       	dec	r20
    17cc:	e1 f7       	brne	.-8      	; 0x17c6 <calcMotorAngles+0x82>
    17ce:	29 81       	ldd	r18, Y+1	; 0x01
    17d0:	3a 81       	ldd	r19, Y+2	; 0x02
    17d2:	c9 01       	movw	r24, r18
    17d4:	88 0f       	add	r24, r24
    17d6:	99 1f       	adc	r25, r25
    17d8:	82 0f       	add	r24, r18
    17da:	93 1f       	adc	r25, r19
    17dc:	88 0f       	add	r24, r24
    17de:	99 1f       	adc	r25, r25
    17e0:	88 0f       	add	r24, r24
    17e2:	99 1f       	adc	r25, r25
    17e4:	9c 01       	movw	r18, r24
    17e6:	23 56       	subi	r18, 0x63	; 99
    17e8:	3e 4f       	sbci	r19, 0xFE	; 254
    17ea:	ed b7       	in	r30, 0x3d	; 61
    17ec:	fe b7       	in	r31, 0x3e	; 62
    17ee:	3c 97       	sbiw	r30, 0x0c	; 12
    17f0:	0f b6       	in	r0, 0x3f	; 63
    17f2:	f8 94       	cli
    17f4:	fe bf       	out	0x3e, r31	; 62
    17f6:	0f be       	out	0x3f, r0	; 63
    17f8:	ed bf       	out	0x3d, r30	; 61
    17fa:	8d b7       	in	r24, 0x3d	; 61
    17fc:	9e b7       	in	r25, 0x3e	; 62
    17fe:	01 96       	adiw	r24, 0x01	; 1
    1800:	4c e0       	ldi	r20, 0x0C	; 12
    1802:	f9 01       	movw	r30, r18
    1804:	dc 01       	movw	r26, r24
    1806:	01 90       	ld	r0, Z+
    1808:	0d 92       	st	X+, r0
    180a:	4a 95       	dec	r20
    180c:	e1 f7       	brne	.-8      	; 0x1806 <calcMotorAngles+0xc2>
    180e:	2d b7       	in	r18, 0x3d	; 61
    1810:	3e b7       	in	r19, 0x3e	; 62
    1812:	20 51       	subi	r18, 0x10	; 16
    1814:	31 09       	sbc	r19, r1
    1816:	0f b6       	in	r0, 0x3f	; 63
    1818:	f8 94       	cli
    181a:	3e bf       	out	0x3e, r19	; 62
    181c:	0f be       	out	0x3f, r0	; 63
    181e:	2d bf       	out	0x3d, r18	; 61
    1820:	8d b7       	in	r24, 0x3d	; 61
    1822:	9e b7       	in	r25, 0x3e	; 62
    1824:	01 96       	adiw	r24, 0x01	; 1
    1826:	20 e1       	ldi	r18, 0x10	; 16
    1828:	fe 01       	movw	r30, r28
    182a:	b7 96       	adiw	r30, 0x27	; 39
    182c:	dc 01       	movw	r26, r24
    182e:	01 90       	ld	r0, Z+
    1830:	0d 92       	st	X+, r0
    1832:	2a 95       	dec	r18
    1834:	e1 f7       	brne	.-8      	; 0x182e <calcMotorAngles+0xea>
    1836:	cf 84       	ldd	r12, Y+15	; 0x0f
    1838:	d8 88       	ldd	r13, Y+16	; 0x10
    183a:	e9 88       	ldd	r14, Y+17	; 0x11
    183c:	fa 88       	ldd	r15, Y+18	; 0x12
    183e:	0b 89       	ldd	r16, Y+19	; 0x13
    1840:	1c 89       	ldd	r17, Y+20	; 0x14
    1842:	2d 89       	ldd	r18, Y+21	; 0x15
    1844:	3e 89       	ldd	r19, Y+22	; 0x16
    1846:	4f 89       	ldd	r20, Y+23	; 0x17
    1848:	58 8d       	ldd	r21, Y+24	; 0x18
    184a:	69 8d       	ldd	r22, Y+25	; 0x19
    184c:	7a 8d       	ldd	r23, Y+26	; 0x1a
    184e:	c5 01       	movw	r24, r10
    1850:	14 d3       	rcall	.+1576   	; 0x1e7a <calcEffectiveRodLength>
    1852:	8d b7       	in	r24, 0x3d	; 61
    1854:	9e b7       	in	r25, 0x3e	; 62
    1856:	88 96       	adiw	r24, 0x28	; 40
    1858:	0f b6       	in	r0, 0x3f	; 63
    185a:	f8 94       	cli
    185c:	de bf       	out	0x3e, r29	; 62
    185e:	0f be       	out	0x3f, r0	; 63
    1860:	cd bf       	out	0x3d, r28	; 61
    1862:	89 81       	ldd	r24, Y+1	; 0x01
    1864:	9a 81       	ldd	r25, Y+2	; 0x02
    1866:	88 0f       	add	r24, r24
    1868:	99 1f       	adc	r25, r25
    186a:	88 0f       	add	r24, r24
    186c:	99 1f       	adc	r25, r25
    186e:	83 5a       	subi	r24, 0xA3	; 163
    1870:	9e 4f       	sbci	r25, 0xFE	; 254
    1872:	fc 01       	movw	r30, r24
    1874:	20 81       	ld	r18, Z
    1876:	31 81       	ldd	r19, Z+1	; 0x01
    1878:	42 81       	ldd	r20, Z+2	; 0x02
    187a:	53 81       	ldd	r21, Z+3	; 0x03
    187c:	80 91 51 01 	lds	r24, 0x0151	; 0x800151 <hornLength>
    1880:	90 91 52 01 	lds	r25, 0x0152	; 0x800152 <hornLength+0x1>
    1884:	a0 91 53 01 	lds	r26, 0x0153	; 0x800153 <hornLength+0x2>
    1888:	b0 91 54 01 	lds	r27, 0x0154	; 0x800154 <hornLength+0x3>
    188c:	e0 90 55 02 	lds	r14, 0x0255	; 0x800255 <rodLength>
    1890:	f0 90 56 02 	lds	r15, 0x0256	; 0x800256 <rodLength+0x1>
    1894:	00 91 57 02 	lds	r16, 0x0257	; 0x800257 <rodLength+0x2>
    1898:	10 91 58 02 	lds	r17, 0x0258	; 0x800258 <rodLength+0x3>
    189c:	65 2f       	mov	r22, r21
    189e:	6f 93       	push	r22
    18a0:	64 2f       	mov	r22, r20
    18a2:	6f 93       	push	r22
    18a4:	63 2f       	mov	r22, r19
    18a6:	6f 93       	push	r22
    18a8:	2f 93       	push	r18
    18aa:	2b 2f       	mov	r18, r27
    18ac:	2f 93       	push	r18
    18ae:	2a 2f       	mov	r18, r26
    18b0:	2f 93       	push	r18
    18b2:	29 2f       	mov	r18, r25
    18b4:	2f 93       	push	r18
    18b6:	8f 93       	push	r24
    18b8:	57 01       	movw	r10, r14
    18ba:	68 01       	movw	r12, r16
    18bc:	eb 80       	ldd	r14, Y+3	; 0x03
    18be:	fc 80       	ldd	r15, Y+4	; 0x04
    18c0:	0d 81       	ldd	r16, Y+5	; 0x05
    18c2:	1e 81       	ldd	r17, Y+6	; 0x06
    18c4:	2f 81       	ldd	r18, Y+7	; 0x07
    18c6:	38 85       	ldd	r19, Y+8	; 0x08
    18c8:	49 85       	ldd	r20, Y+9	; 0x09
    18ca:	5a 85       	ldd	r21, Y+10	; 0x0a
    18cc:	6b 85       	ldd	r22, Y+11	; 0x0b
    18ce:	7c 85       	ldd	r23, Y+12	; 0x0c
    18d0:	8d 85       	ldd	r24, Y+13	; 0x0d
    18d2:	9e 85       	ldd	r25, Y+14	; 0x0e
    18d4:	35 d0       	rcall	.+106    	; 0x1940 <angle>
    18d6:	2d b7       	in	r18, 0x3d	; 61
    18d8:	3e b7       	in	r19, 0x3e	; 62
    18da:	28 5f       	subi	r18, 0xF8	; 248
    18dc:	3f 4f       	sbci	r19, 0xFF	; 255
    18de:	0f b6       	in	r0, 0x3f	; 63
    18e0:	f8 94       	cli
    18e2:	de bf       	out	0x3e, r29	; 62
    18e4:	0f be       	out	0x3f, r0	; 63
    18e6:	cd bf       	out	0x3d, r28	; 61
    18e8:	dc 01       	movw	r26, r24
    18ea:	cb 01       	movw	r24, r22
    18ec:	29 81       	ldd	r18, Y+1	; 0x01
    18ee:	3a 81       	ldd	r19, Y+2	; 0x02
    18f0:	22 0f       	add	r18, r18
    18f2:	33 1f       	adc	r19, r19
    18f4:	22 0f       	add	r18, r18
    18f6:	33 1f       	adc	r19, r19
    18f8:	20 5f       	subi	r18, 0xF0	; 240
    18fa:	3e 4f       	sbci	r19, 0xFE	; 254
    18fc:	f9 01       	movw	r30, r18
    18fe:	80 83       	st	Z, r24
    1900:	91 83       	std	Z+1, r25	; 0x01
    1902:	a2 83       	std	Z+2, r26	; 0x02
    1904:	b3 83       	std	Z+3, r27	; 0x03
    1906:	89 81       	ldd	r24, Y+1	; 0x01
    1908:	9a 81       	ldd	r25, Y+2	; 0x02
    190a:	01 96       	adiw	r24, 0x01	; 1
    190c:	9a 83       	std	Y+2, r25	; 0x02
    190e:	89 83       	std	Y+1, r24	; 0x01
    1910:	89 81       	ldd	r24, Y+1	; 0x01
    1912:	9a 81       	ldd	r25, Y+2	; 0x02
    1914:	06 97       	sbiw	r24, 0x06	; 6
    1916:	0c f4       	brge	.+2      	; 0x191a <calcMotorAngles+0x1d6>
    1918:	36 cf       	rjmp	.-404    	; 0x1786 <calcMotorAngles+0x42>
    191a:	80 e1       	ldi	r24, 0x10	; 16
    191c:	91 e0       	ldi	r25, 0x01	; 1
    191e:	6a 96       	adiw	r28, 0x1a	; 26
    1920:	0f b6       	in	r0, 0x3f	; 63
    1922:	f8 94       	cli
    1924:	de bf       	out	0x3e, r29	; 62
    1926:	0f be       	out	0x3f, r0	; 63
    1928:	cd bf       	out	0x3d, r28	; 61
    192a:	df 91       	pop	r29
    192c:	cf 91       	pop	r28
    192e:	1f 91       	pop	r17
    1930:	0f 91       	pop	r16
    1932:	ff 90       	pop	r15
    1934:	ef 90       	pop	r14
    1936:	df 90       	pop	r13
    1938:	cf 90       	pop	r12
    193a:	bf 90       	pop	r11
    193c:	af 90       	pop	r10
    193e:	08 95       	ret

00001940 <angle>:
    1940:	af 92       	push	r10
    1942:	bf 92       	push	r11
    1944:	cf 92       	push	r12
    1946:	df 92       	push	r13
    1948:	ef 92       	push	r14
    194a:	ff 92       	push	r15
    194c:	0f 93       	push	r16
    194e:	1f 93       	push	r17
    1950:	cf 93       	push	r28
    1952:	df 93       	push	r29
    1954:	cd b7       	in	r28, 0x3d	; 61
    1956:	de b7       	in	r29, 0x3e	; 62
    1958:	6c 97       	sbiw	r28, 0x1c	; 28
    195a:	0f b6       	in	r0, 0x3f	; 63
    195c:	f8 94       	cli
    195e:	de bf       	out	0x3e, r29	; 62
    1960:	0f be       	out	0x3f, r0	; 63
    1962:	cd bf       	out	0x3d, r28	; 61
    1964:	ed 86       	std	Y+13, r14	; 0x0d
    1966:	fe 86       	std	Y+14, r15	; 0x0e
    1968:	0f 87       	std	Y+15, r16	; 0x0f
    196a:	18 8b       	std	Y+16, r17	; 0x10
    196c:	29 8b       	std	Y+17, r18	; 0x11
    196e:	3a 8b       	std	Y+18, r19	; 0x12
    1970:	4b 8b       	std	Y+19, r20	; 0x13
    1972:	5c 8b       	std	Y+20, r21	; 0x14
    1974:	6d 8b       	std	Y+21, r22	; 0x15
    1976:	7e 8b       	std	Y+22, r23	; 0x16
    1978:	8f 8b       	std	Y+23, r24	; 0x17
    197a:	98 8f       	std	Y+24, r25	; 0x18
    197c:	a9 8e       	std	Y+25, r10	; 0x19
    197e:	ba 8e       	std	Y+26, r11	; 0x1a
    1980:	cb 8e       	std	Y+27, r12	; 0x1b
    1982:	dc 8e       	std	Y+28, r13	; 0x1c
    1984:	89 a5       	ldd	r24, Y+41	; 0x29
    1986:	9a a5       	ldd	r25, Y+42	; 0x2a
    1988:	ab a5       	ldd	r26, Y+43	; 0x2b
    198a:	bc a5       	ldd	r27, Y+44	; 0x2c
    198c:	ad 84       	ldd	r10, Y+13	; 0x0d
    198e:	be 84       	ldd	r11, Y+14	; 0x0e
    1990:	cf 84       	ldd	r12, Y+15	; 0x0f
    1992:	d8 88       	ldd	r13, Y+16	; 0x10
    1994:	e9 88       	ldd	r14, Y+17	; 0x11
    1996:	fa 88       	ldd	r15, Y+18	; 0x12
    1998:	0b 89       	ldd	r16, Y+19	; 0x13
    199a:	1c 89       	ldd	r17, Y+20	; 0x14
    199c:	2d 89       	ldd	r18, Y+21	; 0x15
    199e:	3e 89       	ldd	r19, Y+22	; 0x16
    19a0:	4f 89       	ldd	r20, Y+23	; 0x17
    19a2:	58 8d       	ldd	r21, Y+24	; 0x18
    19a4:	bc 01       	movw	r22, r24
    19a6:	cd 01       	movw	r24, r26
    19a8:	74 d0       	rcall	.+232    	; 0x1a92 <eK>
    19aa:	dc 01       	movw	r26, r24
    19ac:	cb 01       	movw	r24, r22
    19ae:	89 83       	std	Y+1, r24	; 0x01
    19b0:	9a 83       	std	Y+2, r25	; 0x02
    19b2:	ab 83       	std	Y+3, r26	; 0x03
    19b4:	bc 83       	std	Y+4, r27	; 0x04
    19b6:	89 a5       	ldd	r24, Y+41	; 0x29
    19b8:	9a a5       	ldd	r25, Y+42	; 0x2a
    19ba:	ab a5       	ldd	r26, Y+43	; 0x2b
    19bc:	bc a5       	ldd	r27, Y+44	; 0x2c
    19be:	28 a9       	ldd	r18, Y+48	; 0x30
    19c0:	2f 93       	push	r18
    19c2:	2f a5       	ldd	r18, Y+47	; 0x2f
    19c4:	2f 93       	push	r18
    19c6:	2e a5       	ldd	r18, Y+46	; 0x2e
    19c8:	2f 93       	push	r18
    19ca:	2d a5       	ldd	r18, Y+45	; 0x2d
    19cc:	2f 93       	push	r18
    19ce:	ad 84       	ldd	r10, Y+13	; 0x0d
    19d0:	be 84       	ldd	r11, Y+14	; 0x0e
    19d2:	cf 84       	ldd	r12, Y+15	; 0x0f
    19d4:	d8 88       	ldd	r13, Y+16	; 0x10
    19d6:	e9 88       	ldd	r14, Y+17	; 0x11
    19d8:	fa 88       	ldd	r15, Y+18	; 0x12
    19da:	0b 89       	ldd	r16, Y+19	; 0x13
    19dc:	1c 89       	ldd	r17, Y+20	; 0x14
    19de:	2d 89       	ldd	r18, Y+21	; 0x15
    19e0:	3e 89       	ldd	r19, Y+22	; 0x16
    19e2:	4f 89       	ldd	r20, Y+23	; 0x17
    19e4:	58 8d       	ldd	r21, Y+24	; 0x18
    19e6:	bc 01       	movw	r22, r24
    19e8:	cd 01       	movw	r24, r26
    19ea:	a2 d0       	rcall	.+324    	; 0x1b30 <fK>
    19ec:	0f 90       	pop	r0
    19ee:	0f 90       	pop	r0
    19f0:	0f 90       	pop	r0
    19f2:	0f 90       	pop	r0
    19f4:	dc 01       	movw	r26, r24
    19f6:	cb 01       	movw	r24, r22
    19f8:	8d 83       	std	Y+5, r24	; 0x05
    19fa:	9e 83       	std	Y+6, r25	; 0x06
    19fc:	af 83       	std	Y+7, r26	; 0x07
    19fe:	b8 87       	std	Y+8, r27	; 0x08
    1a00:	89 a5       	ldd	r24, Y+41	; 0x29
    1a02:	9a a5       	ldd	r25, Y+42	; 0x2a
    1a04:	ab a5       	ldd	r26, Y+43	; 0x2b
    1a06:	bc a5       	ldd	r27, Y+44	; 0x2c
    1a08:	2c 8d       	ldd	r18, Y+28	; 0x1c
    1a0a:	2f 93       	push	r18
    1a0c:	2b 8d       	ldd	r18, Y+27	; 0x1b
    1a0e:	2f 93       	push	r18
    1a10:	2a 8d       	ldd	r18, Y+26	; 0x1a
    1a12:	2f 93       	push	r18
    1a14:	29 8d       	ldd	r18, Y+25	; 0x19
    1a16:	2f 93       	push	r18
    1a18:	ad 84       	ldd	r10, Y+13	; 0x0d
    1a1a:	be 84       	ldd	r11, Y+14	; 0x0e
    1a1c:	cf 84       	ldd	r12, Y+15	; 0x0f
    1a1e:	d8 88       	ldd	r13, Y+16	; 0x10
    1a20:	e9 88       	ldd	r14, Y+17	; 0x11
    1a22:	fa 88       	ldd	r15, Y+18	; 0x12
    1a24:	0b 89       	ldd	r16, Y+19	; 0x13
    1a26:	1c 89       	ldd	r17, Y+20	; 0x14
    1a28:	2d 89       	ldd	r18, Y+21	; 0x15
    1a2a:	3e 89       	ldd	r19, Y+22	; 0x16
    1a2c:	4f 89       	ldd	r20, Y+23	; 0x17
    1a2e:	58 8d       	ldd	r21, Y+24	; 0x18
    1a30:	bc 01       	movw	r22, r24
    1a32:	cd 01       	movw	r24, r26
    1a34:	0a d1       	rcall	.+532    	; 0x1c4a <gK>
    1a36:	0f 90       	pop	r0
    1a38:	0f 90       	pop	r0
    1a3a:	0f 90       	pop	r0
    1a3c:	0f 90       	pop	r0
    1a3e:	dc 01       	movw	r26, r24
    1a40:	cb 01       	movw	r24, r22
    1a42:	89 87       	std	Y+9, r24	; 0x09
    1a44:	9a 87       	std	Y+10, r25	; 0x0a
    1a46:	ab 87       	std	Y+11, r26	; 0x0b
    1a48:	bc 87       	std	Y+12, r27	; 0x0c
    1a4a:	e9 84       	ldd	r14, Y+9	; 0x09
    1a4c:	fa 84       	ldd	r15, Y+10	; 0x0a
    1a4e:	0b 85       	ldd	r16, Y+11	; 0x0b
    1a50:	1c 85       	ldd	r17, Y+12	; 0x0c
    1a52:	2d 81       	ldd	r18, Y+5	; 0x05
    1a54:	3e 81       	ldd	r19, Y+6	; 0x06
    1a56:	4f 81       	ldd	r20, Y+7	; 0x07
    1a58:	58 85       	ldd	r21, Y+8	; 0x08
    1a5a:	89 81       	ldd	r24, Y+1	; 0x01
    1a5c:	9a 81       	ldd	r25, Y+2	; 0x02
    1a5e:	ab 81       	ldd	r26, Y+3	; 0x03
    1a60:	bc 81       	ldd	r27, Y+4	; 0x04
    1a62:	bc 01       	movw	r22, r24
    1a64:	cd 01       	movw	r24, r26
    1a66:	86 d1       	rcall	.+780    	; 0x1d74 <alphaK>
    1a68:	dc 01       	movw	r26, r24
    1a6a:	cb 01       	movw	r24, r22
    1a6c:	bc 01       	movw	r22, r24
    1a6e:	cd 01       	movw	r24, r26
    1a70:	6c 96       	adiw	r28, 0x1c	; 28
    1a72:	0f b6       	in	r0, 0x3f	; 63
    1a74:	f8 94       	cli
    1a76:	de bf       	out	0x3e, r29	; 62
    1a78:	0f be       	out	0x3f, r0	; 63
    1a7a:	cd bf       	out	0x3d, r28	; 61
    1a7c:	df 91       	pop	r29
    1a7e:	cf 91       	pop	r28
    1a80:	1f 91       	pop	r17
    1a82:	0f 91       	pop	r16
    1a84:	ff 90       	pop	r15
    1a86:	ef 90       	pop	r14
    1a88:	df 90       	pop	r13
    1a8a:	cf 90       	pop	r12
    1a8c:	bf 90       	pop	r11
    1a8e:	af 90       	pop	r10
    1a90:	08 95       	ret

00001a92 <eK>:
    1a92:	af 92       	push	r10
    1a94:	bf 92       	push	r11
    1a96:	cf 92       	push	r12
    1a98:	df 92       	push	r13
    1a9a:	ef 92       	push	r14
    1a9c:	ff 92       	push	r15
    1a9e:	0f 93       	push	r16
    1aa0:	1f 93       	push	r17
    1aa2:	cf 93       	push	r28
    1aa4:	df 93       	push	r29
    1aa6:	cd b7       	in	r28, 0x3d	; 61
    1aa8:	de b7       	in	r29, 0x3e	; 62
    1aaa:	60 97       	sbiw	r28, 0x10	; 16
    1aac:	0f b6       	in	r0, 0x3f	; 63
    1aae:	f8 94       	cli
    1ab0:	de bf       	out	0x3e, r29	; 62
    1ab2:	0f be       	out	0x3f, r0	; 63
    1ab4:	cd bf       	out	0x3d, r28	; 61
    1ab6:	69 83       	std	Y+1, r22	; 0x01
    1ab8:	7a 83       	std	Y+2, r23	; 0x02
    1aba:	8b 83       	std	Y+3, r24	; 0x03
    1abc:	9c 83       	std	Y+4, r25	; 0x04
    1abe:	ad 82       	std	Y+5, r10	; 0x05
    1ac0:	be 82       	std	Y+6, r11	; 0x06
    1ac2:	cf 82       	std	Y+7, r12	; 0x07
    1ac4:	d8 86       	std	Y+8, r13	; 0x08
    1ac6:	e9 86       	std	Y+9, r14	; 0x09
    1ac8:	fa 86       	std	Y+10, r15	; 0x0a
    1aca:	0b 87       	std	Y+11, r16	; 0x0b
    1acc:	1c 87       	std	Y+12, r17	; 0x0c
    1ace:	2d 87       	std	Y+13, r18	; 0x0d
    1ad0:	3e 87       	std	Y+14, r19	; 0x0e
    1ad2:	4f 87       	std	Y+15, r20	; 0x0f
    1ad4:	58 8b       	std	Y+16, r21	; 0x10
    1ad6:	89 81       	ldd	r24, Y+1	; 0x01
    1ad8:	9a 81       	ldd	r25, Y+2	; 0x02
    1ada:	ab 81       	ldd	r26, Y+3	; 0x03
    1adc:	bc 81       	ldd	r27, Y+4	; 0x04
    1ade:	9c 01       	movw	r18, r24
    1ae0:	ad 01       	movw	r20, r26
    1ae2:	bc 01       	movw	r22, r24
    1ae4:	cd 01       	movw	r24, r26
    1ae6:	0e 94 42 1c 	call	0x3884	; 0x3884 <__addsf3>
    1aea:	dc 01       	movw	r26, r24
    1aec:	cb 01       	movw	r24, r22
    1aee:	7c 01       	movw	r14, r24
    1af0:	8d 01       	movw	r16, r26
    1af2:	8d 85       	ldd	r24, Y+13	; 0x0d
    1af4:	9e 85       	ldd	r25, Y+14	; 0x0e
    1af6:	af 85       	ldd	r26, Y+15	; 0x0f
    1af8:	b8 89       	ldd	r27, Y+16	; 0x10
    1afa:	9c 01       	movw	r18, r24
    1afc:	ad 01       	movw	r20, r26
    1afe:	c8 01       	movw	r24, r16
    1b00:	b7 01       	movw	r22, r14
    1b02:	0e 94 9c 1e 	call	0x3d38	; 0x3d38 <__mulsf3>
    1b06:	dc 01       	movw	r26, r24
    1b08:	cb 01       	movw	r24, r22
    1b0a:	bc 01       	movw	r22, r24
    1b0c:	cd 01       	movw	r24, r26
    1b0e:	60 96       	adiw	r28, 0x10	; 16
    1b10:	0f b6       	in	r0, 0x3f	; 63
    1b12:	f8 94       	cli
    1b14:	de bf       	out	0x3e, r29	; 62
    1b16:	0f be       	out	0x3f, r0	; 63
    1b18:	cd bf       	out	0x3d, r28	; 61
    1b1a:	df 91       	pop	r29
    1b1c:	cf 91       	pop	r28
    1b1e:	1f 91       	pop	r17
    1b20:	0f 91       	pop	r16
    1b22:	ff 90       	pop	r15
    1b24:	ef 90       	pop	r14
    1b26:	df 90       	pop	r13
    1b28:	cf 90       	pop	r12
    1b2a:	bf 90       	pop	r11
    1b2c:	af 90       	pop	r10
    1b2e:	08 95       	ret

00001b30 <fK>:
    1b30:	4f 92       	push	r4
    1b32:	5f 92       	push	r5
    1b34:	6f 92       	push	r6
    1b36:	7f 92       	push	r7
    1b38:	8f 92       	push	r8
    1b3a:	9f 92       	push	r9
    1b3c:	af 92       	push	r10
    1b3e:	bf 92       	push	r11
    1b40:	cf 92       	push	r12
    1b42:	df 92       	push	r13
    1b44:	ef 92       	push	r14
    1b46:	ff 92       	push	r15
    1b48:	0f 93       	push	r16
    1b4a:	1f 93       	push	r17
    1b4c:	cf 93       	push	r28
    1b4e:	df 93       	push	r29
    1b50:	cd b7       	in	r28, 0x3d	; 61
    1b52:	de b7       	in	r29, 0x3e	; 62
    1b54:	60 97       	sbiw	r28, 0x10	; 16
    1b56:	0f b6       	in	r0, 0x3f	; 63
    1b58:	f8 94       	cli
    1b5a:	de bf       	out	0x3e, r29	; 62
    1b5c:	0f be       	out	0x3f, r0	; 63
    1b5e:	cd bf       	out	0x3d, r28	; 61
    1b60:	69 83       	std	Y+1, r22	; 0x01
    1b62:	7a 83       	std	Y+2, r23	; 0x02
    1b64:	8b 83       	std	Y+3, r24	; 0x03
    1b66:	9c 83       	std	Y+4, r25	; 0x04
    1b68:	ad 82       	std	Y+5, r10	; 0x05
    1b6a:	be 82       	std	Y+6, r11	; 0x06
    1b6c:	cf 82       	std	Y+7, r12	; 0x07
    1b6e:	d8 86       	std	Y+8, r13	; 0x08
    1b70:	e9 86       	std	Y+9, r14	; 0x09
    1b72:	fa 86       	std	Y+10, r15	; 0x0a
    1b74:	0b 87       	std	Y+11, r16	; 0x0b
    1b76:	1c 87       	std	Y+12, r17	; 0x0c
    1b78:	2d 87       	std	Y+13, r18	; 0x0d
    1b7a:	3e 87       	std	Y+14, r19	; 0x0e
    1b7c:	4f 87       	std	Y+15, r20	; 0x0f
    1b7e:	58 8b       	std	Y+16, r21	; 0x10
    1b80:	89 81       	ldd	r24, Y+1	; 0x01
    1b82:	9a 81       	ldd	r25, Y+2	; 0x02
    1b84:	ab 81       	ldd	r26, Y+3	; 0x03
    1b86:	bc 81       	ldd	r27, Y+4	; 0x04
    1b88:	9c 01       	movw	r18, r24
    1b8a:	ad 01       	movw	r20, r26
    1b8c:	bc 01       	movw	r22, r24
    1b8e:	cd 01       	movw	r24, r26
    1b90:	0e 94 42 1c 	call	0x3884	; 0x3884 <__addsf3>
    1b94:	dc 01       	movw	r26, r24
    1b96:	cb 01       	movw	r24, r22
    1b98:	6c 01       	movw	r12, r24
    1b9a:	7d 01       	movw	r14, r26
    1b9c:	8b a1       	ldd	r24, Y+35	; 0x23
    1b9e:	9c a1       	ldd	r25, Y+36	; 0x24
    1ba0:	ad a1       	ldd	r26, Y+37	; 0x25
    1ba2:	be a1       	ldd	r27, Y+38	; 0x26
    1ba4:	bc 01       	movw	r22, r24
    1ba6:	cd 01       	movw	r24, r26
    1ba8:	0e 94 1f 1d 	call	0x3a3e	; 0x3a3e <cos>
    1bac:	4b 01       	movw	r8, r22
    1bae:	5c 01       	movw	r10, r24
    1bb0:	8d 81       	ldd	r24, Y+5	; 0x05
    1bb2:	9e 81       	ldd	r25, Y+6	; 0x06
    1bb4:	af 81       	ldd	r26, Y+7	; 0x07
    1bb6:	b8 85       	ldd	r27, Y+8	; 0x08
    1bb8:	9c 01       	movw	r18, r24
    1bba:	ad 01       	movw	r20, r26
    1bbc:	c5 01       	movw	r24, r10
    1bbe:	b4 01       	movw	r22, r8
    1bc0:	0e 94 9c 1e 	call	0x3d38	; 0x3d38 <__mulsf3>
    1bc4:	dc 01       	movw	r26, r24
    1bc6:	cb 01       	movw	r24, r22
    1bc8:	4c 01       	movw	r8, r24
    1bca:	5d 01       	movw	r10, r26
    1bcc:	8b a1       	ldd	r24, Y+35	; 0x23
    1bce:	9c a1       	ldd	r25, Y+36	; 0x24
    1bd0:	ad a1       	ldd	r26, Y+37	; 0x25
    1bd2:	be a1       	ldd	r27, Y+38	; 0x26
    1bd4:	bc 01       	movw	r22, r24
    1bd6:	cd 01       	movw	r24, r26
    1bd8:	0e 94 ff 1e 	call	0x3dfe	; 0x3dfe <sin>
    1bdc:	2b 01       	movw	r4, r22
    1bde:	3c 01       	movw	r6, r24
    1be0:	89 85       	ldd	r24, Y+9	; 0x09
    1be2:	9a 85       	ldd	r25, Y+10	; 0x0a
    1be4:	ab 85       	ldd	r26, Y+11	; 0x0b
    1be6:	bc 85       	ldd	r27, Y+12	; 0x0c
    1be8:	9c 01       	movw	r18, r24
    1bea:	ad 01       	movw	r20, r26
    1bec:	c3 01       	movw	r24, r6
    1bee:	b2 01       	movw	r22, r4
    1bf0:	0e 94 9c 1e 	call	0x3d38	; 0x3d38 <__mulsf3>
    1bf4:	dc 01       	movw	r26, r24
    1bf6:	cb 01       	movw	r24, r22
    1bf8:	9c 01       	movw	r18, r24
    1bfa:	ad 01       	movw	r20, r26
    1bfc:	c5 01       	movw	r24, r10
    1bfe:	b4 01       	movw	r22, r8
    1c00:	0e 94 42 1c 	call	0x3884	; 0x3884 <__addsf3>
    1c04:	dc 01       	movw	r26, r24
    1c06:	cb 01       	movw	r24, r22
    1c08:	9c 01       	movw	r18, r24
    1c0a:	ad 01       	movw	r20, r26
    1c0c:	c7 01       	movw	r24, r14
    1c0e:	b6 01       	movw	r22, r12
    1c10:	0e 94 9c 1e 	call	0x3d38	; 0x3d38 <__mulsf3>
    1c14:	dc 01       	movw	r26, r24
    1c16:	cb 01       	movw	r24, r22
    1c18:	bc 01       	movw	r22, r24
    1c1a:	cd 01       	movw	r24, r26
    1c1c:	60 96       	adiw	r28, 0x10	; 16
    1c1e:	0f b6       	in	r0, 0x3f	; 63
    1c20:	f8 94       	cli
    1c22:	de bf       	out	0x3e, r29	; 62
    1c24:	0f be       	out	0x3f, r0	; 63
    1c26:	cd bf       	out	0x3d, r28	; 61
    1c28:	df 91       	pop	r29
    1c2a:	cf 91       	pop	r28
    1c2c:	1f 91       	pop	r17
    1c2e:	0f 91       	pop	r16
    1c30:	ff 90       	pop	r15
    1c32:	ef 90       	pop	r14
    1c34:	df 90       	pop	r13
    1c36:	cf 90       	pop	r12
    1c38:	bf 90       	pop	r11
    1c3a:	af 90       	pop	r10
    1c3c:	9f 90       	pop	r9
    1c3e:	8f 90       	pop	r8
    1c40:	7f 90       	pop	r7
    1c42:	6f 90       	pop	r6
    1c44:	5f 90       	pop	r5
    1c46:	4f 90       	pop	r4
    1c48:	08 95       	ret

00001c4a <gK>:
    1c4a:	af 92       	push	r10
    1c4c:	bf 92       	push	r11
    1c4e:	cf 92       	push	r12
    1c50:	df 92       	push	r13
    1c52:	ef 92       	push	r14
    1c54:	ff 92       	push	r15
    1c56:	0f 93       	push	r16
    1c58:	1f 93       	push	r17
    1c5a:	cf 93       	push	r28
    1c5c:	df 93       	push	r29
    1c5e:	cd b7       	in	r28, 0x3d	; 61
    1c60:	de b7       	in	r29, 0x3e	; 62
    1c62:	6c 97       	sbiw	r28, 0x1c	; 28
    1c64:	0f b6       	in	r0, 0x3f	; 63
    1c66:	f8 94       	cli
    1c68:	de bf       	out	0x3e, r29	; 62
    1c6a:	0f be       	out	0x3f, r0	; 63
    1c6c:	cd bf       	out	0x3d, r28	; 61
    1c6e:	6d 87       	std	Y+13, r22	; 0x0d
    1c70:	7e 87       	std	Y+14, r23	; 0x0e
    1c72:	8f 87       	std	Y+15, r24	; 0x0f
    1c74:	98 8b       	std	Y+16, r25	; 0x10
    1c76:	a9 8a       	std	Y+17, r10	; 0x11
    1c78:	ba 8a       	std	Y+18, r11	; 0x12
    1c7a:	cb 8a       	std	Y+19, r12	; 0x13
    1c7c:	dc 8a       	std	Y+20, r13	; 0x14
    1c7e:	ed 8a       	std	Y+21, r14	; 0x15
    1c80:	fe 8a       	std	Y+22, r15	; 0x16
    1c82:	0f 8b       	std	Y+23, r16	; 0x17
    1c84:	18 8f       	std	Y+24, r17	; 0x18
    1c86:	29 8f       	std	Y+25, r18	; 0x19
    1c88:	3a 8f       	std	Y+26, r19	; 0x1a
    1c8a:	4b 8f       	std	Y+27, r20	; 0x1b
    1c8c:	5c 8f       	std	Y+28, r21	; 0x1c
    1c8e:	e9 88       	ldd	r14, Y+17	; 0x11
    1c90:	fa 88       	ldd	r15, Y+18	; 0x12
    1c92:	0b 89       	ldd	r16, Y+19	; 0x13
    1c94:	1c 89       	ldd	r17, Y+20	; 0x14
    1c96:	2d 89       	ldd	r18, Y+21	; 0x15
    1c98:	3e 89       	ldd	r19, Y+22	; 0x16
    1c9a:	4f 89       	ldd	r20, Y+23	; 0x17
    1c9c:	58 8d       	ldd	r21, Y+24	; 0x18
    1c9e:	69 8d       	ldd	r22, Y+25	; 0x19
    1ca0:	7a 8d       	ldd	r23, Y+26	; 0x1a
    1ca2:	8b 8d       	ldd	r24, Y+27	; 0x1b
    1ca4:	9c 8d       	ldd	r25, Y+28	; 0x1c
    1ca6:	f6 d7       	rcall	.+4076   	; 0x2c94 <magnitude>
    1ca8:	5b 01       	movw	r10, r22
    1caa:	6c 01       	movw	r12, r24
    1cac:	e9 88       	ldd	r14, Y+17	; 0x11
    1cae:	fa 88       	ldd	r15, Y+18	; 0x12
    1cb0:	0b 89       	ldd	r16, Y+19	; 0x13
    1cb2:	1c 89       	ldd	r17, Y+20	; 0x14
    1cb4:	2d 89       	ldd	r18, Y+21	; 0x15
    1cb6:	3e 89       	ldd	r19, Y+22	; 0x16
    1cb8:	4f 89       	ldd	r20, Y+23	; 0x17
    1cba:	58 8d       	ldd	r21, Y+24	; 0x18
    1cbc:	69 8d       	ldd	r22, Y+25	; 0x19
    1cbe:	7a 8d       	ldd	r23, Y+26	; 0x1a
    1cc0:	8b 8d       	ldd	r24, Y+27	; 0x1b
    1cc2:	9c 8d       	ldd	r25, Y+28	; 0x1c
    1cc4:	e7 d7       	rcall	.+4046   	; 0x2c94 <magnitude>
    1cc6:	dc 01       	movw	r26, r24
    1cc8:	cb 01       	movw	r24, r22
    1cca:	9c 01       	movw	r18, r24
    1ccc:	ad 01       	movw	r20, r26
    1cce:	c6 01       	movw	r24, r12
    1cd0:	b5 01       	movw	r22, r10
    1cd2:	0e 94 9c 1e 	call	0x3d38	; 0x3d38 <__mulsf3>
    1cd6:	dc 01       	movw	r26, r24
    1cd8:	cb 01       	movw	r24, r22
    1cda:	89 83       	std	Y+1, r24	; 0x01
    1cdc:	9a 83       	std	Y+2, r25	; 0x02
    1cde:	ab 83       	std	Y+3, r26	; 0x03
    1ce0:	bc 83       	std	Y+4, r27	; 0x04
    1ce2:	29 a5       	ldd	r18, Y+41	; 0x29
    1ce4:	3a a5       	ldd	r19, Y+42	; 0x2a
    1ce6:	4b a5       	ldd	r20, Y+43	; 0x2b
    1ce8:	5c a5       	ldd	r21, Y+44	; 0x2c
    1cea:	69 a5       	ldd	r22, Y+41	; 0x29
    1cec:	7a a5       	ldd	r23, Y+42	; 0x2a
    1cee:	8b a5       	ldd	r24, Y+43	; 0x2b
    1cf0:	9c a5       	ldd	r25, Y+44	; 0x2c
    1cf2:	0e 94 9c 1e 	call	0x3d38	; 0x3d38 <__mulsf3>
    1cf6:	dc 01       	movw	r26, r24
    1cf8:	cb 01       	movw	r24, r22
    1cfa:	8d 83       	std	Y+5, r24	; 0x05
    1cfc:	9e 83       	std	Y+6, r25	; 0x06
    1cfe:	af 83       	std	Y+7, r26	; 0x07
    1d00:	b8 87       	std	Y+8, r27	; 0x08
    1d02:	2d 85       	ldd	r18, Y+13	; 0x0d
    1d04:	3e 85       	ldd	r19, Y+14	; 0x0e
    1d06:	4f 85       	ldd	r20, Y+15	; 0x0f
    1d08:	58 89       	ldd	r21, Y+16	; 0x10
    1d0a:	6d 85       	ldd	r22, Y+13	; 0x0d
    1d0c:	7e 85       	ldd	r23, Y+14	; 0x0e
    1d0e:	8f 85       	ldd	r24, Y+15	; 0x0f
    1d10:	98 89       	ldd	r25, Y+16	; 0x10
    1d12:	0e 94 9c 1e 	call	0x3d38	; 0x3d38 <__mulsf3>
    1d16:	dc 01       	movw	r26, r24
    1d18:	cb 01       	movw	r24, r22
    1d1a:	89 87       	std	Y+9, r24	; 0x09
    1d1c:	9a 87       	std	Y+10, r25	; 0x0a
    1d1e:	ab 87       	std	Y+11, r26	; 0x0b
    1d20:	bc 87       	std	Y+12, r27	; 0x0c
    1d22:	29 85       	ldd	r18, Y+9	; 0x09
    1d24:	3a 85       	ldd	r19, Y+10	; 0x0a
    1d26:	4b 85       	ldd	r20, Y+11	; 0x0b
    1d28:	5c 85       	ldd	r21, Y+12	; 0x0c
    1d2a:	6d 81       	ldd	r22, Y+5	; 0x05
    1d2c:	7e 81       	ldd	r23, Y+6	; 0x06
    1d2e:	8f 81       	ldd	r24, Y+7	; 0x07
    1d30:	98 85       	ldd	r25, Y+8	; 0x08
    1d32:	0e 94 41 1c 	call	0x3882	; 0x3882 <__subsf3>
    1d36:	dc 01       	movw	r26, r24
    1d38:	cb 01       	movw	r24, r22
    1d3a:	9c 01       	movw	r18, r24
    1d3c:	ad 01       	movw	r20, r26
    1d3e:	69 81       	ldd	r22, Y+1	; 0x01
    1d40:	7a 81       	ldd	r23, Y+2	; 0x02
    1d42:	8b 81       	ldd	r24, Y+3	; 0x03
    1d44:	9c 81       	ldd	r25, Y+4	; 0x04
    1d46:	0e 94 41 1c 	call	0x3882	; 0x3882 <__subsf3>
    1d4a:	dc 01       	movw	r26, r24
    1d4c:	cb 01       	movw	r24, r22
    1d4e:	bc 01       	movw	r22, r24
    1d50:	cd 01       	movw	r24, r26
    1d52:	6c 96       	adiw	r28, 0x1c	; 28
    1d54:	0f b6       	in	r0, 0x3f	; 63
    1d56:	f8 94       	cli
    1d58:	de bf       	out	0x3e, r29	; 62
    1d5a:	0f be       	out	0x3f, r0	; 63
    1d5c:	cd bf       	out	0x3d, r28	; 61
    1d5e:	df 91       	pop	r29
    1d60:	cf 91       	pop	r28
    1d62:	1f 91       	pop	r17
    1d64:	0f 91       	pop	r16
    1d66:	ff 90       	pop	r15
    1d68:	ef 90       	pop	r14
    1d6a:	df 90       	pop	r13
    1d6c:	cf 90       	pop	r12
    1d6e:	bf 90       	pop	r11
    1d70:	af 90       	pop	r10
    1d72:	08 95       	ret

00001d74 <alphaK>:
    1d74:	cf 92       	push	r12
    1d76:	df 92       	push	r13
    1d78:	ef 92       	push	r14
    1d7a:	ff 92       	push	r15
    1d7c:	0f 93       	push	r16
    1d7e:	1f 93       	push	r17
    1d80:	cf 93       	push	r28
    1d82:	df 93       	push	r29
    1d84:	cd b7       	in	r28, 0x3d	; 61
    1d86:	de b7       	in	r29, 0x3e	; 62
    1d88:	60 97       	sbiw	r28, 0x10	; 16
    1d8a:	0f b6       	in	r0, 0x3f	; 63
    1d8c:	f8 94       	cli
    1d8e:	de bf       	out	0x3e, r29	; 62
    1d90:	0f be       	out	0x3f, r0	; 63
    1d92:	cd bf       	out	0x3d, r28	; 61
    1d94:	6d 83       	std	Y+5, r22	; 0x05
    1d96:	7e 83       	std	Y+6, r23	; 0x06
    1d98:	8f 83       	std	Y+7, r24	; 0x07
    1d9a:	98 87       	std	Y+8, r25	; 0x08
    1d9c:	29 87       	std	Y+9, r18	; 0x09
    1d9e:	3a 87       	std	Y+10, r19	; 0x0a
    1da0:	4b 87       	std	Y+11, r20	; 0x0b
    1da2:	5c 87       	std	Y+12, r21	; 0x0c
    1da4:	ed 86       	std	Y+13, r14	; 0x0d
    1da6:	fe 86       	std	Y+14, r15	; 0x0e
    1da8:	0f 87       	std	Y+15, r16	; 0x0f
    1daa:	18 8b       	std	Y+16, r17	; 0x10
    1dac:	2d 81       	ldd	r18, Y+5	; 0x05
    1dae:	3e 81       	ldd	r19, Y+6	; 0x06
    1db0:	4f 81       	ldd	r20, Y+7	; 0x07
    1db2:	58 85       	ldd	r21, Y+8	; 0x08
    1db4:	6d 81       	ldd	r22, Y+5	; 0x05
    1db6:	7e 81       	ldd	r23, Y+6	; 0x06
    1db8:	8f 81       	ldd	r24, Y+7	; 0x07
    1dba:	98 85       	ldd	r25, Y+8	; 0x08
    1dbc:	0e 94 9c 1e 	call	0x3d38	; 0x3d38 <__mulsf3>
    1dc0:	dc 01       	movw	r26, r24
    1dc2:	cb 01       	movw	r24, r22
    1dc4:	6c 01       	movw	r12, r24
    1dc6:	7d 01       	movw	r14, r26
    1dc8:	29 85       	ldd	r18, Y+9	; 0x09
    1dca:	3a 85       	ldd	r19, Y+10	; 0x0a
    1dcc:	4b 85       	ldd	r20, Y+11	; 0x0b
    1dce:	5c 85       	ldd	r21, Y+12	; 0x0c
    1dd0:	69 85       	ldd	r22, Y+9	; 0x09
    1dd2:	7a 85       	ldd	r23, Y+10	; 0x0a
    1dd4:	8b 85       	ldd	r24, Y+11	; 0x0b
    1dd6:	9c 85       	ldd	r25, Y+12	; 0x0c
    1dd8:	0e 94 9c 1e 	call	0x3d38	; 0x3d38 <__mulsf3>
    1ddc:	dc 01       	movw	r26, r24
    1dde:	cb 01       	movw	r24, r22
    1de0:	9c 01       	movw	r18, r24
    1de2:	ad 01       	movw	r20, r26
    1de4:	c7 01       	movw	r24, r14
    1de6:	b6 01       	movw	r22, r12
    1de8:	0e 94 42 1c 	call	0x3884	; 0x3884 <__addsf3>
    1dec:	dc 01       	movw	r26, r24
    1dee:	cb 01       	movw	r24, r22
    1df0:	bc 01       	movw	r22, r24
    1df2:	cd 01       	movw	r24, r26
    1df4:	0e 94 09 1f 	call	0x3e12	; 0x3e12 <sqrt>
    1df8:	dc 01       	movw	r26, r24
    1dfa:	cb 01       	movw	r24, r22
    1dfc:	9c 01       	movw	r18, r24
    1dfe:	ad 01       	movw	r20, r26
    1e00:	6d 85       	ldd	r22, Y+13	; 0x0d
    1e02:	7e 85       	ldd	r23, Y+14	; 0x0e
    1e04:	8f 85       	ldd	r24, Y+15	; 0x0f
    1e06:	98 89       	ldd	r25, Y+16	; 0x10
    1e08:	0e 94 22 1d 	call	0x3a44	; 0x3a44 <__divsf3>
    1e0c:	dc 01       	movw	r26, r24
    1e0e:	cb 01       	movw	r24, r22
    1e10:	bc 01       	movw	r22, r24
    1e12:	cd 01       	movw	r24, r26
    1e14:	0e 94 a6 1c 	call	0x394c	; 0x394c <asin>
    1e18:	6b 01       	movw	r12, r22
    1e1a:	7c 01       	movw	r14, r24
    1e1c:	2d 81       	ldd	r18, Y+5	; 0x05
    1e1e:	3e 81       	ldd	r19, Y+6	; 0x06
    1e20:	4f 81       	ldd	r20, Y+7	; 0x07
    1e22:	58 85       	ldd	r21, Y+8	; 0x08
    1e24:	89 85       	ldd	r24, Y+9	; 0x09
    1e26:	9a 85       	ldd	r25, Y+10	; 0x0a
    1e28:	ab 85       	ldd	r26, Y+11	; 0x0b
    1e2a:	bc 85       	ldd	r27, Y+12	; 0x0c
    1e2c:	bc 01       	movw	r22, r24
    1e2e:	cd 01       	movw	r24, r26
    1e30:	0e 94 cc 1c 	call	0x3998	; 0x3998 <atan2>
    1e34:	dc 01       	movw	r26, r24
    1e36:	cb 01       	movw	r24, r22
    1e38:	9c 01       	movw	r18, r24
    1e3a:	ad 01       	movw	r20, r26
    1e3c:	c7 01       	movw	r24, r14
    1e3e:	b6 01       	movw	r22, r12
    1e40:	0e 94 41 1c 	call	0x3882	; 0x3882 <__subsf3>
    1e44:	dc 01       	movw	r26, r24
    1e46:	cb 01       	movw	r24, r22
    1e48:	89 83       	std	Y+1, r24	; 0x01
    1e4a:	9a 83       	std	Y+2, r25	; 0x02
    1e4c:	ab 83       	std	Y+3, r26	; 0x03
    1e4e:	bc 83       	std	Y+4, r27	; 0x04
    1e50:	89 81       	ldd	r24, Y+1	; 0x01
    1e52:	9a 81       	ldd	r25, Y+2	; 0x02
    1e54:	ab 81       	ldd	r26, Y+3	; 0x03
    1e56:	bc 81       	ldd	r27, Y+4	; 0x04
    1e58:	bc 01       	movw	r22, r24
    1e5a:	cd 01       	movw	r24, r26
    1e5c:	60 96       	adiw	r28, 0x10	; 16
    1e5e:	0f b6       	in	r0, 0x3f	; 63
    1e60:	f8 94       	cli
    1e62:	de bf       	out	0x3e, r29	; 62
    1e64:	0f be       	out	0x3f, r0	; 63
    1e66:	cd bf       	out	0x3d, r28	; 61
    1e68:	df 91       	pop	r29
    1e6a:	cf 91       	pop	r28
    1e6c:	1f 91       	pop	r17
    1e6e:	0f 91       	pop	r16
    1e70:	ff 90       	pop	r15
    1e72:	ef 90       	pop	r14
    1e74:	df 90       	pop	r13
    1e76:	cf 90       	pop	r12
    1e78:	08 95       	ret

00001e7a <calcEffectiveRodLength>:
    1e7a:	af 92       	push	r10
    1e7c:	bf 92       	push	r11
    1e7e:	cf 92       	push	r12
    1e80:	df 92       	push	r13
    1e82:	ef 92       	push	r14
    1e84:	ff 92       	push	r15
    1e86:	0f 93       	push	r16
    1e88:	1f 93       	push	r17
    1e8a:	cf 93       	push	r28
    1e8c:	df 93       	push	r29
    1e8e:	cd b7       	in	r28, 0x3d	; 61
    1e90:	de b7       	in	r29, 0x3e	; 62
    1e92:	a6 97       	sbiw	r28, 0x26	; 38
    1e94:	0f b6       	in	r0, 0x3f	; 63
    1e96:	f8 94       	cli
    1e98:	de bf       	out	0x3e, r29	; 62
    1e9a:	0f be       	out	0x3f, r0	; 63
    1e9c:	cd bf       	out	0x3d, r28	; 61
    1e9e:	9a 8f       	std	Y+26, r25	; 0x1a
    1ea0:	89 8f       	std	Y+25, r24	; 0x19
    1ea2:	cb 8e       	std	Y+27, r12	; 0x1b
    1ea4:	dc 8e       	std	Y+28, r13	; 0x1c
    1ea6:	ed 8e       	std	Y+29, r14	; 0x1d
    1ea8:	fe 8e       	std	Y+30, r15	; 0x1e
    1eaa:	0f 8f       	std	Y+31, r16	; 0x1f
    1eac:	18 a3       	std	Y+32, r17	; 0x20
    1eae:	29 a3       	std	Y+33, r18	; 0x21
    1eb0:	3a a3       	std	Y+34, r19	; 0x22
    1eb2:	4b a3       	std	Y+35, r20	; 0x23
    1eb4:	5c a3       	std	Y+36, r21	; 0x24
    1eb6:	6d a3       	std	Y+37, r22	; 0x25
    1eb8:	7e a3       	std	Y+38, r23	; 0x26
    1eba:	5e 01       	movw	r10, r28
    1ebc:	8d e0       	ldi	r24, 0x0D	; 13
    1ebe:	a8 0e       	add	r10, r24
    1ec0:	b1 1c       	adc	r11, r1
    1ec2:	8d b7       	in	r24, 0x3d	; 61
    1ec4:	9e b7       	in	r25, 0x3e	; 62
    1ec6:	40 97       	sbiw	r24, 0x10	; 16
    1ec8:	0f b6       	in	r0, 0x3f	; 63
    1eca:	f8 94       	cli
    1ecc:	9e bf       	out	0x3e, r25	; 62
    1ece:	0f be       	out	0x3f, r0	; 63
    1ed0:	8d bf       	out	0x3d, r24	; 61
    1ed2:	8d b7       	in	r24, 0x3d	; 61
    1ed4:	9e b7       	in	r25, 0x3e	; 62
    1ed6:	01 96       	adiw	r24, 0x01	; 1
    1ed8:	20 e1       	ldi	r18, 0x10	; 16
    1eda:	fe 01       	movw	r30, r28
    1edc:	f3 96       	adiw	r30, 0x33	; 51
    1ede:	dc 01       	movw	r26, r24
    1ee0:	01 90       	ld	r0, Z+
    1ee2:	0d 92       	st	X+, r0
    1ee4:	2a 95       	dec	r18
    1ee6:	e1 f7       	brne	.-8      	; 0x1ee0 <calcEffectiveRodLength+0x66>
    1ee8:	60 96       	adiw	r28, 0x10	; 16
    1eea:	cf ac       	ldd	r12, Y+63	; 0x3f
    1eec:	60 97       	sbiw	r28, 0x10	; 16
    1eee:	61 96       	adiw	r28, 0x11	; 17
    1ef0:	df ac       	ldd	r13, Y+63	; 0x3f
    1ef2:	61 97       	sbiw	r28, 0x11	; 17
    1ef4:	62 96       	adiw	r28, 0x12	; 18
    1ef6:	ef ac       	ldd	r14, Y+63	; 0x3f
    1ef8:	62 97       	sbiw	r28, 0x12	; 18
    1efa:	63 96       	adiw	r28, 0x13	; 19
    1efc:	ff ac       	ldd	r15, Y+63	; 0x3f
    1efe:	63 97       	sbiw	r28, 0x13	; 19
    1f00:	64 96       	adiw	r28, 0x14	; 20
    1f02:	0f ad       	ldd	r16, Y+63	; 0x3f
    1f04:	64 97       	sbiw	r28, 0x14	; 20
    1f06:	65 96       	adiw	r28, 0x15	; 21
    1f08:	1f ad       	ldd	r17, Y+63	; 0x3f
    1f0a:	65 97       	sbiw	r28, 0x15	; 21
    1f0c:	66 96       	adiw	r28, 0x16	; 22
    1f0e:	2f ad       	ldd	r18, Y+63	; 0x3f
    1f10:	66 97       	sbiw	r28, 0x16	; 22
    1f12:	67 96       	adiw	r28, 0x17	; 23
    1f14:	3f ad       	ldd	r19, Y+63	; 0x3f
    1f16:	67 97       	sbiw	r28, 0x17	; 23
    1f18:	68 96       	adiw	r28, 0x18	; 24
    1f1a:	4f ad       	ldd	r20, Y+63	; 0x3f
    1f1c:	68 97       	sbiw	r28, 0x18	; 24
    1f1e:	69 96       	adiw	r28, 0x19	; 25
    1f20:	5f ad       	ldd	r21, Y+63	; 0x3f
    1f22:	69 97       	sbiw	r28, 0x19	; 25
    1f24:	6a 96       	adiw	r28, 0x1a	; 26
    1f26:	6f ad       	ldd	r22, Y+63	; 0x3f
    1f28:	6a 97       	sbiw	r28, 0x1a	; 26
    1f2a:	6b 96       	adiw	r28, 0x1b	; 27
    1f2c:	7f ad       	ldd	r23, Y+63	; 0x3f
    1f2e:	6b 97       	sbiw	r28, 0x1b	; 27
    1f30:	c5 01       	movw	r24, r10
    1f32:	0d d7       	rcall	.+3610   	; 0x2d4e <rotate>
    1f34:	8d b7       	in	r24, 0x3d	; 61
    1f36:	9e b7       	in	r25, 0x3e	; 62
    1f38:	40 96       	adiw	r24, 0x10	; 16
    1f3a:	0f b6       	in	r0, 0x3f	; 63
    1f3c:	f8 94       	cli
    1f3e:	de bf       	out	0x3e, r29	; 62
    1f40:	0f be       	out	0x3f, r0	; 63
    1f42:	cd bf       	out	0x3d, r28	; 61
    1f44:	8d b7       	in	r24, 0x3d	; 61
    1f46:	9e b7       	in	r25, 0x3e	; 62
    1f48:	0c 97       	sbiw	r24, 0x0c	; 12
    1f4a:	0f b6       	in	r0, 0x3f	; 63
    1f4c:	f8 94       	cli
    1f4e:	9e bf       	out	0x3e, r25	; 62
    1f50:	0f be       	out	0x3f, r0	; 63
    1f52:	8d bf       	out	0x3d, r24	; 61
    1f54:	8d b7       	in	r24, 0x3d	; 61
    1f56:	9e b7       	in	r25, 0x3e	; 62
    1f58:	01 96       	adiw	r24, 0x01	; 1
    1f5a:	2c e0       	ldi	r18, 0x0C	; 12
    1f5c:	fe 01       	movw	r30, r28
    1f5e:	3d 96       	adiw	r30, 0x0d	; 13
    1f60:	dc 01       	movw	r26, r24
    1f62:	01 90       	ld	r0, Z+
    1f64:	0d 92       	st	X+, r0
    1f66:	2a 95       	dec	r18
    1f68:	e1 f7       	brne	.-8      	; 0x1f62 <calcEffectiveRodLength+0xe8>
    1f6a:	cb 8c       	ldd	r12, Y+27	; 0x1b
    1f6c:	dc 8c       	ldd	r13, Y+28	; 0x1c
    1f6e:	ed 8c       	ldd	r14, Y+29	; 0x1d
    1f70:	fe 8c       	ldd	r15, Y+30	; 0x1e
    1f72:	0f 8d       	ldd	r16, Y+31	; 0x1f
    1f74:	18 a1       	ldd	r17, Y+32	; 0x20
    1f76:	29 a1       	ldd	r18, Y+33	; 0x21
    1f78:	3a a1       	ldd	r19, Y+34	; 0x22
    1f7a:	4b a1       	ldd	r20, Y+35	; 0x23
    1f7c:	5c a1       	ldd	r21, Y+36	; 0x24
    1f7e:	6d a1       	ldd	r22, Y+37	; 0x25
    1f80:	7e a1       	ldd	r23, Y+38	; 0x26
    1f82:	ce 01       	movw	r24, r28
    1f84:	01 96       	adiw	r24, 0x01	; 1
    1f86:	34 d5       	rcall	.+2664   	; 0x29f0 <add>
    1f88:	8d b7       	in	r24, 0x3d	; 61
    1f8a:	9e b7       	in	r25, 0x3e	; 62
    1f8c:	0c 96       	adiw	r24, 0x0c	; 12
    1f8e:	0f b6       	in	r0, 0x3f	; 63
    1f90:	f8 94       	cli
    1f92:	de bf       	out	0x3e, r29	; 62
    1f94:	0f be       	out	0x3f, r0	; 63
    1f96:	cd bf       	out	0x3d, r28	; 61
    1f98:	a9 8c       	ldd	r10, Y+25	; 0x19
    1f9a:	ba 8c       	ldd	r11, Y+26	; 0x1a
    1f9c:	8d b7       	in	r24, 0x3d	; 61
    1f9e:	9e b7       	in	r25, 0x3e	; 62
    1fa0:	0c 97       	sbiw	r24, 0x0c	; 12
    1fa2:	0f b6       	in	r0, 0x3f	; 63
    1fa4:	f8 94       	cli
    1fa6:	9e bf       	out	0x3e, r25	; 62
    1fa8:	0f be       	out	0x3f, r0	; 63
    1faa:	8d bf       	out	0x3d, r24	; 61
    1fac:	8d b7       	in	r24, 0x3d	; 61
    1fae:	9e b7       	in	r25, 0x3e	; 62
    1fb0:	01 96       	adiw	r24, 0x01	; 1
    1fb2:	2c e0       	ldi	r18, 0x0C	; 12
    1fb4:	fe 01       	movw	r30, r28
    1fb6:	ed 5b       	subi	r30, 0xBD	; 189
    1fb8:	ff 4f       	sbci	r31, 0xFF	; 255
    1fba:	dc 01       	movw	r26, r24
    1fbc:	01 90       	ld	r0, Z+
    1fbe:	0d 92       	st	X+, r0
    1fc0:	2a 95       	dec	r18
    1fc2:	e1 f7       	brne	.-8      	; 0x1fbc <calcEffectiveRodLength+0x142>
    1fc4:	c9 80       	ldd	r12, Y+1	; 0x01
    1fc6:	da 80       	ldd	r13, Y+2	; 0x02
    1fc8:	eb 80       	ldd	r14, Y+3	; 0x03
    1fca:	fc 80       	ldd	r15, Y+4	; 0x04
    1fcc:	0d 81       	ldd	r16, Y+5	; 0x05
    1fce:	1e 81       	ldd	r17, Y+6	; 0x06
    1fd0:	2f 81       	ldd	r18, Y+7	; 0x07
    1fd2:	38 85       	ldd	r19, Y+8	; 0x08
    1fd4:	49 85       	ldd	r20, Y+9	; 0x09
    1fd6:	5a 85       	ldd	r21, Y+10	; 0x0a
    1fd8:	6b 85       	ldd	r22, Y+11	; 0x0b
    1fda:	7c 85       	ldd	r23, Y+12	; 0x0c
    1fdc:	c5 01       	movw	r24, r10
    1fde:	76 d5       	rcall	.+2796   	; 0x2acc <subtract>
    1fe0:	8d b7       	in	r24, 0x3d	; 61
    1fe2:	9e b7       	in	r25, 0x3e	; 62
    1fe4:	0c 96       	adiw	r24, 0x0c	; 12
    1fe6:	0f b6       	in	r0, 0x3f	; 63
    1fe8:	f8 94       	cli
    1fea:	de bf       	out	0x3e, r29	; 62
    1fec:	0f be       	out	0x3f, r0	; 63
    1fee:	cd bf       	out	0x3d, r28	; 61
    1ff0:	89 8d       	ldd	r24, Y+25	; 0x19
    1ff2:	9a 8d       	ldd	r25, Y+26	; 0x1a
    1ff4:	a6 96       	adiw	r28, 0x26	; 38
    1ff6:	0f b6       	in	r0, 0x3f	; 63
    1ff8:	f8 94       	cli
    1ffa:	de bf       	out	0x3e, r29	; 62
    1ffc:	0f be       	out	0x3f, r0	; 63
    1ffe:	cd bf       	out	0x3d, r28	; 61
    2000:	df 91       	pop	r29
    2002:	cf 91       	pop	r28
    2004:	1f 91       	pop	r17
    2006:	0f 91       	pop	r16
    2008:	ff 90       	pop	r15
    200a:	ef 90       	pop	r14
    200c:	df 90       	pop	r13
    200e:	cf 90       	pop	r12
    2010:	bf 90       	pop	r11
    2012:	af 90       	pop	r10
    2014:	08 95       	ret

00002016 <convVecToQuat>:
    2016:	cf 92       	push	r12
    2018:	df 92       	push	r13
    201a:	ef 92       	push	r14
    201c:	ff 92       	push	r15
    201e:	0f 93       	push	r16
    2020:	1f 93       	push	r17
    2022:	cf 93       	push	r28
    2024:	df 93       	push	r29
    2026:	cd b7       	in	r28, 0x3d	; 61
    2028:	de b7       	in	r29, 0x3e	; 62
    202a:	6e 97       	sbiw	r28, 0x1e	; 30
    202c:	0f b6       	in	r0, 0x3f	; 63
    202e:	f8 94       	cli
    2030:	de bf       	out	0x3e, r29	; 62
    2032:	0f be       	out	0x3f, r0	; 63
    2034:	cd bf       	out	0x3d, r28	; 61
    2036:	9a 8b       	std	Y+18, r25	; 0x12
    2038:	89 8b       	std	Y+17, r24	; 0x11
    203a:	cb 8a       	std	Y+19, r12	; 0x13
    203c:	dc 8a       	std	Y+20, r13	; 0x14
    203e:	ed 8a       	std	Y+21, r14	; 0x15
    2040:	fe 8a       	std	Y+22, r15	; 0x16
    2042:	0f 8b       	std	Y+23, r16	; 0x17
    2044:	18 8f       	std	Y+24, r17	; 0x18
    2046:	29 8f       	std	Y+25, r18	; 0x19
    2048:	3a 8f       	std	Y+26, r19	; 0x1a
    204a:	4b 8f       	std	Y+27, r20	; 0x1b
    204c:	5c 8f       	std	Y+28, r21	; 0x1c
    204e:	6d 8f       	std	Y+29, r22	; 0x1d
    2050:	7e 8f       	std	Y+30, r23	; 0x1e
    2052:	19 82       	std	Y+1, r1	; 0x01
    2054:	1a 82       	std	Y+2, r1	; 0x02
    2056:	1b 82       	std	Y+3, r1	; 0x03
    2058:	1c 82       	std	Y+4, r1	; 0x04
    205a:	8b 89       	ldd	r24, Y+19	; 0x13
    205c:	9c 89       	ldd	r25, Y+20	; 0x14
    205e:	ad 89       	ldd	r26, Y+21	; 0x15
    2060:	be 89       	ldd	r27, Y+22	; 0x16
    2062:	8d 83       	std	Y+5, r24	; 0x05
    2064:	9e 83       	std	Y+6, r25	; 0x06
    2066:	af 83       	std	Y+7, r26	; 0x07
    2068:	b8 87       	std	Y+8, r27	; 0x08
    206a:	8f 89       	ldd	r24, Y+23	; 0x17
    206c:	98 8d       	ldd	r25, Y+24	; 0x18
    206e:	a9 8d       	ldd	r26, Y+25	; 0x19
    2070:	ba 8d       	ldd	r27, Y+26	; 0x1a
    2072:	89 87       	std	Y+9, r24	; 0x09
    2074:	9a 87       	std	Y+10, r25	; 0x0a
    2076:	ab 87       	std	Y+11, r26	; 0x0b
    2078:	bc 87       	std	Y+12, r27	; 0x0c
    207a:	8b 8d       	ldd	r24, Y+27	; 0x1b
    207c:	9c 8d       	ldd	r25, Y+28	; 0x1c
    207e:	ad 8d       	ldd	r26, Y+29	; 0x1d
    2080:	be 8d       	ldd	r27, Y+30	; 0x1e
    2082:	8d 87       	std	Y+13, r24	; 0x0d
    2084:	9e 87       	std	Y+14, r25	; 0x0e
    2086:	af 87       	std	Y+15, r26	; 0x0f
    2088:	b8 8b       	std	Y+16, r27	; 0x10
    208a:	89 89       	ldd	r24, Y+17	; 0x11
    208c:	9a 89       	ldd	r25, Y+18	; 0x12
    208e:	40 e1       	ldi	r20, 0x10	; 16
    2090:	9e 01       	movw	r18, r28
    2092:	2f 5f       	subi	r18, 0xFF	; 255
    2094:	3f 4f       	sbci	r19, 0xFF	; 255
    2096:	f9 01       	movw	r30, r18
    2098:	dc 01       	movw	r26, r24
    209a:	01 90       	ld	r0, Z+
    209c:	0d 92       	st	X+, r0
    209e:	4a 95       	dec	r20
    20a0:	e1 f7       	brne	.-8      	; 0x209a <convVecToQuat+0x84>
    20a2:	89 89       	ldd	r24, Y+17	; 0x11
    20a4:	9a 89       	ldd	r25, Y+18	; 0x12
    20a6:	6e 96       	adiw	r28, 0x1e	; 30
    20a8:	0f b6       	in	r0, 0x3f	; 63
    20aa:	f8 94       	cli
    20ac:	de bf       	out	0x3e, r29	; 62
    20ae:	0f be       	out	0x3f, r0	; 63
    20b0:	cd bf       	out	0x3d, r28	; 61
    20b2:	df 91       	pop	r29
    20b4:	cf 91       	pop	r28
    20b6:	1f 91       	pop	r17
    20b8:	0f 91       	pop	r16
    20ba:	ff 90       	pop	r15
    20bc:	ef 90       	pop	r14
    20be:	df 90       	pop	r13
    20c0:	cf 90       	pop	r12
    20c2:	08 95       	ret

000020c4 <quatForRot>:
    20c4:	8f 92       	push	r8
    20c6:	9f 92       	push	r9
    20c8:	af 92       	push	r10
    20ca:	bf 92       	push	r11
    20cc:	cf 92       	push	r12
    20ce:	df 92       	push	r13
    20d0:	ef 92       	push	r14
    20d2:	ff 92       	push	r15
    20d4:	0f 93       	push	r16
    20d6:	1f 93       	push	r17
    20d8:	cf 93       	push	r28
    20da:	df 93       	push	r29
    20dc:	cd b7       	in	r28, 0x3d	; 61
    20de:	de b7       	in	r29, 0x3e	; 62
    20e0:	aa 97       	sbiw	r28, 0x2a	; 42
    20e2:	0f b6       	in	r0, 0x3f	; 63
    20e4:	f8 94       	cli
    20e6:	de bf       	out	0x3e, r29	; 62
    20e8:	0f be       	out	0x3f, r0	; 63
    20ea:	cd bf       	out	0x3d, r28	; 61
    20ec:	9a 8f       	std	Y+26, r25	; 0x1a
    20ee:	89 8f       	std	Y+25, r24	; 0x19
    20f0:	cb 8e       	std	Y+27, r12	; 0x1b
    20f2:	dc 8e       	std	Y+28, r13	; 0x1c
    20f4:	ed 8e       	std	Y+29, r14	; 0x1d
    20f6:	fe 8e       	std	Y+30, r15	; 0x1e
    20f8:	0f 8f       	std	Y+31, r16	; 0x1f
    20fa:	18 a3       	std	Y+32, r17	; 0x20
    20fc:	29 a3       	std	Y+33, r18	; 0x21
    20fe:	3a a3       	std	Y+34, r19	; 0x22
    2100:	4b a3       	std	Y+35, r20	; 0x23
    2102:	5c a3       	std	Y+36, r21	; 0x24
    2104:	6d a3       	std	Y+37, r22	; 0x25
    2106:	7e a3       	std	Y+38, r23	; 0x26
    2108:	8f a2       	std	Y+39, r8	; 0x27
    210a:	98 a6       	std	Y+40, r9	; 0x28
    210c:	a9 a6       	std	Y+41, r10	; 0x29
    210e:	ba a6       	std	Y+42, r11	; 0x2a
    2110:	20 e0       	ldi	r18, 0x00	; 0
    2112:	30 e0       	ldi	r19, 0x00	; 0
    2114:	40 e0       	ldi	r20, 0x00	; 0
    2116:	50 e4       	ldi	r21, 0x40	; 64
    2118:	6f a1       	ldd	r22, Y+39	; 0x27
    211a:	78 a5       	ldd	r23, Y+40	; 0x28
    211c:	89 a5       	ldd	r24, Y+41	; 0x29
    211e:	9a a5       	ldd	r25, Y+42	; 0x2a
    2120:	0e 94 22 1d 	call	0x3a44	; 0x3a44 <__divsf3>
    2124:	dc 01       	movw	r26, r24
    2126:	cb 01       	movw	r24, r22
    2128:	89 83       	std	Y+1, r24	; 0x01
    212a:	9a 83       	std	Y+2, r25	; 0x02
    212c:	ab 83       	std	Y+3, r26	; 0x03
    212e:	bc 83       	std	Y+4, r27	; 0x04
    2130:	89 81       	ldd	r24, Y+1	; 0x01
    2132:	9a 81       	ldd	r25, Y+2	; 0x02
    2134:	ab 81       	ldd	r26, Y+3	; 0x03
    2136:	bc 81       	ldd	r27, Y+4	; 0x04
    2138:	bc 01       	movw	r22, r24
    213a:	cd 01       	movw	r24, r26
    213c:	0e 94 ff 1e 	call	0x3dfe	; 0x3dfe <sin>
    2140:	dc 01       	movw	r26, r24
    2142:	cb 01       	movw	r24, r22
    2144:	8d 83       	std	Y+5, r24	; 0x05
    2146:	9e 83       	std	Y+6, r25	; 0x06
    2148:	af 83       	std	Y+7, r26	; 0x07
    214a:	b8 87       	std	Y+8, r27	; 0x08
    214c:	89 81       	ldd	r24, Y+1	; 0x01
    214e:	9a 81       	ldd	r25, Y+2	; 0x02
    2150:	ab 81       	ldd	r26, Y+3	; 0x03
    2152:	bc 81       	ldd	r27, Y+4	; 0x04
    2154:	bc 01       	movw	r22, r24
    2156:	cd 01       	movw	r24, r26
    2158:	0e 94 1f 1d 	call	0x3a3e	; 0x3a3e <cos>
    215c:	dc 01       	movw	r26, r24
    215e:	cb 01       	movw	r24, r22
    2160:	89 87       	std	Y+9, r24	; 0x09
    2162:	9a 87       	std	Y+10, r25	; 0x0a
    2164:	ab 87       	std	Y+11, r26	; 0x0b
    2166:	bc 87       	std	Y+12, r27	; 0x0c
    2168:	8b 8d       	ldd	r24, Y+27	; 0x1b
    216a:	9c 8d       	ldd	r25, Y+28	; 0x1c
    216c:	ad 8d       	ldd	r26, Y+29	; 0x1d
    216e:	be 8d       	ldd	r27, Y+30	; 0x1e
    2170:	2d 81       	ldd	r18, Y+5	; 0x05
    2172:	3e 81       	ldd	r19, Y+6	; 0x06
    2174:	4f 81       	ldd	r20, Y+7	; 0x07
    2176:	58 85       	ldd	r21, Y+8	; 0x08
    2178:	bc 01       	movw	r22, r24
    217a:	cd 01       	movw	r24, r26
    217c:	0e 94 9c 1e 	call	0x3d38	; 0x3d38 <__mulsf3>
    2180:	dc 01       	movw	r26, r24
    2182:	cb 01       	movw	r24, r22
    2184:	8d 87       	std	Y+13, r24	; 0x0d
    2186:	9e 87       	std	Y+14, r25	; 0x0e
    2188:	af 87       	std	Y+15, r26	; 0x0f
    218a:	b8 8b       	std	Y+16, r27	; 0x10
    218c:	8f 8d       	ldd	r24, Y+31	; 0x1f
    218e:	98 a1       	ldd	r25, Y+32	; 0x20
    2190:	a9 a1       	ldd	r26, Y+33	; 0x21
    2192:	ba a1       	ldd	r27, Y+34	; 0x22
    2194:	2d 81       	ldd	r18, Y+5	; 0x05
    2196:	3e 81       	ldd	r19, Y+6	; 0x06
    2198:	4f 81       	ldd	r20, Y+7	; 0x07
    219a:	58 85       	ldd	r21, Y+8	; 0x08
    219c:	bc 01       	movw	r22, r24
    219e:	cd 01       	movw	r24, r26
    21a0:	0e 94 9c 1e 	call	0x3d38	; 0x3d38 <__mulsf3>
    21a4:	dc 01       	movw	r26, r24
    21a6:	cb 01       	movw	r24, r22
    21a8:	89 8b       	std	Y+17, r24	; 0x11
    21aa:	9a 8b       	std	Y+18, r25	; 0x12
    21ac:	ab 8b       	std	Y+19, r26	; 0x13
    21ae:	bc 8b       	std	Y+20, r27	; 0x14
    21b0:	8b a1       	ldd	r24, Y+35	; 0x23
    21b2:	9c a1       	ldd	r25, Y+36	; 0x24
    21b4:	ad a1       	ldd	r26, Y+37	; 0x25
    21b6:	be a1       	ldd	r27, Y+38	; 0x26
    21b8:	2d 81       	ldd	r18, Y+5	; 0x05
    21ba:	3e 81       	ldd	r19, Y+6	; 0x06
    21bc:	4f 81       	ldd	r20, Y+7	; 0x07
    21be:	58 85       	ldd	r21, Y+8	; 0x08
    21c0:	bc 01       	movw	r22, r24
    21c2:	cd 01       	movw	r24, r26
    21c4:	0e 94 9c 1e 	call	0x3d38	; 0x3d38 <__mulsf3>
    21c8:	dc 01       	movw	r26, r24
    21ca:	cb 01       	movw	r24, r22
    21cc:	8d 8b       	std	Y+21, r24	; 0x15
    21ce:	9e 8b       	std	Y+22, r25	; 0x16
    21d0:	af 8b       	std	Y+23, r26	; 0x17
    21d2:	b8 8f       	std	Y+24, r27	; 0x18
    21d4:	89 8d       	ldd	r24, Y+25	; 0x19
    21d6:	9a 8d       	ldd	r25, Y+26	; 0x1a
    21d8:	20 e1       	ldi	r18, 0x10	; 16
    21da:	fe 01       	movw	r30, r28
    21dc:	39 96       	adiw	r30, 0x09	; 9
    21de:	dc 01       	movw	r26, r24
    21e0:	01 90       	ld	r0, Z+
    21e2:	0d 92       	st	X+, r0
    21e4:	2a 95       	dec	r18
    21e6:	e1 f7       	brne	.-8      	; 0x21e0 <quatForRot+0x11c>
    21e8:	89 8d       	ldd	r24, Y+25	; 0x19
    21ea:	9a 8d       	ldd	r25, Y+26	; 0x1a
    21ec:	aa 96       	adiw	r28, 0x2a	; 42
    21ee:	0f b6       	in	r0, 0x3f	; 63
    21f0:	f8 94       	cli
    21f2:	de bf       	out	0x3e, r29	; 62
    21f4:	0f be       	out	0x3f, r0	; 63
    21f6:	cd bf       	out	0x3d, r28	; 61
    21f8:	df 91       	pop	r29
    21fa:	cf 91       	pop	r28
    21fc:	1f 91       	pop	r17
    21fe:	0f 91       	pop	r16
    2200:	ff 90       	pop	r15
    2202:	ef 90       	pop	r14
    2204:	df 90       	pop	r13
    2206:	cf 90       	pop	r12
    2208:	bf 90       	pop	r11
    220a:	af 90       	pop	r10
    220c:	9f 90       	pop	r9
    220e:	8f 90       	pop	r8
    2210:	08 95       	ret

00002212 <conjugate>:
    2212:	8f 92       	push	r8
    2214:	9f 92       	push	r9
    2216:	af 92       	push	r10
    2218:	bf 92       	push	r11
    221a:	cf 92       	push	r12
    221c:	df 92       	push	r13
    221e:	ef 92       	push	r14
    2220:	ff 92       	push	r15
    2222:	0f 93       	push	r16
    2224:	1f 93       	push	r17
    2226:	cf 93       	push	r28
    2228:	df 93       	push	r29
    222a:	cd b7       	in	r28, 0x3d	; 61
    222c:	de b7       	in	r29, 0x3e	; 62
    222e:	a2 97       	sbiw	r28, 0x22	; 34
    2230:	0f b6       	in	r0, 0x3f	; 63
    2232:	f8 94       	cli
    2234:	de bf       	out	0x3e, r29	; 62
    2236:	0f be       	out	0x3f, r0	; 63
    2238:	cd bf       	out	0x3d, r28	; 61
    223a:	9a 8b       	std	Y+18, r25	; 0x12
    223c:	89 8b       	std	Y+17, r24	; 0x11
    223e:	8b 8a       	std	Y+19, r8	; 0x13
    2240:	9c 8a       	std	Y+20, r9	; 0x14
    2242:	ad 8a       	std	Y+21, r10	; 0x15
    2244:	be 8a       	std	Y+22, r11	; 0x16
    2246:	cf 8a       	std	Y+23, r12	; 0x17
    2248:	d8 8e       	std	Y+24, r13	; 0x18
    224a:	e9 8e       	std	Y+25, r14	; 0x19
    224c:	fa 8e       	std	Y+26, r15	; 0x1a
    224e:	0b 8f       	std	Y+27, r16	; 0x1b
    2250:	1c 8f       	std	Y+28, r17	; 0x1c
    2252:	2d 8f       	std	Y+29, r18	; 0x1d
    2254:	3e 8f       	std	Y+30, r19	; 0x1e
    2256:	4f 8f       	std	Y+31, r20	; 0x1f
    2258:	58 a3       	std	Y+32, r21	; 0x20
    225a:	69 a3       	std	Y+33, r22	; 0x21
    225c:	7a a3       	std	Y+34, r23	; 0x22
    225e:	8b 89       	ldd	r24, Y+19	; 0x13
    2260:	9c 89       	ldd	r25, Y+20	; 0x14
    2262:	ad 89       	ldd	r26, Y+21	; 0x15
    2264:	be 89       	ldd	r27, Y+22	; 0x16
    2266:	89 83       	std	Y+1, r24	; 0x01
    2268:	9a 83       	std	Y+2, r25	; 0x02
    226a:	ab 83       	std	Y+3, r26	; 0x03
    226c:	bc 83       	std	Y+4, r27	; 0x04
    226e:	8f 89       	ldd	r24, Y+23	; 0x17
    2270:	98 8d       	ldd	r25, Y+24	; 0x18
    2272:	a9 8d       	ldd	r26, Y+25	; 0x19
    2274:	ba 8d       	ldd	r27, Y+26	; 0x1a
    2276:	b0 58       	subi	r27, 0x80	; 128
    2278:	8d 83       	std	Y+5, r24	; 0x05
    227a:	9e 83       	std	Y+6, r25	; 0x06
    227c:	af 83       	std	Y+7, r26	; 0x07
    227e:	b8 87       	std	Y+8, r27	; 0x08
    2280:	8b 8d       	ldd	r24, Y+27	; 0x1b
    2282:	9c 8d       	ldd	r25, Y+28	; 0x1c
    2284:	ad 8d       	ldd	r26, Y+29	; 0x1d
    2286:	be 8d       	ldd	r27, Y+30	; 0x1e
    2288:	b0 58       	subi	r27, 0x80	; 128
    228a:	89 87       	std	Y+9, r24	; 0x09
    228c:	9a 87       	std	Y+10, r25	; 0x0a
    228e:	ab 87       	std	Y+11, r26	; 0x0b
    2290:	bc 87       	std	Y+12, r27	; 0x0c
    2292:	8f 8d       	ldd	r24, Y+31	; 0x1f
    2294:	98 a1       	ldd	r25, Y+32	; 0x20
    2296:	a9 a1       	ldd	r26, Y+33	; 0x21
    2298:	ba a1       	ldd	r27, Y+34	; 0x22
    229a:	b0 58       	subi	r27, 0x80	; 128
    229c:	8d 87       	std	Y+13, r24	; 0x0d
    229e:	9e 87       	std	Y+14, r25	; 0x0e
    22a0:	af 87       	std	Y+15, r26	; 0x0f
    22a2:	b8 8b       	std	Y+16, r27	; 0x10
    22a4:	89 89       	ldd	r24, Y+17	; 0x11
    22a6:	9a 89       	ldd	r25, Y+18	; 0x12
    22a8:	40 e1       	ldi	r20, 0x10	; 16
    22aa:	9e 01       	movw	r18, r28
    22ac:	2f 5f       	subi	r18, 0xFF	; 255
    22ae:	3f 4f       	sbci	r19, 0xFF	; 255
    22b0:	f9 01       	movw	r30, r18
    22b2:	dc 01       	movw	r26, r24
    22b4:	01 90       	ld	r0, Z+
    22b6:	0d 92       	st	X+, r0
    22b8:	4a 95       	dec	r20
    22ba:	e1 f7       	brne	.-8      	; 0x22b4 <conjugate+0xa2>
    22bc:	89 89       	ldd	r24, Y+17	; 0x11
    22be:	9a 89       	ldd	r25, Y+18	; 0x12
    22c0:	a2 96       	adiw	r28, 0x22	; 34
    22c2:	0f b6       	in	r0, 0x3f	; 63
    22c4:	f8 94       	cli
    22c6:	de bf       	out	0x3e, r29	; 62
    22c8:	0f be       	out	0x3f, r0	; 63
    22ca:	cd bf       	out	0x3d, r28	; 61
    22cc:	df 91       	pop	r29
    22ce:	cf 91       	pop	r28
    22d0:	1f 91       	pop	r17
    22d2:	0f 91       	pop	r16
    22d4:	ff 90       	pop	r15
    22d6:	ef 90       	pop	r14
    22d8:	df 90       	pop	r13
    22da:	cf 90       	pop	r12
    22dc:	bf 90       	pop	r11
    22de:	af 90       	pop	r10
    22e0:	9f 90       	pop	r9
    22e2:	8f 90       	pop	r8
    22e4:	08 95       	ret

000022e6 <hamiltonP>:
    22e6:	8f 92       	push	r8
    22e8:	9f 92       	push	r9
    22ea:	af 92       	push	r10
    22ec:	bf 92       	push	r11
    22ee:	cf 92       	push	r12
    22f0:	df 92       	push	r13
    22f2:	ef 92       	push	r14
    22f4:	ff 92       	push	r15
    22f6:	0f 93       	push	r16
    22f8:	1f 93       	push	r17
    22fa:	cf 93       	push	r28
    22fc:	df 93       	push	r29
    22fe:	cd b7       	in	r28, 0x3d	; 61
    2300:	de b7       	in	r29, 0x3e	; 62
    2302:	a2 97       	sbiw	r28, 0x22	; 34
    2304:	0f b6       	in	r0, 0x3f	; 63
    2306:	f8 94       	cli
    2308:	de bf       	out	0x3e, r29	; 62
    230a:	0f be       	out	0x3f, r0	; 63
    230c:	cd bf       	out	0x3d, r28	; 61
    230e:	9a 8b       	std	Y+18, r25	; 0x12
    2310:	89 8b       	std	Y+17, r24	; 0x11
    2312:	8b 8a       	std	Y+19, r8	; 0x13
    2314:	9c 8a       	std	Y+20, r9	; 0x14
    2316:	ad 8a       	std	Y+21, r10	; 0x15
    2318:	be 8a       	std	Y+22, r11	; 0x16
    231a:	cf 8a       	std	Y+23, r12	; 0x17
    231c:	d8 8e       	std	Y+24, r13	; 0x18
    231e:	e9 8e       	std	Y+25, r14	; 0x19
    2320:	fa 8e       	std	Y+26, r15	; 0x1a
    2322:	0b 8f       	std	Y+27, r16	; 0x1b
    2324:	1c 8f       	std	Y+28, r17	; 0x1c
    2326:	2d 8f       	std	Y+29, r18	; 0x1d
    2328:	3e 8f       	std	Y+30, r19	; 0x1e
    232a:	4f 8f       	std	Y+31, r20	; 0x1f
    232c:	58 a3       	std	Y+32, r21	; 0x20
    232e:	69 a3       	std	Y+33, r22	; 0x21
    2330:	7a a3       	std	Y+34, r23	; 0x22
    2332:	8b 89       	ldd	r24, Y+19	; 0x13
    2334:	9c 89       	ldd	r25, Y+20	; 0x14
    2336:	ad 89       	ldd	r26, Y+21	; 0x15
    2338:	be 89       	ldd	r27, Y+22	; 0x16
    233a:	29 a9       	ldd	r18, Y+49	; 0x31
    233c:	3a a9       	ldd	r19, Y+50	; 0x32
    233e:	4b a9       	ldd	r20, Y+51	; 0x33
    2340:	5c a9       	ldd	r21, Y+52	; 0x34
    2342:	bc 01       	movw	r22, r24
    2344:	cd 01       	movw	r24, r26
    2346:	0e 94 9c 1e 	call	0x3d38	; 0x3d38 <__mulsf3>
    234a:	dc 01       	movw	r26, r24
    234c:	cb 01       	movw	r24, r22
    234e:	6c 01       	movw	r12, r24
    2350:	7d 01       	movw	r14, r26
    2352:	8f 89       	ldd	r24, Y+23	; 0x17
    2354:	98 8d       	ldd	r25, Y+24	; 0x18
    2356:	a9 8d       	ldd	r26, Y+25	; 0x19
    2358:	ba 8d       	ldd	r27, Y+26	; 0x1a
    235a:	2d a9       	ldd	r18, Y+53	; 0x35
    235c:	3e a9       	ldd	r19, Y+54	; 0x36
    235e:	4f a9       	ldd	r20, Y+55	; 0x37
    2360:	58 ad       	ldd	r21, Y+56	; 0x38
    2362:	bc 01       	movw	r22, r24
    2364:	cd 01       	movw	r24, r26
    2366:	0e 94 9c 1e 	call	0x3d38	; 0x3d38 <__mulsf3>
    236a:	dc 01       	movw	r26, r24
    236c:	cb 01       	movw	r24, r22
    236e:	9c 01       	movw	r18, r24
    2370:	ad 01       	movw	r20, r26
    2372:	c7 01       	movw	r24, r14
    2374:	b6 01       	movw	r22, r12
    2376:	0e 94 41 1c 	call	0x3882	; 0x3882 <__subsf3>
    237a:	dc 01       	movw	r26, r24
    237c:	cb 01       	movw	r24, r22
    237e:	6c 01       	movw	r12, r24
    2380:	7d 01       	movw	r14, r26
    2382:	8b 8d       	ldd	r24, Y+27	; 0x1b
    2384:	9c 8d       	ldd	r25, Y+28	; 0x1c
    2386:	ad 8d       	ldd	r26, Y+29	; 0x1d
    2388:	be 8d       	ldd	r27, Y+30	; 0x1e
    238a:	29 ad       	ldd	r18, Y+57	; 0x39
    238c:	3a ad       	ldd	r19, Y+58	; 0x3a
    238e:	4b ad       	ldd	r20, Y+59	; 0x3b
    2390:	5c ad       	ldd	r21, Y+60	; 0x3c
    2392:	bc 01       	movw	r22, r24
    2394:	cd 01       	movw	r24, r26
    2396:	0e 94 9c 1e 	call	0x3d38	; 0x3d38 <__mulsf3>
    239a:	dc 01       	movw	r26, r24
    239c:	cb 01       	movw	r24, r22
    239e:	9c 01       	movw	r18, r24
    23a0:	ad 01       	movw	r20, r26
    23a2:	c7 01       	movw	r24, r14
    23a4:	b6 01       	movw	r22, r12
    23a6:	0e 94 41 1c 	call	0x3882	; 0x3882 <__subsf3>
    23aa:	dc 01       	movw	r26, r24
    23ac:	cb 01       	movw	r24, r22
    23ae:	6c 01       	movw	r12, r24
    23b0:	7d 01       	movw	r14, r26
    23b2:	8f 8d       	ldd	r24, Y+31	; 0x1f
    23b4:	98 a1       	ldd	r25, Y+32	; 0x20
    23b6:	a9 a1       	ldd	r26, Y+33	; 0x21
    23b8:	ba a1       	ldd	r27, Y+34	; 0x22
    23ba:	21 96       	adiw	r28, 0x01	; 1
    23bc:	2c ad       	ldd	r18, Y+60	; 0x3c
    23be:	3d ad       	ldd	r19, Y+61	; 0x3d
    23c0:	4e ad       	ldd	r20, Y+62	; 0x3e
    23c2:	5f ad       	ldd	r21, Y+63	; 0x3f
    23c4:	21 97       	sbiw	r28, 0x01	; 1
    23c6:	bc 01       	movw	r22, r24
    23c8:	cd 01       	movw	r24, r26
    23ca:	0e 94 9c 1e 	call	0x3d38	; 0x3d38 <__mulsf3>
    23ce:	dc 01       	movw	r26, r24
    23d0:	cb 01       	movw	r24, r22
    23d2:	9c 01       	movw	r18, r24
    23d4:	ad 01       	movw	r20, r26
    23d6:	c7 01       	movw	r24, r14
    23d8:	b6 01       	movw	r22, r12
    23da:	0e 94 41 1c 	call	0x3882	; 0x3882 <__subsf3>
    23de:	dc 01       	movw	r26, r24
    23e0:	cb 01       	movw	r24, r22
    23e2:	89 83       	std	Y+1, r24	; 0x01
    23e4:	9a 83       	std	Y+2, r25	; 0x02
    23e6:	ab 83       	std	Y+3, r26	; 0x03
    23e8:	bc 83       	std	Y+4, r27	; 0x04
    23ea:	8b 89       	ldd	r24, Y+19	; 0x13
    23ec:	9c 89       	ldd	r25, Y+20	; 0x14
    23ee:	ad 89       	ldd	r26, Y+21	; 0x15
    23f0:	be 89       	ldd	r27, Y+22	; 0x16
    23f2:	2d a9       	ldd	r18, Y+53	; 0x35
    23f4:	3e a9       	ldd	r19, Y+54	; 0x36
    23f6:	4f a9       	ldd	r20, Y+55	; 0x37
    23f8:	58 ad       	ldd	r21, Y+56	; 0x38
    23fa:	bc 01       	movw	r22, r24
    23fc:	cd 01       	movw	r24, r26
    23fe:	0e 94 9c 1e 	call	0x3d38	; 0x3d38 <__mulsf3>
    2402:	dc 01       	movw	r26, r24
    2404:	cb 01       	movw	r24, r22
    2406:	6c 01       	movw	r12, r24
    2408:	7d 01       	movw	r14, r26
    240a:	8f 89       	ldd	r24, Y+23	; 0x17
    240c:	98 8d       	ldd	r25, Y+24	; 0x18
    240e:	a9 8d       	ldd	r26, Y+25	; 0x19
    2410:	ba 8d       	ldd	r27, Y+26	; 0x1a
    2412:	29 a9       	ldd	r18, Y+49	; 0x31
    2414:	3a a9       	ldd	r19, Y+50	; 0x32
    2416:	4b a9       	ldd	r20, Y+51	; 0x33
    2418:	5c a9       	ldd	r21, Y+52	; 0x34
    241a:	bc 01       	movw	r22, r24
    241c:	cd 01       	movw	r24, r26
    241e:	0e 94 9c 1e 	call	0x3d38	; 0x3d38 <__mulsf3>
    2422:	dc 01       	movw	r26, r24
    2424:	cb 01       	movw	r24, r22
    2426:	9c 01       	movw	r18, r24
    2428:	ad 01       	movw	r20, r26
    242a:	c7 01       	movw	r24, r14
    242c:	b6 01       	movw	r22, r12
    242e:	0e 94 42 1c 	call	0x3884	; 0x3884 <__addsf3>
    2432:	dc 01       	movw	r26, r24
    2434:	cb 01       	movw	r24, r22
    2436:	6c 01       	movw	r12, r24
    2438:	7d 01       	movw	r14, r26
    243a:	8b 8d       	ldd	r24, Y+27	; 0x1b
    243c:	9c 8d       	ldd	r25, Y+28	; 0x1c
    243e:	ad 8d       	ldd	r26, Y+29	; 0x1d
    2440:	be 8d       	ldd	r27, Y+30	; 0x1e
    2442:	21 96       	adiw	r28, 0x01	; 1
    2444:	2c ad       	ldd	r18, Y+60	; 0x3c
    2446:	3d ad       	ldd	r19, Y+61	; 0x3d
    2448:	4e ad       	ldd	r20, Y+62	; 0x3e
    244a:	5f ad       	ldd	r21, Y+63	; 0x3f
    244c:	21 97       	sbiw	r28, 0x01	; 1
    244e:	bc 01       	movw	r22, r24
    2450:	cd 01       	movw	r24, r26
    2452:	0e 94 9c 1e 	call	0x3d38	; 0x3d38 <__mulsf3>
    2456:	dc 01       	movw	r26, r24
    2458:	cb 01       	movw	r24, r22
    245a:	9c 01       	movw	r18, r24
    245c:	ad 01       	movw	r20, r26
    245e:	c7 01       	movw	r24, r14
    2460:	b6 01       	movw	r22, r12
    2462:	0e 94 42 1c 	call	0x3884	; 0x3884 <__addsf3>
    2466:	dc 01       	movw	r26, r24
    2468:	cb 01       	movw	r24, r22
    246a:	6c 01       	movw	r12, r24
    246c:	7d 01       	movw	r14, r26
    246e:	8f 8d       	ldd	r24, Y+31	; 0x1f
    2470:	98 a1       	ldd	r25, Y+32	; 0x20
    2472:	a9 a1       	ldd	r26, Y+33	; 0x21
    2474:	ba a1       	ldd	r27, Y+34	; 0x22
    2476:	29 ad       	ldd	r18, Y+57	; 0x39
    2478:	3a ad       	ldd	r19, Y+58	; 0x3a
    247a:	4b ad       	ldd	r20, Y+59	; 0x3b
    247c:	5c ad       	ldd	r21, Y+60	; 0x3c
    247e:	bc 01       	movw	r22, r24
    2480:	cd 01       	movw	r24, r26
    2482:	0e 94 9c 1e 	call	0x3d38	; 0x3d38 <__mulsf3>
    2486:	dc 01       	movw	r26, r24
    2488:	cb 01       	movw	r24, r22
    248a:	9c 01       	movw	r18, r24
    248c:	ad 01       	movw	r20, r26
    248e:	c7 01       	movw	r24, r14
    2490:	b6 01       	movw	r22, r12
    2492:	0e 94 41 1c 	call	0x3882	; 0x3882 <__subsf3>
    2496:	dc 01       	movw	r26, r24
    2498:	cb 01       	movw	r24, r22
    249a:	8d 83       	std	Y+5, r24	; 0x05
    249c:	9e 83       	std	Y+6, r25	; 0x06
    249e:	af 83       	std	Y+7, r26	; 0x07
    24a0:	b8 87       	std	Y+8, r27	; 0x08
    24a2:	8b 89       	ldd	r24, Y+19	; 0x13
    24a4:	9c 89       	ldd	r25, Y+20	; 0x14
    24a6:	ad 89       	ldd	r26, Y+21	; 0x15
    24a8:	be 89       	ldd	r27, Y+22	; 0x16
    24aa:	29 ad       	ldd	r18, Y+57	; 0x39
    24ac:	3a ad       	ldd	r19, Y+58	; 0x3a
    24ae:	4b ad       	ldd	r20, Y+59	; 0x3b
    24b0:	5c ad       	ldd	r21, Y+60	; 0x3c
    24b2:	bc 01       	movw	r22, r24
    24b4:	cd 01       	movw	r24, r26
    24b6:	0e 94 9c 1e 	call	0x3d38	; 0x3d38 <__mulsf3>
    24ba:	dc 01       	movw	r26, r24
    24bc:	cb 01       	movw	r24, r22
    24be:	6c 01       	movw	r12, r24
    24c0:	7d 01       	movw	r14, r26
    24c2:	8f 89       	ldd	r24, Y+23	; 0x17
    24c4:	98 8d       	ldd	r25, Y+24	; 0x18
    24c6:	a9 8d       	ldd	r26, Y+25	; 0x19
    24c8:	ba 8d       	ldd	r27, Y+26	; 0x1a
    24ca:	21 96       	adiw	r28, 0x01	; 1
    24cc:	2c ad       	ldd	r18, Y+60	; 0x3c
    24ce:	3d ad       	ldd	r19, Y+61	; 0x3d
    24d0:	4e ad       	ldd	r20, Y+62	; 0x3e
    24d2:	5f ad       	ldd	r21, Y+63	; 0x3f
    24d4:	21 97       	sbiw	r28, 0x01	; 1
    24d6:	bc 01       	movw	r22, r24
    24d8:	cd 01       	movw	r24, r26
    24da:	0e 94 9c 1e 	call	0x3d38	; 0x3d38 <__mulsf3>
    24de:	dc 01       	movw	r26, r24
    24e0:	cb 01       	movw	r24, r22
    24e2:	9c 01       	movw	r18, r24
    24e4:	ad 01       	movw	r20, r26
    24e6:	c7 01       	movw	r24, r14
    24e8:	b6 01       	movw	r22, r12
    24ea:	0e 94 41 1c 	call	0x3882	; 0x3882 <__subsf3>
    24ee:	dc 01       	movw	r26, r24
    24f0:	cb 01       	movw	r24, r22
    24f2:	6c 01       	movw	r12, r24
    24f4:	7d 01       	movw	r14, r26
    24f6:	8b 8d       	ldd	r24, Y+27	; 0x1b
    24f8:	9c 8d       	ldd	r25, Y+28	; 0x1c
    24fa:	ad 8d       	ldd	r26, Y+29	; 0x1d
    24fc:	be 8d       	ldd	r27, Y+30	; 0x1e
    24fe:	29 a9       	ldd	r18, Y+49	; 0x31
    2500:	3a a9       	ldd	r19, Y+50	; 0x32
    2502:	4b a9       	ldd	r20, Y+51	; 0x33
    2504:	5c a9       	ldd	r21, Y+52	; 0x34
    2506:	bc 01       	movw	r22, r24
    2508:	cd 01       	movw	r24, r26
    250a:	0e 94 9c 1e 	call	0x3d38	; 0x3d38 <__mulsf3>
    250e:	dc 01       	movw	r26, r24
    2510:	cb 01       	movw	r24, r22
    2512:	9c 01       	movw	r18, r24
    2514:	ad 01       	movw	r20, r26
    2516:	c7 01       	movw	r24, r14
    2518:	b6 01       	movw	r22, r12
    251a:	0e 94 42 1c 	call	0x3884	; 0x3884 <__addsf3>
    251e:	dc 01       	movw	r26, r24
    2520:	cb 01       	movw	r24, r22
    2522:	6c 01       	movw	r12, r24
    2524:	7d 01       	movw	r14, r26
    2526:	8f 8d       	ldd	r24, Y+31	; 0x1f
    2528:	98 a1       	ldd	r25, Y+32	; 0x20
    252a:	a9 a1       	ldd	r26, Y+33	; 0x21
    252c:	ba a1       	ldd	r27, Y+34	; 0x22
    252e:	2d a9       	ldd	r18, Y+53	; 0x35
    2530:	3e a9       	ldd	r19, Y+54	; 0x36
    2532:	4f a9       	ldd	r20, Y+55	; 0x37
    2534:	58 ad       	ldd	r21, Y+56	; 0x38
    2536:	bc 01       	movw	r22, r24
    2538:	cd 01       	movw	r24, r26
    253a:	0e 94 9c 1e 	call	0x3d38	; 0x3d38 <__mulsf3>
    253e:	dc 01       	movw	r26, r24
    2540:	cb 01       	movw	r24, r22
    2542:	9c 01       	movw	r18, r24
    2544:	ad 01       	movw	r20, r26
    2546:	c7 01       	movw	r24, r14
    2548:	b6 01       	movw	r22, r12
    254a:	0e 94 42 1c 	call	0x3884	; 0x3884 <__addsf3>
    254e:	dc 01       	movw	r26, r24
    2550:	cb 01       	movw	r24, r22
    2552:	89 87       	std	Y+9, r24	; 0x09
    2554:	9a 87       	std	Y+10, r25	; 0x0a
    2556:	ab 87       	std	Y+11, r26	; 0x0b
    2558:	bc 87       	std	Y+12, r27	; 0x0c
    255a:	8b 89       	ldd	r24, Y+19	; 0x13
    255c:	9c 89       	ldd	r25, Y+20	; 0x14
    255e:	ad 89       	ldd	r26, Y+21	; 0x15
    2560:	be 89       	ldd	r27, Y+22	; 0x16
    2562:	21 96       	adiw	r28, 0x01	; 1
    2564:	2c ad       	ldd	r18, Y+60	; 0x3c
    2566:	3d ad       	ldd	r19, Y+61	; 0x3d
    2568:	4e ad       	ldd	r20, Y+62	; 0x3e
    256a:	5f ad       	ldd	r21, Y+63	; 0x3f
    256c:	21 97       	sbiw	r28, 0x01	; 1
    256e:	bc 01       	movw	r22, r24
    2570:	cd 01       	movw	r24, r26
    2572:	0e 94 9c 1e 	call	0x3d38	; 0x3d38 <__mulsf3>
    2576:	dc 01       	movw	r26, r24
    2578:	cb 01       	movw	r24, r22
    257a:	6c 01       	movw	r12, r24
    257c:	7d 01       	movw	r14, r26
    257e:	8f 89       	ldd	r24, Y+23	; 0x17
    2580:	98 8d       	ldd	r25, Y+24	; 0x18
    2582:	a9 8d       	ldd	r26, Y+25	; 0x19
    2584:	ba 8d       	ldd	r27, Y+26	; 0x1a
    2586:	29 ad       	ldd	r18, Y+57	; 0x39
    2588:	3a ad       	ldd	r19, Y+58	; 0x3a
    258a:	4b ad       	ldd	r20, Y+59	; 0x3b
    258c:	5c ad       	ldd	r21, Y+60	; 0x3c
    258e:	bc 01       	movw	r22, r24
    2590:	cd 01       	movw	r24, r26
    2592:	0e 94 9c 1e 	call	0x3d38	; 0x3d38 <__mulsf3>
    2596:	dc 01       	movw	r26, r24
    2598:	cb 01       	movw	r24, r22
    259a:	9c 01       	movw	r18, r24
    259c:	ad 01       	movw	r20, r26
    259e:	c7 01       	movw	r24, r14
    25a0:	b6 01       	movw	r22, r12
    25a2:	0e 94 42 1c 	call	0x3884	; 0x3884 <__addsf3>
    25a6:	dc 01       	movw	r26, r24
    25a8:	cb 01       	movw	r24, r22
    25aa:	6c 01       	movw	r12, r24
    25ac:	7d 01       	movw	r14, r26
    25ae:	8b 8d       	ldd	r24, Y+27	; 0x1b
    25b0:	9c 8d       	ldd	r25, Y+28	; 0x1c
    25b2:	ad 8d       	ldd	r26, Y+29	; 0x1d
    25b4:	be 8d       	ldd	r27, Y+30	; 0x1e
    25b6:	2d a9       	ldd	r18, Y+53	; 0x35
    25b8:	3e a9       	ldd	r19, Y+54	; 0x36
    25ba:	4f a9       	ldd	r20, Y+55	; 0x37
    25bc:	58 ad       	ldd	r21, Y+56	; 0x38
    25be:	bc 01       	movw	r22, r24
    25c0:	cd 01       	movw	r24, r26
    25c2:	0e 94 9c 1e 	call	0x3d38	; 0x3d38 <__mulsf3>
    25c6:	dc 01       	movw	r26, r24
    25c8:	cb 01       	movw	r24, r22
    25ca:	9c 01       	movw	r18, r24
    25cc:	ad 01       	movw	r20, r26
    25ce:	c7 01       	movw	r24, r14
    25d0:	b6 01       	movw	r22, r12
    25d2:	0e 94 41 1c 	call	0x3882	; 0x3882 <__subsf3>
    25d6:	dc 01       	movw	r26, r24
    25d8:	cb 01       	movw	r24, r22
    25da:	6c 01       	movw	r12, r24
    25dc:	7d 01       	movw	r14, r26
    25de:	8f 8d       	ldd	r24, Y+31	; 0x1f
    25e0:	98 a1       	ldd	r25, Y+32	; 0x20
    25e2:	a9 a1       	ldd	r26, Y+33	; 0x21
    25e4:	ba a1       	ldd	r27, Y+34	; 0x22
    25e6:	29 a9       	ldd	r18, Y+49	; 0x31
    25e8:	3a a9       	ldd	r19, Y+50	; 0x32
    25ea:	4b a9       	ldd	r20, Y+51	; 0x33
    25ec:	5c a9       	ldd	r21, Y+52	; 0x34
    25ee:	bc 01       	movw	r22, r24
    25f0:	cd 01       	movw	r24, r26
    25f2:	0e 94 9c 1e 	call	0x3d38	; 0x3d38 <__mulsf3>
    25f6:	dc 01       	movw	r26, r24
    25f8:	cb 01       	movw	r24, r22
    25fa:	9c 01       	movw	r18, r24
    25fc:	ad 01       	movw	r20, r26
    25fe:	c7 01       	movw	r24, r14
    2600:	b6 01       	movw	r22, r12
    2602:	0e 94 42 1c 	call	0x3884	; 0x3884 <__addsf3>
    2606:	dc 01       	movw	r26, r24
    2608:	cb 01       	movw	r24, r22
    260a:	8d 87       	std	Y+13, r24	; 0x0d
    260c:	9e 87       	std	Y+14, r25	; 0x0e
    260e:	af 87       	std	Y+15, r26	; 0x0f
    2610:	b8 8b       	std	Y+16, r27	; 0x10
    2612:	89 89       	ldd	r24, Y+17	; 0x11
    2614:	9a 89       	ldd	r25, Y+18	; 0x12
    2616:	40 e1       	ldi	r20, 0x10	; 16
    2618:	9e 01       	movw	r18, r28
    261a:	2f 5f       	subi	r18, 0xFF	; 255
    261c:	3f 4f       	sbci	r19, 0xFF	; 255
    261e:	f9 01       	movw	r30, r18
    2620:	dc 01       	movw	r26, r24
    2622:	01 90       	ld	r0, Z+
    2624:	0d 92       	st	X+, r0
    2626:	4a 95       	dec	r20
    2628:	e1 f7       	brne	.-8      	; 0x2622 <hamiltonP+0x33c>
    262a:	89 89       	ldd	r24, Y+17	; 0x11
    262c:	9a 89       	ldd	r25, Y+18	; 0x12
    262e:	a2 96       	adiw	r28, 0x22	; 34
    2630:	0f b6       	in	r0, 0x3f	; 63
    2632:	f8 94       	cli
    2634:	de bf       	out	0x3e, r29	; 62
    2636:	0f be       	out	0x3f, r0	; 63
    2638:	cd bf       	out	0x3d, r28	; 61
    263a:	df 91       	pop	r29
    263c:	cf 91       	pop	r28
    263e:	1f 91       	pop	r17
    2640:	0f 91       	pop	r16
    2642:	ff 90       	pop	r15
    2644:	ef 90       	pop	r14
    2646:	df 90       	pop	r13
    2648:	cf 90       	pop	r12
    264a:	bf 90       	pop	r11
    264c:	af 90       	pop	r10
    264e:	9f 90       	pop	r9
    2650:	8f 90       	pop	r8
    2652:	08 95       	ret

00002654 <quicksort>:
    2654:	cf 93       	push	r28
    2656:	df 93       	push	r29
    2658:	cd b7       	in	r28, 0x3d	; 61
    265a:	de b7       	in	r29, 0x3e	; 62
    265c:	29 97       	sbiw	r28, 0x09	; 9
    265e:	0f b6       	in	r0, 0x3f	; 63
    2660:	f8 94       	cli
    2662:	de bf       	out	0x3e, r29	; 62
    2664:	0f be       	out	0x3f, r0	; 63
    2666:	cd bf       	out	0x3d, r28	; 61
    2668:	9f 83       	std	Y+7, r25	; 0x07
    266a:	8e 83       	std	Y+6, r24	; 0x06
    266c:	68 87       	std	Y+8, r22	; 0x08
    266e:	49 87       	std	Y+9, r20	; 0x09
    2670:	98 85       	ldd	r25, Y+8	; 0x08
    2672:	89 85       	ldd	r24, Y+9	; 0x09
    2674:	98 17       	cp	r25, r24
    2676:	08 f0       	brcs	.+2      	; 0x267a <quicksort+0x26>
    2678:	c3 c0       	rjmp	.+390    	; 0x2800 <quicksort+0x1ac>
    267a:	88 85       	ldd	r24, Y+8	; 0x08
    267c:	8b 83       	std	Y+3, r24	; 0x03
    267e:	88 85       	ldd	r24, Y+8	; 0x08
    2680:	89 83       	std	Y+1, r24	; 0x01
    2682:	89 85       	ldd	r24, Y+9	; 0x09
    2684:	8a 83       	std	Y+2, r24	; 0x02
    2686:	73 c0       	rjmp	.+230    	; 0x276e <quicksort+0x11a>
    2688:	89 81       	ldd	r24, Y+1	; 0x01
    268a:	8f 5f       	subi	r24, 0xFF	; 255
    268c:	89 83       	std	Y+1, r24	; 0x01
    268e:	89 81       	ldd	r24, Y+1	; 0x01
    2690:	88 2f       	mov	r24, r24
    2692:	90 e0       	ldi	r25, 0x00	; 0
    2694:	88 0f       	add	r24, r24
    2696:	99 1f       	adc	r25, r25
    2698:	2e 81       	ldd	r18, Y+6	; 0x06
    269a:	3f 81       	ldd	r19, Y+7	; 0x07
    269c:	82 0f       	add	r24, r18
    269e:	93 1f       	adc	r25, r19
    26a0:	fc 01       	movw	r30, r24
    26a2:	40 81       	ld	r20, Z
    26a4:	8b 81       	ldd	r24, Y+3	; 0x03
    26a6:	88 2f       	mov	r24, r24
    26a8:	90 e0       	ldi	r25, 0x00	; 0
    26aa:	88 0f       	add	r24, r24
    26ac:	99 1f       	adc	r25, r25
    26ae:	2e 81       	ldd	r18, Y+6	; 0x06
    26b0:	3f 81       	ldd	r19, Y+7	; 0x07
    26b2:	82 0f       	add	r24, r18
    26b4:	93 1f       	adc	r25, r19
    26b6:	fc 01       	movw	r30, r24
    26b8:	80 81       	ld	r24, Z
    26ba:	84 17       	cp	r24, r20
    26bc:	40 f0       	brcs	.+16     	; 0x26ce <quicksort+0x7a>
    26be:	99 81       	ldd	r25, Y+1	; 0x01
    26c0:	89 85       	ldd	r24, Y+9	; 0x09
    26c2:	98 17       	cp	r25, r24
    26c4:	08 f3       	brcs	.-62     	; 0x2688 <quicksort+0x34>
    26c6:	03 c0       	rjmp	.+6      	; 0x26ce <quicksort+0x7a>
    26c8:	8a 81       	ldd	r24, Y+2	; 0x02
    26ca:	81 50       	subi	r24, 0x01	; 1
    26cc:	8a 83       	std	Y+2, r24	; 0x02
    26ce:	8a 81       	ldd	r24, Y+2	; 0x02
    26d0:	88 2f       	mov	r24, r24
    26d2:	90 e0       	ldi	r25, 0x00	; 0
    26d4:	88 0f       	add	r24, r24
    26d6:	99 1f       	adc	r25, r25
    26d8:	2e 81       	ldd	r18, Y+6	; 0x06
    26da:	3f 81       	ldd	r19, Y+7	; 0x07
    26dc:	82 0f       	add	r24, r18
    26de:	93 1f       	adc	r25, r19
    26e0:	fc 01       	movw	r30, r24
    26e2:	40 81       	ld	r20, Z
    26e4:	8b 81       	ldd	r24, Y+3	; 0x03
    26e6:	88 2f       	mov	r24, r24
    26e8:	90 e0       	ldi	r25, 0x00	; 0
    26ea:	88 0f       	add	r24, r24
    26ec:	99 1f       	adc	r25, r25
    26ee:	2e 81       	ldd	r18, Y+6	; 0x06
    26f0:	3f 81       	ldd	r19, Y+7	; 0x07
    26f2:	82 0f       	add	r24, r18
    26f4:	93 1f       	adc	r25, r19
    26f6:	fc 01       	movw	r30, r24
    26f8:	80 81       	ld	r24, Z
    26fa:	84 17       	cp	r24, r20
    26fc:	28 f3       	brcs	.-54     	; 0x26c8 <quicksort+0x74>
    26fe:	99 81       	ldd	r25, Y+1	; 0x01
    2700:	8a 81       	ldd	r24, Y+2	; 0x02
    2702:	98 17       	cp	r25, r24
    2704:	a0 f5       	brcc	.+104    	; 0x276e <quicksort+0x11a>
    2706:	89 81       	ldd	r24, Y+1	; 0x01
    2708:	88 2f       	mov	r24, r24
    270a:	90 e0       	ldi	r25, 0x00	; 0
    270c:	88 0f       	add	r24, r24
    270e:	99 1f       	adc	r25, r25
    2710:	2e 81       	ldd	r18, Y+6	; 0x06
    2712:	3f 81       	ldd	r19, Y+7	; 0x07
    2714:	82 0f       	add	r24, r18
    2716:	93 1f       	adc	r25, r19
    2718:	fc 01       	movw	r30, r24
    271a:	80 81       	ld	r24, Z
    271c:	91 81       	ldd	r25, Z+1	; 0x01
    271e:	9d 83       	std	Y+5, r25	; 0x05
    2720:	8c 83       	std	Y+4, r24	; 0x04
    2722:	89 81       	ldd	r24, Y+1	; 0x01
    2724:	88 2f       	mov	r24, r24
    2726:	90 e0       	ldi	r25, 0x00	; 0
    2728:	88 0f       	add	r24, r24
    272a:	99 1f       	adc	r25, r25
    272c:	2e 81       	ldd	r18, Y+6	; 0x06
    272e:	3f 81       	ldd	r19, Y+7	; 0x07
    2730:	82 0f       	add	r24, r18
    2732:	93 1f       	adc	r25, r19
    2734:	2a 81       	ldd	r18, Y+2	; 0x02
    2736:	22 2f       	mov	r18, r18
    2738:	30 e0       	ldi	r19, 0x00	; 0
    273a:	22 0f       	add	r18, r18
    273c:	33 1f       	adc	r19, r19
    273e:	4e 81       	ldd	r20, Y+6	; 0x06
    2740:	5f 81       	ldd	r21, Y+7	; 0x07
    2742:	24 0f       	add	r18, r20
    2744:	35 1f       	adc	r19, r21
    2746:	f9 01       	movw	r30, r18
    2748:	20 81       	ld	r18, Z
    274a:	31 81       	ldd	r19, Z+1	; 0x01
    274c:	fc 01       	movw	r30, r24
    274e:	31 83       	std	Z+1, r19	; 0x01
    2750:	20 83       	st	Z, r18
    2752:	8a 81       	ldd	r24, Y+2	; 0x02
    2754:	88 2f       	mov	r24, r24
    2756:	90 e0       	ldi	r25, 0x00	; 0
    2758:	88 0f       	add	r24, r24
    275a:	99 1f       	adc	r25, r25
    275c:	2e 81       	ldd	r18, Y+6	; 0x06
    275e:	3f 81       	ldd	r19, Y+7	; 0x07
    2760:	82 0f       	add	r24, r18
    2762:	93 1f       	adc	r25, r19
    2764:	2c 81       	ldd	r18, Y+4	; 0x04
    2766:	3d 81       	ldd	r19, Y+5	; 0x05
    2768:	fc 01       	movw	r30, r24
    276a:	31 83       	std	Z+1, r19	; 0x01
    276c:	20 83       	st	Z, r18
    276e:	99 81       	ldd	r25, Y+1	; 0x01
    2770:	8a 81       	ldd	r24, Y+2	; 0x02
    2772:	98 17       	cp	r25, r24
    2774:	08 f4       	brcc	.+2      	; 0x2778 <quicksort+0x124>
    2776:	8b cf       	rjmp	.-234    	; 0x268e <quicksort+0x3a>
    2778:	8b 81       	ldd	r24, Y+3	; 0x03
    277a:	88 2f       	mov	r24, r24
    277c:	90 e0       	ldi	r25, 0x00	; 0
    277e:	88 0f       	add	r24, r24
    2780:	99 1f       	adc	r25, r25
    2782:	2e 81       	ldd	r18, Y+6	; 0x06
    2784:	3f 81       	ldd	r19, Y+7	; 0x07
    2786:	82 0f       	add	r24, r18
    2788:	93 1f       	adc	r25, r19
    278a:	fc 01       	movw	r30, r24
    278c:	80 81       	ld	r24, Z
    278e:	91 81       	ldd	r25, Z+1	; 0x01
    2790:	9d 83       	std	Y+5, r25	; 0x05
    2792:	8c 83       	std	Y+4, r24	; 0x04
    2794:	8b 81       	ldd	r24, Y+3	; 0x03
    2796:	88 2f       	mov	r24, r24
    2798:	90 e0       	ldi	r25, 0x00	; 0
    279a:	88 0f       	add	r24, r24
    279c:	99 1f       	adc	r25, r25
    279e:	2e 81       	ldd	r18, Y+6	; 0x06
    27a0:	3f 81       	ldd	r19, Y+7	; 0x07
    27a2:	82 0f       	add	r24, r18
    27a4:	93 1f       	adc	r25, r19
    27a6:	2a 81       	ldd	r18, Y+2	; 0x02
    27a8:	22 2f       	mov	r18, r18
    27aa:	30 e0       	ldi	r19, 0x00	; 0
    27ac:	22 0f       	add	r18, r18
    27ae:	33 1f       	adc	r19, r19
    27b0:	4e 81       	ldd	r20, Y+6	; 0x06
    27b2:	5f 81       	ldd	r21, Y+7	; 0x07
    27b4:	24 0f       	add	r18, r20
    27b6:	35 1f       	adc	r19, r21
    27b8:	f9 01       	movw	r30, r18
    27ba:	20 81       	ld	r18, Z
    27bc:	31 81       	ldd	r19, Z+1	; 0x01
    27be:	fc 01       	movw	r30, r24
    27c0:	31 83       	std	Z+1, r19	; 0x01
    27c2:	20 83       	st	Z, r18
    27c4:	8a 81       	ldd	r24, Y+2	; 0x02
    27c6:	88 2f       	mov	r24, r24
    27c8:	90 e0       	ldi	r25, 0x00	; 0
    27ca:	88 0f       	add	r24, r24
    27cc:	99 1f       	adc	r25, r25
    27ce:	2e 81       	ldd	r18, Y+6	; 0x06
    27d0:	3f 81       	ldd	r19, Y+7	; 0x07
    27d2:	82 0f       	add	r24, r18
    27d4:	93 1f       	adc	r25, r19
    27d6:	2c 81       	ldd	r18, Y+4	; 0x04
    27d8:	3d 81       	ldd	r19, Y+5	; 0x05
    27da:	fc 01       	movw	r30, r24
    27dc:	31 83       	std	Z+1, r19	; 0x01
    27de:	20 83       	st	Z, r18
    27e0:	8a 81       	ldd	r24, Y+2	; 0x02
    27e2:	2f ef       	ldi	r18, 0xFF	; 255
    27e4:	28 0f       	add	r18, r24
    27e6:	8e 81       	ldd	r24, Y+6	; 0x06
    27e8:	9f 81       	ldd	r25, Y+7	; 0x07
    27ea:	42 2f       	mov	r20, r18
    27ec:	68 85       	ldd	r22, Y+8	; 0x08
    27ee:	32 df       	rcall	.-412    	; 0x2654 <quicksort>
    27f0:	8a 81       	ldd	r24, Y+2	; 0x02
    27f2:	21 e0       	ldi	r18, 0x01	; 1
    27f4:	28 0f       	add	r18, r24
    27f6:	8e 81       	ldd	r24, Y+6	; 0x06
    27f8:	9f 81       	ldd	r25, Y+7	; 0x07
    27fa:	49 85       	ldd	r20, Y+9	; 0x09
    27fc:	62 2f       	mov	r22, r18
    27fe:	2a df       	rcall	.-428    	; 0x2654 <quicksort>
    2800:	8e 81       	ldd	r24, Y+6	; 0x06
    2802:	9f 81       	ldd	r25, Y+7	; 0x07
    2804:	29 96       	adiw	r28, 0x09	; 9
    2806:	0f b6       	in	r0, 0x3f	; 63
    2808:	f8 94       	cli
    280a:	de bf       	out	0x3e, r29	; 62
    280c:	0f be       	out	0x3f, r0	; 63
    280e:	cd bf       	out	0x3d, r28	; 61
    2810:	df 91       	pop	r29
    2812:	cf 91       	pop	r28
    2814:	08 95       	ret

00002816 <sort>:
    2816:	cf 93       	push	r28
    2818:	df 93       	push	r29
    281a:	00 d0       	rcall	.+0      	; 0x281c <sort+0x6>
    281c:	cd b7       	in	r28, 0x3d	; 61
    281e:	de b7       	in	r29, 0x3e	; 62
    2820:	9a 83       	std	Y+2, r25	; 0x02
    2822:	89 83       	std	Y+1, r24	; 0x01
    2824:	89 81       	ldd	r24, Y+1	; 0x01
    2826:	9a 81       	ldd	r25, Y+2	; 0x02
    2828:	45 e0       	ldi	r20, 0x05	; 5
    282a:	60 e0       	ldi	r22, 0x00	; 0
    282c:	13 df       	rcall	.-474    	; 0x2654 <quicksort>
    282e:	0f 90       	pop	r0
    2830:	0f 90       	pop	r0
    2832:	df 91       	pop	r29
    2834:	cf 91       	pop	r28
    2836:	08 95       	ret

00002838 <convQuatToVec>:
    2838:	8f 92       	push	r8
    283a:	9f 92       	push	r9
    283c:	af 92       	push	r10
    283e:	bf 92       	push	r11
    2840:	cf 92       	push	r12
    2842:	df 92       	push	r13
    2844:	ef 92       	push	r14
    2846:	ff 92       	push	r15
    2848:	0f 93       	push	r16
    284a:	1f 93       	push	r17
    284c:	cf 93       	push	r28
    284e:	df 93       	push	r29
    2850:	cd b7       	in	r28, 0x3d	; 61
    2852:	de b7       	in	r29, 0x3e	; 62
    2854:	6e 97       	sbiw	r28, 0x1e	; 30
    2856:	0f b6       	in	r0, 0x3f	; 63
    2858:	f8 94       	cli
    285a:	de bf       	out	0x3e, r29	; 62
    285c:	0f be       	out	0x3f, r0	; 63
    285e:	cd bf       	out	0x3d, r28	; 61
    2860:	9e 87       	std	Y+14, r25	; 0x0e
    2862:	8d 87       	std	Y+13, r24	; 0x0d
    2864:	8f 86       	std	Y+15, r8	; 0x0f
    2866:	98 8a       	std	Y+16, r9	; 0x10
    2868:	a9 8a       	std	Y+17, r10	; 0x11
    286a:	ba 8a       	std	Y+18, r11	; 0x12
    286c:	cb 8a       	std	Y+19, r12	; 0x13
    286e:	dc 8a       	std	Y+20, r13	; 0x14
    2870:	ed 8a       	std	Y+21, r14	; 0x15
    2872:	fe 8a       	std	Y+22, r15	; 0x16
    2874:	0f 8b       	std	Y+23, r16	; 0x17
    2876:	18 8f       	std	Y+24, r17	; 0x18
    2878:	29 8f       	std	Y+25, r18	; 0x19
    287a:	3a 8f       	std	Y+26, r19	; 0x1a
    287c:	4b 8f       	std	Y+27, r20	; 0x1b
    287e:	5c 8f       	std	Y+28, r21	; 0x1c
    2880:	6d 8f       	std	Y+29, r22	; 0x1d
    2882:	7e 8f       	std	Y+30, r23	; 0x1e
    2884:	8b 89       	ldd	r24, Y+19	; 0x13
    2886:	9c 89       	ldd	r25, Y+20	; 0x14
    2888:	ad 89       	ldd	r26, Y+21	; 0x15
    288a:	be 89       	ldd	r27, Y+22	; 0x16
    288c:	89 83       	std	Y+1, r24	; 0x01
    288e:	9a 83       	std	Y+2, r25	; 0x02
    2890:	ab 83       	std	Y+3, r26	; 0x03
    2892:	bc 83       	std	Y+4, r27	; 0x04
    2894:	8f 89       	ldd	r24, Y+23	; 0x17
    2896:	98 8d       	ldd	r25, Y+24	; 0x18
    2898:	a9 8d       	ldd	r26, Y+25	; 0x19
    289a:	ba 8d       	ldd	r27, Y+26	; 0x1a
    289c:	8d 83       	std	Y+5, r24	; 0x05
    289e:	9e 83       	std	Y+6, r25	; 0x06
    28a0:	af 83       	std	Y+7, r26	; 0x07
    28a2:	b8 87       	std	Y+8, r27	; 0x08
    28a4:	8b 8d       	ldd	r24, Y+27	; 0x1b
    28a6:	9c 8d       	ldd	r25, Y+28	; 0x1c
    28a8:	ad 8d       	ldd	r26, Y+29	; 0x1d
    28aa:	be 8d       	ldd	r27, Y+30	; 0x1e
    28ac:	89 87       	std	Y+9, r24	; 0x09
    28ae:	9a 87       	std	Y+10, r25	; 0x0a
    28b0:	ab 87       	std	Y+11, r26	; 0x0b
    28b2:	bc 87       	std	Y+12, r27	; 0x0c
    28b4:	8d 85       	ldd	r24, Y+13	; 0x0d
    28b6:	9e 85       	ldd	r25, Y+14	; 0x0e
    28b8:	4c e0       	ldi	r20, 0x0C	; 12
    28ba:	9e 01       	movw	r18, r28
    28bc:	2f 5f       	subi	r18, 0xFF	; 255
    28be:	3f 4f       	sbci	r19, 0xFF	; 255
    28c0:	f9 01       	movw	r30, r18
    28c2:	dc 01       	movw	r26, r24
    28c4:	01 90       	ld	r0, Z+
    28c6:	0d 92       	st	X+, r0
    28c8:	4a 95       	dec	r20
    28ca:	e1 f7       	brne	.-8      	; 0x28c4 <convQuatToVec+0x8c>
    28cc:	8d 85       	ldd	r24, Y+13	; 0x0d
    28ce:	9e 85       	ldd	r25, Y+14	; 0x0e
    28d0:	6e 96       	adiw	r28, 0x1e	; 30
    28d2:	0f b6       	in	r0, 0x3f	; 63
    28d4:	f8 94       	cli
    28d6:	de bf       	out	0x3e, r29	; 62
    28d8:	0f be       	out	0x3f, r0	; 63
    28da:	cd bf       	out	0x3d, r28	; 61
    28dc:	df 91       	pop	r29
    28de:	cf 91       	pop	r28
    28e0:	1f 91       	pop	r17
    28e2:	0f 91       	pop	r16
    28e4:	ff 90       	pop	r15
    28e6:	ef 90       	pop	r14
    28e8:	df 90       	pop	r13
    28ea:	cf 90       	pop	r12
    28ec:	bf 90       	pop	r11
    28ee:	af 90       	pop	r10
    28f0:	9f 90       	pop	r9
    28f2:	8f 90       	pop	r8
    28f4:	08 95       	ret

000028f6 <multiply>:
    28f6:	8f 92       	push	r8
    28f8:	9f 92       	push	r9
    28fa:	af 92       	push	r10
    28fc:	bf 92       	push	r11
    28fe:	cf 92       	push	r12
    2900:	df 92       	push	r13
    2902:	ef 92       	push	r14
    2904:	ff 92       	push	r15
    2906:	0f 93       	push	r16
    2908:	1f 93       	push	r17
    290a:	cf 93       	push	r28
    290c:	df 93       	push	r29
    290e:	cd b7       	in	r28, 0x3d	; 61
    2910:	de b7       	in	r29, 0x3e	; 62
    2912:	6e 97       	sbiw	r28, 0x1e	; 30
    2914:	0f b6       	in	r0, 0x3f	; 63
    2916:	f8 94       	cli
    2918:	de bf       	out	0x3e, r29	; 62
    291a:	0f be       	out	0x3f, r0	; 63
    291c:	cd bf       	out	0x3d, r28	; 61
    291e:	9e 87       	std	Y+14, r25	; 0x0e
    2920:	8d 87       	std	Y+13, r24	; 0x0d
    2922:	cf 86       	std	Y+15, r12	; 0x0f
    2924:	d8 8a       	std	Y+16, r13	; 0x10
    2926:	e9 8a       	std	Y+17, r14	; 0x11
    2928:	fa 8a       	std	Y+18, r15	; 0x12
    292a:	0b 8b       	std	Y+19, r16	; 0x13
    292c:	1c 8b       	std	Y+20, r17	; 0x14
    292e:	2d 8b       	std	Y+21, r18	; 0x15
    2930:	3e 8b       	std	Y+22, r19	; 0x16
    2932:	4f 8b       	std	Y+23, r20	; 0x17
    2934:	58 8f       	std	Y+24, r21	; 0x18
    2936:	69 8f       	std	Y+25, r22	; 0x19
    2938:	7a 8f       	std	Y+26, r23	; 0x1a
    293a:	8b 8e       	std	Y+27, r8	; 0x1b
    293c:	9c 8e       	std	Y+28, r9	; 0x1c
    293e:	ad 8e       	std	Y+29, r10	; 0x1d
    2940:	be 8e       	std	Y+30, r11	; 0x1e
    2942:	8f 85       	ldd	r24, Y+15	; 0x0f
    2944:	98 89       	ldd	r25, Y+16	; 0x10
    2946:	a9 89       	ldd	r26, Y+17	; 0x11
    2948:	ba 89       	ldd	r27, Y+18	; 0x12
    294a:	2b 8d       	ldd	r18, Y+27	; 0x1b
    294c:	3c 8d       	ldd	r19, Y+28	; 0x1c
    294e:	4d 8d       	ldd	r20, Y+29	; 0x1d
    2950:	5e 8d       	ldd	r21, Y+30	; 0x1e
    2952:	bc 01       	movw	r22, r24
    2954:	cd 01       	movw	r24, r26
    2956:	0e 94 9c 1e 	call	0x3d38	; 0x3d38 <__mulsf3>
    295a:	dc 01       	movw	r26, r24
    295c:	cb 01       	movw	r24, r22
    295e:	89 83       	std	Y+1, r24	; 0x01
    2960:	9a 83       	std	Y+2, r25	; 0x02
    2962:	ab 83       	std	Y+3, r26	; 0x03
    2964:	bc 83       	std	Y+4, r27	; 0x04
    2966:	8b 89       	ldd	r24, Y+19	; 0x13
    2968:	9c 89       	ldd	r25, Y+20	; 0x14
    296a:	ad 89       	ldd	r26, Y+21	; 0x15
    296c:	be 89       	ldd	r27, Y+22	; 0x16
    296e:	2b 8d       	ldd	r18, Y+27	; 0x1b
    2970:	3c 8d       	ldd	r19, Y+28	; 0x1c
    2972:	4d 8d       	ldd	r20, Y+29	; 0x1d
    2974:	5e 8d       	ldd	r21, Y+30	; 0x1e
    2976:	bc 01       	movw	r22, r24
    2978:	cd 01       	movw	r24, r26
    297a:	0e 94 9c 1e 	call	0x3d38	; 0x3d38 <__mulsf3>
    297e:	dc 01       	movw	r26, r24
    2980:	cb 01       	movw	r24, r22
    2982:	8d 83       	std	Y+5, r24	; 0x05
    2984:	9e 83       	std	Y+6, r25	; 0x06
    2986:	af 83       	std	Y+7, r26	; 0x07
    2988:	b8 87       	std	Y+8, r27	; 0x08
    298a:	8f 89       	ldd	r24, Y+23	; 0x17
    298c:	98 8d       	ldd	r25, Y+24	; 0x18
    298e:	a9 8d       	ldd	r26, Y+25	; 0x19
    2990:	ba 8d       	ldd	r27, Y+26	; 0x1a
    2992:	2b 8d       	ldd	r18, Y+27	; 0x1b
    2994:	3c 8d       	ldd	r19, Y+28	; 0x1c
    2996:	4d 8d       	ldd	r20, Y+29	; 0x1d
    2998:	5e 8d       	ldd	r21, Y+30	; 0x1e
    299a:	bc 01       	movw	r22, r24
    299c:	cd 01       	movw	r24, r26
    299e:	0e 94 9c 1e 	call	0x3d38	; 0x3d38 <__mulsf3>
    29a2:	dc 01       	movw	r26, r24
    29a4:	cb 01       	movw	r24, r22
    29a6:	89 87       	std	Y+9, r24	; 0x09
    29a8:	9a 87       	std	Y+10, r25	; 0x0a
    29aa:	ab 87       	std	Y+11, r26	; 0x0b
    29ac:	bc 87       	std	Y+12, r27	; 0x0c
    29ae:	8d 85       	ldd	r24, Y+13	; 0x0d
    29b0:	9e 85       	ldd	r25, Y+14	; 0x0e
    29b2:	4c e0       	ldi	r20, 0x0C	; 12
    29b4:	9e 01       	movw	r18, r28
    29b6:	2f 5f       	subi	r18, 0xFF	; 255
    29b8:	3f 4f       	sbci	r19, 0xFF	; 255
    29ba:	f9 01       	movw	r30, r18
    29bc:	dc 01       	movw	r26, r24
    29be:	01 90       	ld	r0, Z+
    29c0:	0d 92       	st	X+, r0
    29c2:	4a 95       	dec	r20
    29c4:	e1 f7       	brne	.-8      	; 0x29be <multiply+0xc8>
    29c6:	8d 85       	ldd	r24, Y+13	; 0x0d
    29c8:	9e 85       	ldd	r25, Y+14	; 0x0e
    29ca:	6e 96       	adiw	r28, 0x1e	; 30
    29cc:	0f b6       	in	r0, 0x3f	; 63
    29ce:	f8 94       	cli
    29d0:	de bf       	out	0x3e, r29	; 62
    29d2:	0f be       	out	0x3f, r0	; 63
    29d4:	cd bf       	out	0x3d, r28	; 61
    29d6:	df 91       	pop	r29
    29d8:	cf 91       	pop	r28
    29da:	1f 91       	pop	r17
    29dc:	0f 91       	pop	r16
    29de:	ff 90       	pop	r15
    29e0:	ef 90       	pop	r14
    29e2:	df 90       	pop	r13
    29e4:	cf 90       	pop	r12
    29e6:	bf 90       	pop	r11
    29e8:	af 90       	pop	r10
    29ea:	9f 90       	pop	r9
    29ec:	8f 90       	pop	r8
    29ee:	08 95       	ret

000029f0 <add>:
    29f0:	cf 92       	push	r12
    29f2:	df 92       	push	r13
    29f4:	ef 92       	push	r14
    29f6:	ff 92       	push	r15
    29f8:	0f 93       	push	r16
    29fa:	1f 93       	push	r17
    29fc:	cf 93       	push	r28
    29fe:	df 93       	push	r29
    2a00:	cd b7       	in	r28, 0x3d	; 61
    2a02:	de b7       	in	r29, 0x3e	; 62
    2a04:	6a 97       	sbiw	r28, 0x1a	; 26
    2a06:	0f b6       	in	r0, 0x3f	; 63
    2a08:	f8 94       	cli
    2a0a:	de bf       	out	0x3e, r29	; 62
    2a0c:	0f be       	out	0x3f, r0	; 63
    2a0e:	cd bf       	out	0x3d, r28	; 61
    2a10:	9e 87       	std	Y+14, r25	; 0x0e
    2a12:	8d 87       	std	Y+13, r24	; 0x0d
    2a14:	cf 86       	std	Y+15, r12	; 0x0f
    2a16:	d8 8a       	std	Y+16, r13	; 0x10
    2a18:	e9 8a       	std	Y+17, r14	; 0x11
    2a1a:	fa 8a       	std	Y+18, r15	; 0x12
    2a1c:	0b 8b       	std	Y+19, r16	; 0x13
    2a1e:	1c 8b       	std	Y+20, r17	; 0x14
    2a20:	2d 8b       	std	Y+21, r18	; 0x15
    2a22:	3e 8b       	std	Y+22, r19	; 0x16
    2a24:	4f 8b       	std	Y+23, r20	; 0x17
    2a26:	58 8f       	std	Y+24, r21	; 0x18
    2a28:	69 8f       	std	Y+25, r22	; 0x19
    2a2a:	7a 8f       	std	Y+26, r23	; 0x1a
    2a2c:	8f 85       	ldd	r24, Y+15	; 0x0f
    2a2e:	98 89       	ldd	r25, Y+16	; 0x10
    2a30:	a9 89       	ldd	r26, Y+17	; 0x11
    2a32:	ba 89       	ldd	r27, Y+18	; 0x12
    2a34:	2d a1       	ldd	r18, Y+37	; 0x25
    2a36:	3e a1       	ldd	r19, Y+38	; 0x26
    2a38:	4f a1       	ldd	r20, Y+39	; 0x27
    2a3a:	58 a5       	ldd	r21, Y+40	; 0x28
    2a3c:	bc 01       	movw	r22, r24
    2a3e:	cd 01       	movw	r24, r26
    2a40:	21 d7       	rcall	.+3650   	; 0x3884 <__addsf3>
    2a42:	dc 01       	movw	r26, r24
    2a44:	cb 01       	movw	r24, r22
    2a46:	89 83       	std	Y+1, r24	; 0x01
    2a48:	9a 83       	std	Y+2, r25	; 0x02
    2a4a:	ab 83       	std	Y+3, r26	; 0x03
    2a4c:	bc 83       	std	Y+4, r27	; 0x04
    2a4e:	8b 89       	ldd	r24, Y+19	; 0x13
    2a50:	9c 89       	ldd	r25, Y+20	; 0x14
    2a52:	ad 89       	ldd	r26, Y+21	; 0x15
    2a54:	be 89       	ldd	r27, Y+22	; 0x16
    2a56:	29 a5       	ldd	r18, Y+41	; 0x29
    2a58:	3a a5       	ldd	r19, Y+42	; 0x2a
    2a5a:	4b a5       	ldd	r20, Y+43	; 0x2b
    2a5c:	5c a5       	ldd	r21, Y+44	; 0x2c
    2a5e:	bc 01       	movw	r22, r24
    2a60:	cd 01       	movw	r24, r26
    2a62:	10 d7       	rcall	.+3616   	; 0x3884 <__addsf3>
    2a64:	dc 01       	movw	r26, r24
    2a66:	cb 01       	movw	r24, r22
    2a68:	8d 83       	std	Y+5, r24	; 0x05
    2a6a:	9e 83       	std	Y+6, r25	; 0x06
    2a6c:	af 83       	std	Y+7, r26	; 0x07
    2a6e:	b8 87       	std	Y+8, r27	; 0x08
    2a70:	8f 89       	ldd	r24, Y+23	; 0x17
    2a72:	98 8d       	ldd	r25, Y+24	; 0x18
    2a74:	a9 8d       	ldd	r26, Y+25	; 0x19
    2a76:	ba 8d       	ldd	r27, Y+26	; 0x1a
    2a78:	2d a5       	ldd	r18, Y+45	; 0x2d
    2a7a:	3e a5       	ldd	r19, Y+46	; 0x2e
    2a7c:	4f a5       	ldd	r20, Y+47	; 0x2f
    2a7e:	58 a9       	ldd	r21, Y+48	; 0x30
    2a80:	bc 01       	movw	r22, r24
    2a82:	cd 01       	movw	r24, r26
    2a84:	ff d6       	rcall	.+3582   	; 0x3884 <__addsf3>
    2a86:	dc 01       	movw	r26, r24
    2a88:	cb 01       	movw	r24, r22
    2a8a:	89 87       	std	Y+9, r24	; 0x09
    2a8c:	9a 87       	std	Y+10, r25	; 0x0a
    2a8e:	ab 87       	std	Y+11, r26	; 0x0b
    2a90:	bc 87       	std	Y+12, r27	; 0x0c
    2a92:	8d 85       	ldd	r24, Y+13	; 0x0d
    2a94:	9e 85       	ldd	r25, Y+14	; 0x0e
    2a96:	4c e0       	ldi	r20, 0x0C	; 12
    2a98:	9e 01       	movw	r18, r28
    2a9a:	2f 5f       	subi	r18, 0xFF	; 255
    2a9c:	3f 4f       	sbci	r19, 0xFF	; 255
    2a9e:	f9 01       	movw	r30, r18
    2aa0:	dc 01       	movw	r26, r24
    2aa2:	01 90       	ld	r0, Z+
    2aa4:	0d 92       	st	X+, r0
    2aa6:	4a 95       	dec	r20
    2aa8:	e1 f7       	brne	.-8      	; 0x2aa2 <add+0xb2>
    2aaa:	8d 85       	ldd	r24, Y+13	; 0x0d
    2aac:	9e 85       	ldd	r25, Y+14	; 0x0e
    2aae:	6a 96       	adiw	r28, 0x1a	; 26
    2ab0:	0f b6       	in	r0, 0x3f	; 63
    2ab2:	f8 94       	cli
    2ab4:	de bf       	out	0x3e, r29	; 62
    2ab6:	0f be       	out	0x3f, r0	; 63
    2ab8:	cd bf       	out	0x3d, r28	; 61
    2aba:	df 91       	pop	r29
    2abc:	cf 91       	pop	r28
    2abe:	1f 91       	pop	r17
    2ac0:	0f 91       	pop	r16
    2ac2:	ff 90       	pop	r15
    2ac4:	ef 90       	pop	r14
    2ac6:	df 90       	pop	r13
    2ac8:	cf 90       	pop	r12
    2aca:	08 95       	ret

00002acc <subtract>:
    2acc:	8f 92       	push	r8
    2ace:	9f 92       	push	r9
    2ad0:	af 92       	push	r10
    2ad2:	bf 92       	push	r11
    2ad4:	cf 92       	push	r12
    2ad6:	df 92       	push	r13
    2ad8:	ef 92       	push	r14
    2ada:	ff 92       	push	r15
    2adc:	0f 93       	push	r16
    2ade:	1f 93       	push	r17
    2ae0:	cf 93       	push	r28
    2ae2:	df 93       	push	r29
    2ae4:	cd b7       	in	r28, 0x3d	; 61
    2ae6:	de b7       	in	r29, 0x3e	; 62
    2ae8:	6a 97       	sbiw	r28, 0x1a	; 26
    2aea:	0f b6       	in	r0, 0x3f	; 63
    2aec:	f8 94       	cli
    2aee:	de bf       	out	0x3e, r29	; 62
    2af0:	0f be       	out	0x3f, r0	; 63
    2af2:	cd bf       	out	0x3d, r28	; 61
    2af4:	9e 87       	std	Y+14, r25	; 0x0e
    2af6:	8d 87       	std	Y+13, r24	; 0x0d
    2af8:	cf 86       	std	Y+15, r12	; 0x0f
    2afa:	d8 8a       	std	Y+16, r13	; 0x10
    2afc:	e9 8a       	std	Y+17, r14	; 0x11
    2afe:	fa 8a       	std	Y+18, r15	; 0x12
    2b00:	0b 8b       	std	Y+19, r16	; 0x13
    2b02:	1c 8b       	std	Y+20, r17	; 0x14
    2b04:	2d 8b       	std	Y+21, r18	; 0x15
    2b06:	3e 8b       	std	Y+22, r19	; 0x16
    2b08:	4f 8b       	std	Y+23, r20	; 0x17
    2b0a:	58 8f       	std	Y+24, r21	; 0x18
    2b0c:	69 8f       	std	Y+25, r22	; 0x19
    2b0e:	7a 8f       	std	Y+26, r23	; 0x1a
    2b10:	0f 2e       	mov	r0, r31
    2b12:	81 2c       	mov	r8, r1
    2b14:	91 2c       	mov	r9, r1
    2b16:	f0 e8       	ldi	r31, 0x80	; 128
    2b18:	af 2e       	mov	r10, r31
    2b1a:	ff eb       	ldi	r31, 0xBF	; 191
    2b1c:	bf 2e       	mov	r11, r31
    2b1e:	f0 2d       	mov	r31, r0
    2b20:	c9 a4       	ldd	r12, Y+41	; 0x29
    2b22:	da a4       	ldd	r13, Y+42	; 0x2a
    2b24:	eb a4       	ldd	r14, Y+43	; 0x2b
    2b26:	fc a4       	ldd	r15, Y+44	; 0x2c
    2b28:	0d a5       	ldd	r16, Y+45	; 0x2d
    2b2a:	1e a5       	ldd	r17, Y+46	; 0x2e
    2b2c:	2f a5       	ldd	r18, Y+47	; 0x2f
    2b2e:	38 a9       	ldd	r19, Y+48	; 0x30
    2b30:	49 a9       	ldd	r20, Y+49	; 0x31
    2b32:	5a a9       	ldd	r21, Y+50	; 0x32
    2b34:	6b a9       	ldd	r22, Y+51	; 0x33
    2b36:	7c a9       	ldd	r23, Y+52	; 0x34
    2b38:	ce 01       	movw	r24, r28
    2b3a:	01 96       	adiw	r24, 0x01	; 1
    2b3c:	dc de       	rcall	.-584    	; 0x28f6 <multiply>
    2b3e:	ad 84       	ldd	r10, Y+13	; 0x0d
    2b40:	be 84       	ldd	r11, Y+14	; 0x0e
    2b42:	8d b7       	in	r24, 0x3d	; 61
    2b44:	9e b7       	in	r25, 0x3e	; 62
    2b46:	0c 97       	sbiw	r24, 0x0c	; 12
    2b48:	0f b6       	in	r0, 0x3f	; 63
    2b4a:	f8 94       	cli
    2b4c:	9e bf       	out	0x3e, r25	; 62
    2b4e:	0f be       	out	0x3f, r0	; 63
    2b50:	8d bf       	out	0x3d, r24	; 61
    2b52:	8d b7       	in	r24, 0x3d	; 61
    2b54:	9e b7       	in	r25, 0x3e	; 62
    2b56:	01 96       	adiw	r24, 0x01	; 1
    2b58:	4c e0       	ldi	r20, 0x0C	; 12
    2b5a:	9e 01       	movw	r18, r28
    2b5c:	2f 5f       	subi	r18, 0xFF	; 255
    2b5e:	3f 4f       	sbci	r19, 0xFF	; 255
    2b60:	f9 01       	movw	r30, r18
    2b62:	dc 01       	movw	r26, r24
    2b64:	01 90       	ld	r0, Z+
    2b66:	0d 92       	st	X+, r0
    2b68:	4a 95       	dec	r20
    2b6a:	e1 f7       	brne	.-8      	; 0x2b64 <subtract+0x98>
    2b6c:	cf 84       	ldd	r12, Y+15	; 0x0f
    2b6e:	d8 88       	ldd	r13, Y+16	; 0x10
    2b70:	e9 88       	ldd	r14, Y+17	; 0x11
    2b72:	fa 88       	ldd	r15, Y+18	; 0x12
    2b74:	0b 89       	ldd	r16, Y+19	; 0x13
    2b76:	1c 89       	ldd	r17, Y+20	; 0x14
    2b78:	2d 89       	ldd	r18, Y+21	; 0x15
    2b7a:	3e 89       	ldd	r19, Y+22	; 0x16
    2b7c:	4f 89       	ldd	r20, Y+23	; 0x17
    2b7e:	58 8d       	ldd	r21, Y+24	; 0x18
    2b80:	69 8d       	ldd	r22, Y+25	; 0x19
    2b82:	7a 8d       	ldd	r23, Y+26	; 0x1a
    2b84:	c5 01       	movw	r24, r10
    2b86:	34 df       	rcall	.-408    	; 0x29f0 <add>
    2b88:	8d b7       	in	r24, 0x3d	; 61
    2b8a:	9e b7       	in	r25, 0x3e	; 62
    2b8c:	0c 96       	adiw	r24, 0x0c	; 12
    2b8e:	0f b6       	in	r0, 0x3f	; 63
    2b90:	f8 94       	cli
    2b92:	de bf       	out	0x3e, r29	; 62
    2b94:	0f be       	out	0x3f, r0	; 63
    2b96:	cd bf       	out	0x3d, r28	; 61
    2b98:	8d 85       	ldd	r24, Y+13	; 0x0d
    2b9a:	9e 85       	ldd	r25, Y+14	; 0x0e
    2b9c:	6a 96       	adiw	r28, 0x1a	; 26
    2b9e:	0f b6       	in	r0, 0x3f	; 63
    2ba0:	f8 94       	cli
    2ba2:	de bf       	out	0x3e, r29	; 62
    2ba4:	0f be       	out	0x3f, r0	; 63
    2ba6:	cd bf       	out	0x3d, r28	; 61
    2ba8:	df 91       	pop	r29
    2baa:	cf 91       	pop	r28
    2bac:	1f 91       	pop	r17
    2bae:	0f 91       	pop	r16
    2bb0:	ff 90       	pop	r15
    2bb2:	ef 90       	pop	r14
    2bb4:	df 90       	pop	r13
    2bb6:	cf 90       	pop	r12
    2bb8:	bf 90       	pop	r11
    2bba:	af 90       	pop	r10
    2bbc:	9f 90       	pop	r9
    2bbe:	8f 90       	pop	r8
    2bc0:	08 95       	ret

00002bc2 <dot>:
    2bc2:	cf 92       	push	r12
    2bc4:	df 92       	push	r13
    2bc6:	ef 92       	push	r14
    2bc8:	ff 92       	push	r15
    2bca:	0f 93       	push	r16
    2bcc:	1f 93       	push	r17
    2bce:	cf 93       	push	r28
    2bd0:	df 93       	push	r29
    2bd2:	cd b7       	in	r28, 0x3d	; 61
    2bd4:	de b7       	in	r29, 0x3e	; 62
    2bd6:	2c 97       	sbiw	r28, 0x0c	; 12
    2bd8:	0f b6       	in	r0, 0x3f	; 63
    2bda:	f8 94       	cli
    2bdc:	de bf       	out	0x3e, r29	; 62
    2bde:	0f be       	out	0x3f, r0	; 63
    2be0:	cd bf       	out	0x3d, r28	; 61
    2be2:	e9 82       	std	Y+1, r14	; 0x01
    2be4:	fa 82       	std	Y+2, r15	; 0x02
    2be6:	0b 83       	std	Y+3, r16	; 0x03
    2be8:	1c 83       	std	Y+4, r17	; 0x04
    2bea:	2d 83       	std	Y+5, r18	; 0x05
    2bec:	3e 83       	std	Y+6, r19	; 0x06
    2bee:	4f 83       	std	Y+7, r20	; 0x07
    2bf0:	58 87       	std	Y+8, r21	; 0x08
    2bf2:	69 87       	std	Y+9, r22	; 0x09
    2bf4:	7a 87       	std	Y+10, r23	; 0x0a
    2bf6:	8b 87       	std	Y+11, r24	; 0x0b
    2bf8:	9c 87       	std	Y+12, r25	; 0x0c
    2bfa:	89 81       	ldd	r24, Y+1	; 0x01
    2bfc:	9a 81       	ldd	r25, Y+2	; 0x02
    2bfe:	ab 81       	ldd	r26, Y+3	; 0x03
    2c00:	bc 81       	ldd	r27, Y+4	; 0x04
    2c02:	2f 89       	ldd	r18, Y+23	; 0x17
    2c04:	38 8d       	ldd	r19, Y+24	; 0x18
    2c06:	49 8d       	ldd	r20, Y+25	; 0x19
    2c08:	5a 8d       	ldd	r21, Y+26	; 0x1a
    2c0a:	bc 01       	movw	r22, r24
    2c0c:	cd 01       	movw	r24, r26
    2c0e:	0e 94 9c 1e 	call	0x3d38	; 0x3d38 <__mulsf3>
    2c12:	dc 01       	movw	r26, r24
    2c14:	cb 01       	movw	r24, r22
    2c16:	6c 01       	movw	r12, r24
    2c18:	7d 01       	movw	r14, r26
    2c1a:	8d 81       	ldd	r24, Y+5	; 0x05
    2c1c:	9e 81       	ldd	r25, Y+6	; 0x06
    2c1e:	af 81       	ldd	r26, Y+7	; 0x07
    2c20:	b8 85       	ldd	r27, Y+8	; 0x08
    2c22:	2b 8d       	ldd	r18, Y+27	; 0x1b
    2c24:	3c 8d       	ldd	r19, Y+28	; 0x1c
    2c26:	4d 8d       	ldd	r20, Y+29	; 0x1d
    2c28:	5e 8d       	ldd	r21, Y+30	; 0x1e
    2c2a:	bc 01       	movw	r22, r24
    2c2c:	cd 01       	movw	r24, r26
    2c2e:	0e 94 9c 1e 	call	0x3d38	; 0x3d38 <__mulsf3>
    2c32:	dc 01       	movw	r26, r24
    2c34:	cb 01       	movw	r24, r22
    2c36:	9c 01       	movw	r18, r24
    2c38:	ad 01       	movw	r20, r26
    2c3a:	c7 01       	movw	r24, r14
    2c3c:	b6 01       	movw	r22, r12
    2c3e:	22 d6       	rcall	.+3140   	; 0x3884 <__addsf3>
    2c40:	dc 01       	movw	r26, r24
    2c42:	cb 01       	movw	r24, r22
    2c44:	6c 01       	movw	r12, r24
    2c46:	7d 01       	movw	r14, r26
    2c48:	89 85       	ldd	r24, Y+9	; 0x09
    2c4a:	9a 85       	ldd	r25, Y+10	; 0x0a
    2c4c:	ab 85       	ldd	r26, Y+11	; 0x0b
    2c4e:	bc 85       	ldd	r27, Y+12	; 0x0c
    2c50:	2f 8d       	ldd	r18, Y+31	; 0x1f
    2c52:	38 a1       	ldd	r19, Y+32	; 0x20
    2c54:	49 a1       	ldd	r20, Y+33	; 0x21
    2c56:	5a a1       	ldd	r21, Y+34	; 0x22
    2c58:	bc 01       	movw	r22, r24
    2c5a:	cd 01       	movw	r24, r26
    2c5c:	0e 94 9c 1e 	call	0x3d38	; 0x3d38 <__mulsf3>
    2c60:	dc 01       	movw	r26, r24
    2c62:	cb 01       	movw	r24, r22
    2c64:	9c 01       	movw	r18, r24
    2c66:	ad 01       	movw	r20, r26
    2c68:	c7 01       	movw	r24, r14
    2c6a:	b6 01       	movw	r22, r12
    2c6c:	0b d6       	rcall	.+3094   	; 0x3884 <__addsf3>
    2c6e:	dc 01       	movw	r26, r24
    2c70:	cb 01       	movw	r24, r22
    2c72:	bc 01       	movw	r22, r24
    2c74:	cd 01       	movw	r24, r26
    2c76:	2c 96       	adiw	r28, 0x0c	; 12
    2c78:	0f b6       	in	r0, 0x3f	; 63
    2c7a:	f8 94       	cli
    2c7c:	de bf       	out	0x3e, r29	; 62
    2c7e:	0f be       	out	0x3f, r0	; 63
    2c80:	cd bf       	out	0x3d, r28	; 61
    2c82:	df 91       	pop	r29
    2c84:	cf 91       	pop	r28
    2c86:	1f 91       	pop	r17
    2c88:	0f 91       	pop	r16
    2c8a:	ff 90       	pop	r15
    2c8c:	ef 90       	pop	r14
    2c8e:	df 90       	pop	r13
    2c90:	cf 90       	pop	r12
    2c92:	08 95       	ret

00002c94 <magnitude>:
    2c94:	ef 92       	push	r14
    2c96:	ff 92       	push	r15
    2c98:	0f 93       	push	r16
    2c9a:	1f 93       	push	r17
    2c9c:	cf 93       	push	r28
    2c9e:	df 93       	push	r29
    2ca0:	cd b7       	in	r28, 0x3d	; 61
    2ca2:	de b7       	in	r29, 0x3e	; 62
    2ca4:	2c 97       	sbiw	r28, 0x0c	; 12
    2ca6:	0f b6       	in	r0, 0x3f	; 63
    2ca8:	f8 94       	cli
    2caa:	de bf       	out	0x3e, r29	; 62
    2cac:	0f be       	out	0x3f, r0	; 63
    2cae:	cd bf       	out	0x3d, r28	; 61
    2cb0:	e9 82       	std	Y+1, r14	; 0x01
    2cb2:	fa 82       	std	Y+2, r15	; 0x02
    2cb4:	0b 83       	std	Y+3, r16	; 0x03
    2cb6:	1c 83       	std	Y+4, r17	; 0x04
    2cb8:	2d 83       	std	Y+5, r18	; 0x05
    2cba:	3e 83       	std	Y+6, r19	; 0x06
    2cbc:	4f 83       	std	Y+7, r20	; 0x07
    2cbe:	58 87       	std	Y+8, r21	; 0x08
    2cc0:	69 87       	std	Y+9, r22	; 0x09
    2cc2:	7a 87       	std	Y+10, r23	; 0x0a
    2cc4:	8b 87       	std	Y+11, r24	; 0x0b
    2cc6:	9c 87       	std	Y+12, r25	; 0x0c
    2cc8:	2d b7       	in	r18, 0x3d	; 61
    2cca:	3e b7       	in	r19, 0x3e	; 62
    2ccc:	2c 50       	subi	r18, 0x0C	; 12
    2cce:	31 09       	sbc	r19, r1
    2cd0:	0f b6       	in	r0, 0x3f	; 63
    2cd2:	f8 94       	cli
    2cd4:	3e bf       	out	0x3e, r19	; 62
    2cd6:	0f be       	out	0x3f, r0	; 63
    2cd8:	2d bf       	out	0x3d, r18	; 61
    2cda:	8d b7       	in	r24, 0x3d	; 61
    2cdc:	9e b7       	in	r25, 0x3e	; 62
    2cde:	01 96       	adiw	r24, 0x01	; 1
    2ce0:	4c e0       	ldi	r20, 0x0C	; 12
    2ce2:	9e 01       	movw	r18, r28
    2ce4:	2f 5f       	subi	r18, 0xFF	; 255
    2ce6:	3f 4f       	sbci	r19, 0xFF	; 255
    2ce8:	f9 01       	movw	r30, r18
    2cea:	dc 01       	movw	r26, r24
    2cec:	01 90       	ld	r0, Z+
    2cee:	0d 92       	st	X+, r0
    2cf0:	4a 95       	dec	r20
    2cf2:	e1 f7       	brne	.-8      	; 0x2cec <magnitude+0x58>
    2cf4:	e9 80       	ldd	r14, Y+1	; 0x01
    2cf6:	fa 80       	ldd	r15, Y+2	; 0x02
    2cf8:	0b 81       	ldd	r16, Y+3	; 0x03
    2cfa:	1c 81       	ldd	r17, Y+4	; 0x04
    2cfc:	2d 81       	ldd	r18, Y+5	; 0x05
    2cfe:	3e 81       	ldd	r19, Y+6	; 0x06
    2d00:	4f 81       	ldd	r20, Y+7	; 0x07
    2d02:	58 85       	ldd	r21, Y+8	; 0x08
    2d04:	69 85       	ldd	r22, Y+9	; 0x09
    2d06:	7a 85       	ldd	r23, Y+10	; 0x0a
    2d08:	8b 85       	ldd	r24, Y+11	; 0x0b
    2d0a:	9c 85       	ldd	r25, Y+12	; 0x0c
    2d0c:	5a df       	rcall	.-332    	; 0x2bc2 <dot>
    2d0e:	2d b7       	in	r18, 0x3d	; 61
    2d10:	3e b7       	in	r19, 0x3e	; 62
    2d12:	24 5f       	subi	r18, 0xF4	; 244
    2d14:	3f 4f       	sbci	r19, 0xFF	; 255
    2d16:	0f b6       	in	r0, 0x3f	; 63
    2d18:	f8 94       	cli
    2d1a:	de bf       	out	0x3e, r29	; 62
    2d1c:	0f be       	out	0x3f, r0	; 63
    2d1e:	cd bf       	out	0x3d, r28	; 61
    2d20:	dc 01       	movw	r26, r24
    2d22:	cb 01       	movw	r24, r22
    2d24:	bc 01       	movw	r22, r24
    2d26:	cd 01       	movw	r24, r26
    2d28:	0e 94 09 1f 	call	0x3e12	; 0x3e12 <sqrt>
    2d2c:	dc 01       	movw	r26, r24
    2d2e:	cb 01       	movw	r24, r22
    2d30:	bc 01       	movw	r22, r24
    2d32:	cd 01       	movw	r24, r26
    2d34:	2c 96       	adiw	r28, 0x0c	; 12
    2d36:	0f b6       	in	r0, 0x3f	; 63
    2d38:	f8 94       	cli
    2d3a:	de bf       	out	0x3e, r29	; 62
    2d3c:	0f be       	out	0x3f, r0	; 63
    2d3e:	cd bf       	out	0x3d, r28	; 61
    2d40:	df 91       	pop	r29
    2d42:	cf 91       	pop	r28
    2d44:	1f 91       	pop	r17
    2d46:	0f 91       	pop	r16
    2d48:	ff 90       	pop	r15
    2d4a:	ef 90       	pop	r14
    2d4c:	08 95       	ret

00002d4e <rotate>:
    2d4e:	6f 92       	push	r6
    2d50:	7f 92       	push	r7
    2d52:	8f 92       	push	r8
    2d54:	9f 92       	push	r9
    2d56:	af 92       	push	r10
    2d58:	bf 92       	push	r11
    2d5a:	cf 92       	push	r12
    2d5c:	df 92       	push	r13
    2d5e:	ef 92       	push	r14
    2d60:	ff 92       	push	r15
    2d62:	0f 93       	push	r16
    2d64:	1f 93       	push	r17
    2d66:	cf 93       	push	r28
    2d68:	df 93       	push	r29
    2d6a:	cd b7       	in	r28, 0x3d	; 61
    2d6c:	de b7       	in	r29, 0x3e	; 62
    2d6e:	ce 54       	subi	r28, 0x4E	; 78
    2d70:	d1 09       	sbc	r29, r1
    2d72:	0f b6       	in	r0, 0x3f	; 63
    2d74:	f8 94       	cli
    2d76:	de bf       	out	0x3e, r29	; 62
    2d78:	0f be       	out	0x3f, r0	; 63
    2d7a:	cd bf       	out	0x3d, r28	; 61
    2d7c:	fe 01       	movw	r30, r28
    2d7e:	ef 5b       	subi	r30, 0xBF	; 191
    2d80:	ff 4f       	sbci	r31, 0xFF	; 255
    2d82:	91 83       	std	Z+1, r25	; 0x01
    2d84:	80 83       	st	Z, r24
    2d86:	ce 01       	movw	r24, r28
    2d88:	8d 5b       	subi	r24, 0xBD	; 189
    2d8a:	9f 4f       	sbci	r25, 0xFF	; 255
    2d8c:	dc 01       	movw	r26, r24
    2d8e:	cc 92       	st	X, r12
    2d90:	fc 01       	movw	r30, r24
    2d92:	d1 82       	std	Z+1, r13	; 0x01
    2d94:	dc 01       	movw	r26, r24
    2d96:	12 96       	adiw	r26, 0x02	; 2
    2d98:	ec 92       	st	X, r14
    2d9a:	fc 01       	movw	r30, r24
    2d9c:	f3 82       	std	Z+3, r15	; 0x03
    2d9e:	dc 01       	movw	r26, r24
    2da0:	14 96       	adiw	r26, 0x04	; 4
    2da2:	0c 93       	st	X, r16
    2da4:	fc 01       	movw	r30, r24
    2da6:	15 83       	std	Z+5, r17	; 0x05
    2da8:	dc 01       	movw	r26, r24
    2daa:	16 96       	adiw	r26, 0x06	; 6
    2dac:	2c 93       	st	X, r18
    2dae:	fc 01       	movw	r30, r24
    2db0:	37 83       	std	Z+7, r19	; 0x07
    2db2:	dc 01       	movw	r26, r24
    2db4:	18 96       	adiw	r26, 0x08	; 8
    2db6:	4c 93       	st	X, r20
    2db8:	fc 01       	movw	r30, r24
    2dba:	51 87       	std	Z+9, r21	; 0x09
    2dbc:	dc 01       	movw	r26, r24
    2dbe:	1a 96       	adiw	r26, 0x0a	; 10
    2dc0:	6c 93       	st	X, r22
    2dc2:	fc 01       	movw	r30, r24
    2dc4:	73 87       	std	Z+11, r23	; 0x0b
    2dc6:	fe 01       	movw	r30, r28
    2dc8:	b1 96       	adiw	r30, 0x21	; 33
    2dca:	ce 01       	movw	r24, r28
    2dcc:	8d 5b       	subi	r24, 0xBD	; 189
    2dce:	9f 4f       	sbci	r25, 0xFF	; 255
    2dd0:	dc 01       	movw	r26, r24
    2dd2:	cc 90       	ld	r12, X
    2dd4:	dc 01       	movw	r26, r24
    2dd6:	11 96       	adiw	r26, 0x01	; 1
    2dd8:	dc 90       	ld	r13, X
    2dda:	dc 01       	movw	r26, r24
    2ddc:	12 96       	adiw	r26, 0x02	; 2
    2dde:	ec 90       	ld	r14, X
    2de0:	dc 01       	movw	r26, r24
    2de2:	13 96       	adiw	r26, 0x03	; 3
    2de4:	fc 90       	ld	r15, X
    2de6:	dc 01       	movw	r26, r24
    2de8:	14 96       	adiw	r26, 0x04	; 4
    2dea:	0c 91       	ld	r16, X
    2dec:	dc 01       	movw	r26, r24
    2dee:	15 96       	adiw	r26, 0x05	; 5
    2df0:	1c 91       	ld	r17, X
    2df2:	dc 01       	movw	r26, r24
    2df4:	16 96       	adiw	r26, 0x06	; 6
    2df6:	2c 91       	ld	r18, X
    2df8:	dc 01       	movw	r26, r24
    2dfa:	17 96       	adiw	r26, 0x07	; 7
    2dfc:	3c 91       	ld	r19, X
    2dfe:	dc 01       	movw	r26, r24
    2e00:	18 96       	adiw	r26, 0x08	; 8
    2e02:	4c 91       	ld	r20, X
    2e04:	dc 01       	movw	r26, r24
    2e06:	19 96       	adiw	r26, 0x09	; 9
    2e08:	5c 91       	ld	r21, X
    2e0a:	dc 01       	movw	r26, r24
    2e0c:	1a 96       	adiw	r26, 0x0a	; 10
    2e0e:	6c 91       	ld	r22, X
    2e10:	dc 01       	movw	r26, r24
    2e12:	1b 96       	adiw	r26, 0x0b	; 11
    2e14:	7c 91       	ld	r23, X
    2e16:	cf 01       	movw	r24, r30
    2e18:	fe d8       	rcall	.-3588   	; 0x2016 <convVecToQuat>
    2e1a:	ce 01       	movw	r24, r28
    2e1c:	41 96       	adiw	r24, 0x11	; 17
    2e1e:	a0 96       	adiw	r28, 0x20	; 32
    2e20:	8f ac       	ldd	r8, Y+63	; 0x3f
    2e22:	a0 97       	sbiw	r28, 0x20	; 32
    2e24:	a1 96       	adiw	r28, 0x21	; 33
    2e26:	9f ac       	ldd	r9, Y+63	; 0x3f
    2e28:	a1 97       	sbiw	r28, 0x21	; 33
    2e2a:	a2 96       	adiw	r28, 0x22	; 34
    2e2c:	af ac       	ldd	r10, Y+63	; 0x3f
    2e2e:	a2 97       	sbiw	r28, 0x22	; 34
    2e30:	a3 96       	adiw	r28, 0x23	; 35
    2e32:	bf ac       	ldd	r11, Y+63	; 0x3f
    2e34:	a3 97       	sbiw	r28, 0x23	; 35
    2e36:	a4 96       	adiw	r28, 0x24	; 36
    2e38:	cf ac       	ldd	r12, Y+63	; 0x3f
    2e3a:	a4 97       	sbiw	r28, 0x24	; 36
    2e3c:	a5 96       	adiw	r28, 0x25	; 37
    2e3e:	df ac       	ldd	r13, Y+63	; 0x3f
    2e40:	a5 97       	sbiw	r28, 0x25	; 37
    2e42:	a6 96       	adiw	r28, 0x26	; 38
    2e44:	ef ac       	ldd	r14, Y+63	; 0x3f
    2e46:	a6 97       	sbiw	r28, 0x26	; 38
    2e48:	a7 96       	adiw	r28, 0x27	; 39
    2e4a:	ff ac       	ldd	r15, Y+63	; 0x3f
    2e4c:	a7 97       	sbiw	r28, 0x27	; 39
    2e4e:	a8 96       	adiw	r28, 0x28	; 40
    2e50:	0f ad       	ldd	r16, Y+63	; 0x3f
    2e52:	a8 97       	sbiw	r28, 0x28	; 40
    2e54:	a9 96       	adiw	r28, 0x29	; 41
    2e56:	1f ad       	ldd	r17, Y+63	; 0x3f
    2e58:	a9 97       	sbiw	r28, 0x29	; 41
    2e5a:	aa 96       	adiw	r28, 0x2a	; 42
    2e5c:	2f ad       	ldd	r18, Y+63	; 0x3f
    2e5e:	aa 97       	sbiw	r28, 0x2a	; 42
    2e60:	ab 96       	adiw	r28, 0x2b	; 43
    2e62:	3f ad       	ldd	r19, Y+63	; 0x3f
    2e64:	ab 97       	sbiw	r28, 0x2b	; 43
    2e66:	ac 96       	adiw	r28, 0x2c	; 44
    2e68:	4f ad       	ldd	r20, Y+63	; 0x3f
    2e6a:	ac 97       	sbiw	r28, 0x2c	; 44
    2e6c:	ad 96       	adiw	r28, 0x2d	; 45
    2e6e:	5f ad       	ldd	r21, Y+63	; 0x3f
    2e70:	ad 97       	sbiw	r28, 0x2d	; 45
    2e72:	ae 96       	adiw	r28, 0x2e	; 46
    2e74:	6f ad       	ldd	r22, Y+63	; 0x3f
    2e76:	ae 97       	sbiw	r28, 0x2e	; 46
    2e78:	af 96       	adiw	r28, 0x2f	; 47
    2e7a:	7f ad       	ldd	r23, Y+63	; 0x3f
    2e7c:	af 97       	sbiw	r28, 0x2f	; 47
    2e7e:	c9 d9       	rcall	.-3182   	; 0x2212 <conjugate>
    2e80:	ed b7       	in	r30, 0x3d	; 61
    2e82:	fe b7       	in	r31, 0x3e	; 62
    2e84:	70 97       	sbiw	r30, 0x10	; 16
    2e86:	0f b6       	in	r0, 0x3f	; 63
    2e88:	f8 94       	cli
    2e8a:	fe bf       	out	0x3e, r31	; 62
    2e8c:	0f be       	out	0x3f, r0	; 63
    2e8e:	ed bf       	out	0x3d, r30	; 61
    2e90:	8d b7       	in	r24, 0x3d	; 61
    2e92:	9e b7       	in	r25, 0x3e	; 62
    2e94:	01 96       	adiw	r24, 0x01	; 1
    2e96:	20 e1       	ldi	r18, 0x10	; 16
    2e98:	fe 01       	movw	r30, r28
    2e9a:	b1 96       	adiw	r30, 0x21	; 33
    2e9c:	dc 01       	movw	r26, r24
    2e9e:	01 90       	ld	r0, Z+
    2ea0:	0d 92       	st	X+, r0
    2ea2:	2a 95       	dec	r18
    2ea4:	e1 f7       	brne	.-8      	; 0x2e9e <rotate+0x150>
    2ea6:	a0 96       	adiw	r28, 0x20	; 32
    2ea8:	8f ac       	ldd	r8, Y+63	; 0x3f
    2eaa:	a0 97       	sbiw	r28, 0x20	; 32
    2eac:	a1 96       	adiw	r28, 0x21	; 33
    2eae:	9f ac       	ldd	r9, Y+63	; 0x3f
    2eb0:	a1 97       	sbiw	r28, 0x21	; 33
    2eb2:	a2 96       	adiw	r28, 0x22	; 34
    2eb4:	af ac       	ldd	r10, Y+63	; 0x3f
    2eb6:	a2 97       	sbiw	r28, 0x22	; 34
    2eb8:	a3 96       	adiw	r28, 0x23	; 35
    2eba:	bf ac       	ldd	r11, Y+63	; 0x3f
    2ebc:	a3 97       	sbiw	r28, 0x23	; 35
    2ebe:	a4 96       	adiw	r28, 0x24	; 36
    2ec0:	cf ac       	ldd	r12, Y+63	; 0x3f
    2ec2:	a4 97       	sbiw	r28, 0x24	; 36
    2ec4:	a5 96       	adiw	r28, 0x25	; 37
    2ec6:	df ac       	ldd	r13, Y+63	; 0x3f
    2ec8:	a5 97       	sbiw	r28, 0x25	; 37
    2eca:	a6 96       	adiw	r28, 0x26	; 38
    2ecc:	ef ac       	ldd	r14, Y+63	; 0x3f
    2ece:	a6 97       	sbiw	r28, 0x26	; 38
    2ed0:	a7 96       	adiw	r28, 0x27	; 39
    2ed2:	ff ac       	ldd	r15, Y+63	; 0x3f
    2ed4:	a7 97       	sbiw	r28, 0x27	; 39
    2ed6:	a8 96       	adiw	r28, 0x28	; 40
    2ed8:	0f ad       	ldd	r16, Y+63	; 0x3f
    2eda:	a8 97       	sbiw	r28, 0x28	; 40
    2edc:	a9 96       	adiw	r28, 0x29	; 41
    2ede:	1f ad       	ldd	r17, Y+63	; 0x3f
    2ee0:	a9 97       	sbiw	r28, 0x29	; 41
    2ee2:	aa 96       	adiw	r28, 0x2a	; 42
    2ee4:	2f ad       	ldd	r18, Y+63	; 0x3f
    2ee6:	aa 97       	sbiw	r28, 0x2a	; 42
    2ee8:	ab 96       	adiw	r28, 0x2b	; 43
    2eea:	3f ad       	ldd	r19, Y+63	; 0x3f
    2eec:	ab 97       	sbiw	r28, 0x2b	; 43
    2eee:	ac 96       	adiw	r28, 0x2c	; 44
    2ef0:	4f ad       	ldd	r20, Y+63	; 0x3f
    2ef2:	ac 97       	sbiw	r28, 0x2c	; 44
    2ef4:	ad 96       	adiw	r28, 0x2d	; 45
    2ef6:	5f ad       	ldd	r21, Y+63	; 0x3f
    2ef8:	ad 97       	sbiw	r28, 0x2d	; 45
    2efa:	ae 96       	adiw	r28, 0x2e	; 46
    2efc:	6f ad       	ldd	r22, Y+63	; 0x3f
    2efe:	ae 97       	sbiw	r28, 0x2e	; 46
    2f00:	af 96       	adiw	r28, 0x2f	; 47
    2f02:	7f ad       	ldd	r23, Y+63	; 0x3f
    2f04:	af 97       	sbiw	r28, 0x2f	; 47
    2f06:	ce 01       	movw	r24, r28
    2f08:	01 96       	adiw	r24, 0x01	; 1
    2f0a:	ed d9       	rcall	.-3110   	; 0x22e6 <hamiltonP>
    2f0c:	8d b7       	in	r24, 0x3d	; 61
    2f0e:	9e b7       	in	r25, 0x3e	; 62
    2f10:	40 96       	adiw	r24, 0x10	; 16
    2f12:	0f b6       	in	r0, 0x3f	; 63
    2f14:	f8 94       	cli
    2f16:	de bf       	out	0x3e, r29	; 62
    2f18:	0f be       	out	0x3f, r0	; 63
    2f1a:	cd bf       	out	0x3d, r28	; 61
    2f1c:	3e 01       	movw	r6, r28
    2f1e:	91 e3       	ldi	r25, 0x31	; 49
    2f20:	69 0e       	add	r6, r25
    2f22:	71 1c       	adc	r7, r1
    2f24:	ad b7       	in	r26, 0x3d	; 61
    2f26:	be b7       	in	r27, 0x3e	; 62
    2f28:	50 97       	sbiw	r26, 0x10	; 16
    2f2a:	0f b6       	in	r0, 0x3f	; 63
    2f2c:	f8 94       	cli
    2f2e:	be bf       	out	0x3e, r27	; 62
    2f30:	0f be       	out	0x3f, r0	; 63
    2f32:	ad bf       	out	0x3d, r26	; 61
    2f34:	8d b7       	in	r24, 0x3d	; 61
    2f36:	9e b7       	in	r25, 0x3e	; 62
    2f38:	01 96       	adiw	r24, 0x01	; 1
    2f3a:	20 e1       	ldi	r18, 0x10	; 16
    2f3c:	fe 01       	movw	r30, r28
    2f3e:	71 96       	adiw	r30, 0x11	; 17
    2f40:	dc 01       	movw	r26, r24
    2f42:	01 90       	ld	r0, Z+
    2f44:	0d 92       	st	X+, r0
    2f46:	2a 95       	dec	r18
    2f48:	e1 f7       	brne	.-8      	; 0x2f42 <rotate+0x1f4>
    2f4a:	89 80       	ldd	r8, Y+1	; 0x01
    2f4c:	9a 80       	ldd	r9, Y+2	; 0x02
    2f4e:	ab 80       	ldd	r10, Y+3	; 0x03
    2f50:	bc 80       	ldd	r11, Y+4	; 0x04
    2f52:	cd 80       	ldd	r12, Y+5	; 0x05
    2f54:	de 80       	ldd	r13, Y+6	; 0x06
    2f56:	ef 80       	ldd	r14, Y+7	; 0x07
    2f58:	f8 84       	ldd	r15, Y+8	; 0x08
    2f5a:	09 85       	ldd	r16, Y+9	; 0x09
    2f5c:	1a 85       	ldd	r17, Y+10	; 0x0a
    2f5e:	2b 85       	ldd	r18, Y+11	; 0x0b
    2f60:	3c 85       	ldd	r19, Y+12	; 0x0c
    2f62:	4d 85       	ldd	r20, Y+13	; 0x0d
    2f64:	5e 85       	ldd	r21, Y+14	; 0x0e
    2f66:	6f 85       	ldd	r22, Y+15	; 0x0f
    2f68:	78 89       	ldd	r23, Y+16	; 0x10
    2f6a:	c3 01       	movw	r24, r6
    2f6c:	bc d9       	rcall	.-3208   	; 0x22e6 <hamiltonP>
    2f6e:	ed b7       	in	r30, 0x3d	; 61
    2f70:	fe b7       	in	r31, 0x3e	; 62
    2f72:	70 96       	adiw	r30, 0x10	; 16
    2f74:	0f b6       	in	r0, 0x3f	; 63
    2f76:	f8 94       	cli
    2f78:	de bf       	out	0x3e, r29	; 62
    2f7a:	0f be       	out	0x3f, r0	; 63
    2f7c:	cd bf       	out	0x3d, r28	; 61
    2f7e:	ce 01       	movw	r24, r28
    2f80:	8f 5b       	subi	r24, 0xBF	; 191
    2f82:	9f 4f       	sbci	r25, 0xFF	; 255
    2f84:	dc 01       	movw	r26, r24
    2f86:	ed 91       	ld	r30, X+
    2f88:	fc 91       	ld	r31, X
    2f8a:	89 a8       	ldd	r8, Y+49	; 0x31
    2f8c:	9a a8       	ldd	r9, Y+50	; 0x32
    2f8e:	ab a8       	ldd	r10, Y+51	; 0x33
    2f90:	bc a8       	ldd	r11, Y+52	; 0x34
    2f92:	cd a8       	ldd	r12, Y+53	; 0x35
    2f94:	de a8       	ldd	r13, Y+54	; 0x36
    2f96:	ef a8       	ldd	r14, Y+55	; 0x37
    2f98:	f8 ac       	ldd	r15, Y+56	; 0x38
    2f9a:	09 ad       	ldd	r16, Y+57	; 0x39
    2f9c:	1a ad       	ldd	r17, Y+58	; 0x3a
    2f9e:	2b ad       	ldd	r18, Y+59	; 0x3b
    2fa0:	3c ad       	ldd	r19, Y+60	; 0x3c
    2fa2:	4d ad       	ldd	r20, Y+61	; 0x3d
    2fa4:	5e ad       	ldd	r21, Y+62	; 0x3e
    2fa6:	6f ad       	ldd	r22, Y+63	; 0x3f
    2fa8:	ce 01       	movw	r24, r28
    2faa:	80 5c       	subi	r24, 0xC0	; 192
    2fac:	9f 4f       	sbci	r25, 0xFF	; 255
    2fae:	dc 01       	movw	r26, r24
    2fb0:	7c 91       	ld	r23, X
    2fb2:	cf 01       	movw	r24, r30
    2fb4:	41 dc       	rcall	.-1918   	; 0x2838 <convQuatToVec>
    2fb6:	ce 01       	movw	r24, r28
    2fb8:	8f 5b       	subi	r24, 0xBF	; 191
    2fba:	9f 4f       	sbci	r25, 0xFF	; 255
    2fbc:	fc 01       	movw	r30, r24
    2fbe:	80 81       	ld	r24, Z
    2fc0:	91 81       	ldd	r25, Z+1	; 0x01
    2fc2:	c2 5b       	subi	r28, 0xB2	; 178
    2fc4:	df 4f       	sbci	r29, 0xFF	; 255
    2fc6:	0f b6       	in	r0, 0x3f	; 63
    2fc8:	f8 94       	cli
    2fca:	de bf       	out	0x3e, r29	; 62
    2fcc:	0f be       	out	0x3f, r0	; 63
    2fce:	cd bf       	out	0x3d, r28	; 61
    2fd0:	df 91       	pop	r29
    2fd2:	cf 91       	pop	r28
    2fd4:	1f 91       	pop	r17
    2fd6:	0f 91       	pop	r16
    2fd8:	ff 90       	pop	r15
    2fda:	ef 90       	pop	r14
    2fdc:	df 90       	pop	r13
    2fde:	cf 90       	pop	r12
    2fe0:	bf 90       	pop	r11
    2fe2:	af 90       	pop	r10
    2fe4:	9f 90       	pop	r9
    2fe6:	8f 90       	pop	r8
    2fe8:	7f 90       	pop	r7
    2fea:	6f 90       	pop	r6
    2fec:	08 95       	ret

00002fee <main>:
    2fee:	6f 92       	push	r6
    2ff0:	7f 92       	push	r7
    2ff2:	8f 92       	push	r8
    2ff4:	9f 92       	push	r9
    2ff6:	af 92       	push	r10
    2ff8:	bf 92       	push	r11
    2ffa:	cf 92       	push	r12
    2ffc:	df 92       	push	r13
    2ffe:	ef 92       	push	r14
    3000:	ff 92       	push	r15
    3002:	0f 93       	push	r16
    3004:	1f 93       	push	r17
    3006:	cf 93       	push	r28
    3008:	df 93       	push	r29
    300a:	cd b7       	in	r28, 0x3d	; 61
    300c:	de b7       	in	r29, 0x3e	; 62
    300e:	aa 97       	sbiw	r28, 0x2a	; 42
    3010:	0f b6       	in	r0, 0x3f	; 63
    3012:	f8 94       	cli
    3014:	de bf       	out	0x3e, r29	; 62
    3016:	0f be       	out	0x3f, r0	; 63
    3018:	cd bf       	out	0x3d, r28	; 61
    301a:	81 e2       	ldi	r24, 0x21	; 33
    301c:	90 e0       	ldi	r25, 0x00	; 0
    301e:	2f ef       	ldi	r18, 0xFF	; 255
    3020:	fc 01       	movw	r30, r24
    3022:	20 83       	st	Z, r18
    3024:	82 e2       	ldi	r24, 0x22	; 34
    3026:	90 e0       	ldi	r25, 0x00	; 0
    3028:	2f ef       	ldi	r18, 0xFF	; 255
    302a:	fc 01       	movw	r30, r24
    302c:	20 83       	st	Z, r18
    302e:	80 eb       	ldi	r24, 0xB0	; 176
    3030:	90 e0       	ldi	r25, 0x00	; 0
    3032:	22 e0       	ldi	r18, 0x02	; 2
    3034:	fc 01       	movw	r30, r24
    3036:	20 83       	st	Z, r18
    3038:	81 eb       	ldi	r24, 0xB1	; 177
    303a:	90 e0       	ldi	r25, 0x00	; 0
    303c:	21 e0       	ldi	r18, 0x01	; 1
    303e:	fc 01       	movw	r30, r24
    3040:	20 83       	st	Z, r18
    3042:	80 e7       	ldi	r24, 0x70	; 112
    3044:	90 e0       	ldi	r25, 0x00	; 0
    3046:	20 e7       	ldi	r18, 0x70	; 112
    3048:	30 e0       	ldi	r19, 0x00	; 0
    304a:	f9 01       	movw	r30, r18
    304c:	20 81       	ld	r18, Z
    304e:	22 60       	ori	r18, 0x02	; 2
    3050:	fc 01       	movw	r30, r24
    3052:	20 83       	st	Z, r18
    3054:	83 eb       	ldi	r24, 0xB3	; 179
    3056:	90 e0       	ldi	r25, 0x00	; 0
    3058:	2f ef       	ldi	r18, 0xFF	; 255
    305a:	fc 01       	movw	r30, r24
    305c:	20 83       	st	Z, r18
    305e:	84 e4       	ldi	r24, 0x44	; 68
    3060:	90 e0       	ldi	r25, 0x00	; 0
    3062:	22 e0       	ldi	r18, 0x02	; 2
    3064:	fc 01       	movw	r30, r24
    3066:	20 83       	st	Z, r18
    3068:	85 e4       	ldi	r24, 0x45	; 69
    306a:	90 e0       	ldi	r25, 0x00	; 0
    306c:	fc 01       	movw	r30, r24
    306e:	10 82       	st	Z, r1
    3070:	8e e6       	ldi	r24, 0x6E	; 110
    3072:	90 e0       	ldi	r25, 0x00	; 0
    3074:	2e e6       	ldi	r18, 0x6E	; 110
    3076:	30 e0       	ldi	r19, 0x00	; 0
    3078:	f9 01       	movw	r30, r18
    307a:	20 81       	ld	r18, Z
    307c:	22 60       	ori	r18, 0x02	; 2
    307e:	fc 01       	movw	r30, r24
    3080:	20 83       	st	Z, r18
    3082:	87 e4       	ldi	r24, 0x47	; 71
    3084:	90 e0       	ldi	r25, 0x00	; 0
    3086:	2f ef       	ldi	r18, 0xFF	; 255
    3088:	fc 01       	movw	r30, r24
    308a:	20 83       	st	Z, r18
    308c:	78 94       	sei
    308e:	8e e3       	ldi	r24, 0x3E	; 62
    3090:	8f 93       	push	r24
    3092:	87 ec       	ldi	r24, 0xC7	; 199
    3094:	8f 93       	push	r24
    3096:	8e ea       	ldi	r24, 0xAE	; 174
    3098:	8f 93       	push	r24
    309a:	84 e1       	ldi	r24, 0x14	; 20
    309c:	8f 93       	push	r24
    309e:	8e e3       	ldi	r24, 0x3E	; 62
    30a0:	8f 93       	push	r24
    30a2:	89 ed       	ldi	r24, 0xD9	; 217
    30a4:	8f 93       	push	r24
    30a6:	89 e9       	ldi	r24, 0x99	; 153
    30a8:	8f 93       	push	r24
    30aa:	8a e9       	ldi	r24, 0x9A	; 154
    30ac:	8f 93       	push	r24
    30ae:	0f 2e       	mov	r0, r31
    30b0:	ff e8       	ldi	r31, 0x8F	; 143
    30b2:	af 2e       	mov	r10, r31
    30b4:	f2 ec       	ldi	r31, 0xC2	; 194
    30b6:	bf 2e       	mov	r11, r31
    30b8:	f5 e7       	ldi	r31, 0x75	; 117
    30ba:	cf 2e       	mov	r12, r31
    30bc:	fc e3       	ldi	r31, 0x3C	; 60
    30be:	df 2e       	mov	r13, r31
    30c0:	f0 2d       	mov	r31, r0
    30c2:	1d ec       	ldi	r17, 0xCD	; 205
    30c4:	e1 2e       	mov	r14, r17
    30c6:	1c ec       	ldi	r17, 0xCC	; 204
    30c8:	f1 2e       	mov	r15, r17
    30ca:	0c ec       	ldi	r16, 0xCC	; 204
    30cc:	1d e3       	ldi	r17, 0x3D	; 61
    30ce:	2f e1       	ldi	r18, 0x1F	; 31
    30d0:	35 e8       	ldi	r19, 0x85	; 133
    30d2:	4b e6       	ldi	r20, 0x6B	; 107
    30d4:	5e e3       	ldi	r21, 0x3E	; 62
    30d6:	60 e0       	ldi	r22, 0x00	; 0
    30d8:	70 e0       	ldi	r23, 0x00	; 0
    30da:	80 e8       	ldi	r24, 0x80	; 128
    30dc:	9e e3       	ldi	r25, 0x3E	; 62
    30de:	0e 94 d1 01 	call	0x3a2	; 0x3a2 <initialize>
    30e2:	8d b7       	in	r24, 0x3d	; 61
    30e4:	9e b7       	in	r25, 0x3e	; 62
    30e6:	08 96       	adiw	r24, 0x08	; 8
    30e8:	0f b6       	in	r0, 0x3f	; 63
    30ea:	f8 94       	cli
    30ec:	de bf       	out	0x3e, r29	; 62
    30ee:	0f be       	out	0x3f, r0	; 63
    30f0:	cd bf       	out	0x3d, r28	; 61
    30f2:	69 d2       	rcall	.+1234   	; 0x35c6 <loadTimerValues>
    30f4:	98 87       	std	Y+8, r25	; 0x08
    30f6:	8f 83       	std	Y+7, r24	; 0x07
    30f8:	19 82       	std	Y+1, r1	; 0x01
    30fa:	21 c0       	rjmp	.+66     	; 0x313e <main+0x150>
    30fc:	89 81       	ldd	r24, Y+1	; 0x01
    30fe:	28 2f       	mov	r18, r24
    3100:	30 e0       	ldi	r19, 0x00	; 0
    3102:	89 81       	ldd	r24, Y+1	; 0x01
    3104:	88 2f       	mov	r24, r24
    3106:	90 e0       	ldi	r25, 0x00	; 0
    3108:	88 0f       	add	r24, r24
    310a:	99 1f       	adc	r25, r25
    310c:	88 0f       	add	r24, r24
    310e:	99 1f       	adc	r25, r25
    3110:	4f 81       	ldd	r20, Y+7	; 0x07
    3112:	58 85       	ldd	r21, Y+8	; 0x08
    3114:	84 0f       	add	r24, r20
    3116:	95 1f       	adc	r25, r21
    3118:	22 0f       	add	r18, r18
    311a:	33 1f       	adc	r19, r19
    311c:	22 0f       	add	r18, r18
    311e:	33 1f       	adc	r19, r19
    3120:	27 5a       	subi	r18, 0xA7	; 167
    3122:	3d 4f       	sbci	r19, 0xFD	; 253
    3124:	fc 01       	movw	r30, r24
    3126:	80 81       	ld	r24, Z
    3128:	91 81       	ldd	r25, Z+1	; 0x01
    312a:	a2 81       	ldd	r26, Z+2	; 0x02
    312c:	b3 81       	ldd	r27, Z+3	; 0x03
    312e:	f9 01       	movw	r30, r18
    3130:	80 83       	st	Z, r24
    3132:	91 83       	std	Z+1, r25	; 0x01
    3134:	a2 83       	std	Z+2, r26	; 0x02
    3136:	b3 83       	std	Z+3, r27	; 0x03
    3138:	89 81       	ldd	r24, Y+1	; 0x01
    313a:	8f 5f       	subi	r24, 0xFF	; 255
    313c:	89 83       	std	Y+1, r24	; 0x01
    313e:	89 81       	ldd	r24, Y+1	; 0x01
    3140:	86 30       	cpi	r24, 0x06	; 6
    3142:	e0 f2       	brcs	.-72     	; 0x30fc <main+0x10e>
    3144:	1b 82       	std	Y+3, r1	; 0x03
    3146:	1a 82       	std	Y+2, r1	; 0x02
    3148:	1d 82       	std	Y+5, r1	; 0x05
    314a:	1c 82       	std	Y+4, r1	; 0x04
    314c:	ce 01       	movw	r24, r28
    314e:	0b 96       	adiw	r24, 0x0b	; 11
    3150:	00 e0       	ldi	r16, 0x00	; 0
    3152:	10 e0       	ldi	r17, 0x00	; 0
    3154:	28 ec       	ldi	r18, 0xC8	; 200
    3156:	32 e4       	ldi	r19, 0x42	; 66
    3158:	40 e0       	ldi	r20, 0x00	; 0
    315a:	50 e0       	ldi	r21, 0x00	; 0
    315c:	ba 01       	movw	r22, r20
    315e:	0e 94 9a 00 	call	0x134	; 0x134 <accelerationsToAngles>
    3162:	3e 01       	movw	r6, r28
    3164:	fb e1       	ldi	r31, 0x1B	; 27
    3166:	6f 0e       	add	r6, r31
    3168:	71 1c       	adc	r7, r1
    316a:	8d b7       	in	r24, 0x3d	; 61
    316c:	9e b7       	in	r25, 0x3e	; 62
    316e:	40 97       	sbiw	r24, 0x10	; 16
    3170:	0f b6       	in	r0, 0x3f	; 63
    3172:	f8 94       	cli
    3174:	9e bf       	out	0x3e, r25	; 62
    3176:	0f be       	out	0x3f, r0	; 63
    3178:	8d bf       	out	0x3d, r24	; 61
    317a:	8d b7       	in	r24, 0x3d	; 61
    317c:	9e b7       	in	r25, 0x3e	; 62
    317e:	01 96       	adiw	r24, 0x01	; 1
    3180:	20 e1       	ldi	r18, 0x10	; 16
    3182:	fe 01       	movw	r30, r28
    3184:	3b 96       	adiw	r30, 0x0b	; 11
    3186:	dc 01       	movw	r26, r24
    3188:	01 90       	ld	r0, Z+
    318a:	0d 92       	st	X+, r0
    318c:	2a 95       	dec	r18
    318e:	e1 f7       	brne	.-8      	; 0x3188 <main+0x19a>
    3190:	8b 84       	ldd	r8, Y+11	; 0x0b
    3192:	9c 84       	ldd	r9, Y+12	; 0x0c
    3194:	ad 84       	ldd	r10, Y+13	; 0x0d
    3196:	be 84       	ldd	r11, Y+14	; 0x0e
    3198:	cf 84       	ldd	r12, Y+15	; 0x0f
    319a:	d8 88       	ldd	r13, Y+16	; 0x10
    319c:	e9 88       	ldd	r14, Y+17	; 0x11
    319e:	fa 88       	ldd	r15, Y+18	; 0x12
    31a0:	0b 89       	ldd	r16, Y+19	; 0x13
    31a2:	1c 89       	ldd	r17, Y+20	; 0x14
    31a4:	2d 89       	ldd	r18, Y+21	; 0x15
    31a6:	3e 89       	ldd	r19, Y+22	; 0x16
    31a8:	4f 89       	ldd	r20, Y+23	; 0x17
    31aa:	58 8d       	ldd	r21, Y+24	; 0x18
    31ac:	69 8d       	ldd	r22, Y+25	; 0x19
    31ae:	7a 8d       	ldd	r23, Y+26	; 0x1a
    31b0:	c3 01       	movw	r24, r6
    31b2:	99 d8       	rcall	.-3790   	; 0x22e6 <hamiltonP>
    31b4:	ed b7       	in	r30, 0x3d	; 61
    31b6:	fe b7       	in	r31, 0x3e	; 62
    31b8:	70 96       	adiw	r30, 0x10	; 16
    31ba:	0f b6       	in	r0, 0x3f	; 63
    31bc:	f8 94       	cli
    31be:	de bf       	out	0x3e, r29	; 62
    31c0:	0f be       	out	0x3f, r0	; 63
    31c2:	cd bf       	out	0x3d, r28	; 61
    31c4:	00 d2       	rcall	.+1024   	; 0x35c6 <loadTimerValues>
    31c6:	9a 87       	std	Y+10, r25	; 0x0a
    31c8:	89 87       	std	Y+9, r24	; 0x09
    31ca:	1e 82       	std	Y+6, r1	; 0x06
    31cc:	21 c0       	rjmp	.+66     	; 0x3210 <main+0x222>
    31ce:	8e 81       	ldd	r24, Y+6	; 0x06
    31d0:	28 2f       	mov	r18, r24
    31d2:	30 e0       	ldi	r19, 0x00	; 0
    31d4:	8e 81       	ldd	r24, Y+6	; 0x06
    31d6:	88 2f       	mov	r24, r24
    31d8:	90 e0       	ldi	r25, 0x00	; 0
    31da:	88 0f       	add	r24, r24
    31dc:	99 1f       	adc	r25, r25
    31de:	88 0f       	add	r24, r24
    31e0:	99 1f       	adc	r25, r25
    31e2:	49 85       	ldd	r20, Y+9	; 0x09
    31e4:	5a 85       	ldd	r21, Y+10	; 0x0a
    31e6:	84 0f       	add	r24, r20
    31e8:	95 1f       	adc	r25, r21
    31ea:	22 0f       	add	r18, r18
    31ec:	33 1f       	adc	r19, r19
    31ee:	22 0f       	add	r18, r18
    31f0:	33 1f       	adc	r19, r19
    31f2:	27 5a       	subi	r18, 0xA7	; 167
    31f4:	3d 4f       	sbci	r19, 0xFD	; 253
    31f6:	fc 01       	movw	r30, r24
    31f8:	80 81       	ld	r24, Z
    31fa:	91 81       	ldd	r25, Z+1	; 0x01
    31fc:	a2 81       	ldd	r26, Z+2	; 0x02
    31fe:	b3 81       	ldd	r27, Z+3	; 0x03
    3200:	f9 01       	movw	r30, r18
    3202:	80 83       	st	Z, r24
    3204:	91 83       	std	Z+1, r25	; 0x01
    3206:	a2 83       	std	Z+2, r26	; 0x02
    3208:	b3 83       	std	Z+3, r27	; 0x03
    320a:	8e 81       	ldd	r24, Y+6	; 0x06
    320c:	8f 5f       	subi	r24, 0xFF	; 255
    320e:	8e 83       	std	Y+6, r24	; 0x06
    3210:	8e 81       	ldd	r24, Y+6	; 0x06
    3212:	86 30       	cpi	r24, 0x06	; 6
    3214:	e0 f2       	brcs	.-72     	; 0x31ce <main+0x1e0>
    3216:	8a 81       	ldd	r24, Y+2	; 0x02
    3218:	9b 81       	ldd	r25, Y+3	; 0x03
    321a:	01 96       	adiw	r24, 0x01	; 1
    321c:	9b 83       	std	Y+3, r25	; 0x03
    321e:	8a 83       	std	Y+2, r24	; 0x02
    3220:	8a 81       	ldd	r24, Y+2	; 0x02
    3222:	9b 81       	ldd	r25, Y+3	; 0x03
    3224:	22 e3       	ldi	r18, 0x32	; 50
    3226:	30 e0       	ldi	r19, 0x00	; 0
    3228:	b9 01       	movw	r22, r18
    322a:	6d d6       	rcall	.+3290   	; 0x3f06 <__divmodhi4>
    322c:	89 2b       	or	r24, r25
    322e:	09 f0       	breq	.+2      	; 0x3232 <main+0x244>
    3230:	8d cf       	rjmp	.-230    	; 0x314c <main+0x15e>
    3232:	8c 81       	ldd	r24, Y+4	; 0x04
    3234:	9d 81       	ldd	r25, Y+5	; 0x05
    3236:	01 96       	adiw	r24, 0x01	; 1
    3238:	9d 83       	std	Y+5, r25	; 0x05
    323a:	8c 83       	std	Y+4, r24	; 0x04
    323c:	8c 81       	ldd	r24, Y+4	; 0x04
    323e:	9d 81       	ldd	r25, Y+5	; 0x05
    3240:	23 e0       	ldi	r18, 0x03	; 3
    3242:	30 e0       	ldi	r19, 0x00	; 0
    3244:	b9 01       	movw	r22, r18
    3246:	5f d6       	rcall	.+3262   	; 0x3f06 <__divmodhi4>
    3248:	89 2b       	or	r24, r25
    324a:	69 f4       	brne	.+26     	; 0x3266 <main+0x278>
    324c:	8f e8       	ldi	r24, 0x8F	; 143
    324e:	92 ec       	ldi	r25, 0xC2	; 194
    3250:	a5 ef       	ldi	r26, 0xF5	; 245
    3252:	bc eb       	ldi	r27, 0xBC	; 188
    3254:	80 93 08 01 	sts	0x0108, r24	; 0x800108 <trans+0x4>
    3258:	90 93 09 01 	sts	0x0109, r25	; 0x800109 <trans+0x5>
    325c:	a0 93 0a 01 	sts	0x010A, r26	; 0x80010a <trans+0x6>
    3260:	b0 93 0b 01 	sts	0x010B, r27	; 0x80010b <trans+0x7>
    3264:	73 cf       	rjmp	.-282    	; 0x314c <main+0x15e>
    3266:	8c 81       	ldd	r24, Y+4	; 0x04
    3268:	9d 81       	ldd	r25, Y+5	; 0x05
    326a:	23 e0       	ldi	r18, 0x03	; 3
    326c:	30 e0       	ldi	r19, 0x00	; 0
    326e:	b9 01       	movw	r22, r18
    3270:	4a d6       	rcall	.+3220   	; 0x3f06 <__divmodhi4>
    3272:	01 97       	sbiw	r24, 0x01	; 1
    3274:	49 f4       	brne	.+18     	; 0x3288 <main+0x29a>
    3276:	10 92 08 01 	sts	0x0108, r1	; 0x800108 <trans+0x4>
    327a:	10 92 09 01 	sts	0x0109, r1	; 0x800109 <trans+0x5>
    327e:	10 92 0a 01 	sts	0x010A, r1	; 0x80010a <trans+0x6>
    3282:	10 92 0b 01 	sts	0x010B, r1	; 0x80010b <trans+0x7>
    3286:	62 cf       	rjmp	.-316    	; 0x314c <main+0x15e>
    3288:	8c 81       	ldd	r24, Y+4	; 0x04
    328a:	9d 81       	ldd	r25, Y+5	; 0x05
    328c:	23 e0       	ldi	r18, 0x03	; 3
    328e:	30 e0       	ldi	r19, 0x00	; 0
    3290:	b9 01       	movw	r22, r18
    3292:	39 d6       	rcall	.+3186   	; 0x3f06 <__divmodhi4>
    3294:	02 97       	sbiw	r24, 0x02	; 2
    3296:	69 f4       	brne	.+26     	; 0x32b2 <main+0x2c4>
    3298:	8f e8       	ldi	r24, 0x8F	; 143
    329a:	92 ec       	ldi	r25, 0xC2	; 194
    329c:	a5 ef       	ldi	r26, 0xF5	; 245
    329e:	bc e3       	ldi	r27, 0x3C	; 60
    32a0:	80 93 08 01 	sts	0x0108, r24	; 0x800108 <trans+0x4>
    32a4:	90 93 09 01 	sts	0x0109, r25	; 0x800109 <trans+0x5>
    32a8:	a0 93 0a 01 	sts	0x010A, r26	; 0x80010a <trans+0x6>
    32ac:	b0 93 0b 01 	sts	0x010B, r27	; 0x80010b <trans+0x7>
    32b0:	4d cf       	rjmp	.-358    	; 0x314c <main+0x15e>
    32b2:	10 92 08 01 	sts	0x0108, r1	; 0x800108 <trans+0x4>
    32b6:	10 92 09 01 	sts	0x0109, r1	; 0x800109 <trans+0x5>
    32ba:	10 92 0a 01 	sts	0x010A, r1	; 0x80010a <trans+0x6>
    32be:	10 92 0b 01 	sts	0x010B, r1	; 0x80010b <trans+0x7>
    32c2:	8f ef       	ldi	r24, 0xFF	; 255
    32c4:	9f ef       	ldi	r25, 0xFF	; 255
    32c6:	9d 83       	std	Y+5, r25	; 0x05
    32c8:	8c 83       	std	Y+4, r24	; 0x04
    32ca:	40 cf       	rjmp	.-384    	; 0x314c <main+0x15e>

000032cc <__vector_9>:
    32cc:	1f 92       	push	r1
    32ce:	0f 92       	push	r0
    32d0:	00 90 5f 00 	lds	r0, 0x005F	; 0x80005f <__TEXT_REGION_LENGTH__+0x7e005f>
    32d4:	0f 92       	push	r0
    32d6:	11 24       	eor	r1, r1
    32d8:	2f 93       	push	r18
    32da:	3f 93       	push	r19
    32dc:	8f 93       	push	r24
    32de:	9f 93       	push	r25
    32e0:	ef 93       	push	r30
    32e2:	ff 93       	push	r31
    32e4:	cf 93       	push	r28
    32e6:	df 93       	push	r29
    32e8:	cd b7       	in	r28, 0x3d	; 61
    32ea:	de b7       	in	r29, 0x3e	; 62
    32ec:	80 91 2a 01 	lds	r24, 0x012A	; 0x80012a <turnOnCounter>
    32f0:	90 91 2b 01 	lds	r25, 0x012B	; 0x80012b <turnOnCounter+0x1>
    32f4:	01 96       	adiw	r24, 0x01	; 1
    32f6:	90 93 2b 01 	sts	0x012B, r25	; 0x80012b <turnOnCounter+0x1>
    32fa:	80 93 2a 01 	sts	0x012A, r24	; 0x80012a <turnOnCounter>
    32fe:	83 eb       	ldi	r24, 0xB3	; 179
    3300:	90 e0       	ldi	r25, 0x00	; 0
    3302:	2f ef       	ldi	r18, 0xFF	; 255
    3304:	fc 01       	movw	r30, r24
    3306:	20 83       	st	Z, r18
    3308:	80 91 2a 01 	lds	r24, 0x012A	; 0x80012a <turnOnCounter>
    330c:	90 91 2b 01 	lds	r25, 0x012B	; 0x80012b <turnOnCounter+0x1>
    3310:	85 33       	cpi	r24, 0x35	; 53
    3312:	9c 40       	sbci	r25, 0x0C	; 12
    3314:	90 f0       	brcs	.+36     	; 0x333a <__vector_9+0x6e>
    3316:	85 e4       	ldi	r24, 0x45	; 69
    3318:	90 e0       	ldi	r25, 0x00	; 0
    331a:	25 e4       	ldi	r18, 0x45	; 69
    331c:	30 e0       	ldi	r19, 0x00	; 0
    331e:	f9 01       	movw	r30, r18
    3320:	20 81       	ld	r18, Z
    3322:	21 60       	ori	r18, 0x01	; 1
    3324:	fc 01       	movw	r30, r24
    3326:	20 83       	st	Z, r18
    3328:	10 92 2b 01 	sts	0x012B, r1	; 0x80012b <turnOnCounter+0x1>
    332c:	10 92 2a 01 	sts	0x012A, r1	; 0x80012a <turnOnCounter>
    3330:	82 e2       	ldi	r24, 0x22	; 34
    3332:	90 e0       	ldi	r25, 0x00	; 0
    3334:	2f e3       	ldi	r18, 0x3F	; 63
    3336:	fc 01       	movw	r30, r24
    3338:	20 83       	st	Z, r18
    333a:	00 00       	nop
    333c:	df 91       	pop	r29
    333e:	cf 91       	pop	r28
    3340:	ff 91       	pop	r31
    3342:	ef 91       	pop	r30
    3344:	9f 91       	pop	r25
    3346:	8f 91       	pop	r24
    3348:	3f 91       	pop	r19
    334a:	2f 91       	pop	r18
    334c:	0f 90       	pop	r0
    334e:	00 92 5f 00 	sts	0x005F, r0	; 0x80005f <__TEXT_REGION_LENGTH__+0x7e005f>
    3352:	0f 90       	pop	r0
    3354:	1f 90       	pop	r1
    3356:	18 95       	reti

00003358 <__vector_16>:
    3358:	1f 92       	push	r1
    335a:	0f 92       	push	r0
    335c:	00 90 5f 00 	lds	r0, 0x005F	; 0x80005f <__TEXT_REGION_LENGTH__+0x7e005f>
    3360:	0f 92       	push	r0
    3362:	11 24       	eor	r1, r1
    3364:	2f 93       	push	r18
    3366:	3f 93       	push	r19
    3368:	4f 93       	push	r20
    336a:	5f 93       	push	r21
    336c:	8f 93       	push	r24
    336e:	9f 93       	push	r25
    3370:	ef 93       	push	r30
    3372:	ff 93       	push	r31
    3374:	cf 93       	push	r28
    3376:	df 93       	push	r29
    3378:	cd b7       	in	r28, 0x3d	; 61
    337a:	de b7       	in	r29, 0x3e	; 62
    337c:	80 91 28 01 	lds	r24, 0x0128	; 0x800128 <turnOffCounter>
    3380:	90 91 29 01 	lds	r25, 0x0129	; 0x800129 <turnOffCounter+0x1>
    3384:	01 96       	adiw	r24, 0x01	; 1
    3386:	90 93 29 01 	sts	0x0129, r25	; 0x800129 <turnOffCounter+0x1>
    338a:	80 93 28 01 	sts	0x0128, r24	; 0x800128 <turnOffCounter>
    338e:	87 e4       	ldi	r24, 0x47	; 71
    3390:	90 e0       	ldi	r25, 0x00	; 0
    3392:	2f ef       	ldi	r18, 0xFF	; 255
    3394:	fc 01       	movw	r30, r24
    3396:	20 83       	st	Z, r18
    3398:	80 91 2c 01 	lds	r24, 0x012C	; 0x80012c <pinCounter>
    339c:	88 2f       	mov	r24, r24
    339e:	90 e0       	ldi	r25, 0x00	; 0
    33a0:	88 0f       	add	r24, r24
    33a2:	99 1f       	adc	r25, r25
    33a4:	88 0f       	add	r24, r24
    33a6:	99 1f       	adc	r25, r25
    33a8:	87 5a       	subi	r24, 0xA7	; 167
    33aa:	9d 4f       	sbci	r25, 0xFD	; 253
    33ac:	fc 01       	movw	r30, r24
    33ae:	20 81       	ld	r18, Z
    33b0:	31 81       	ldd	r19, Z+1	; 0x01
    33b2:	80 91 28 01 	lds	r24, 0x0128	; 0x800128 <turnOffCounter>
    33b6:	90 91 29 01 	lds	r25, 0x0129	; 0x800129 <turnOffCounter+0x1>
    33ba:	28 17       	cp	r18, r24
    33bc:	39 07       	cpc	r19, r25
    33be:	08 f0       	brcs	.+2      	; 0x33c2 <__vector_16+0x6a>
    33c0:	97 c0       	rjmp	.+302    	; 0x34f0 <__vector_16+0x198>
    33c2:	87 e4       	ldi	r24, 0x47	; 71
    33c4:	90 e0       	ldi	r25, 0x00	; 0
    33c6:	20 91 2c 01 	lds	r18, 0x012C	; 0x80012c <pinCounter>
    33ca:	22 2f       	mov	r18, r18
    33cc:	30 e0       	ldi	r19, 0x00	; 0
    33ce:	22 0f       	add	r18, r18
    33d0:	33 1f       	adc	r19, r19
    33d2:	22 0f       	add	r18, r18
    33d4:	33 1f       	adc	r19, r19
    33d6:	25 5a       	subi	r18, 0xA5	; 165
    33d8:	3d 4f       	sbci	r19, 0xFD	; 253
    33da:	f9 01       	movw	r30, r18
    33dc:	20 81       	ld	r18, Z
    33de:	fc 01       	movw	r30, r24
    33e0:	20 83       	st	Z, r18
    33e2:	80 91 2c 01 	lds	r24, 0x012C	; 0x80012c <pinCounter>
    33e6:	88 2f       	mov	r24, r24
    33e8:	90 e0       	ldi	r25, 0x00	; 0
    33ea:	88 0f       	add	r24, r24
    33ec:	99 1f       	adc	r25, r25
    33ee:	88 0f       	add	r24, r24
    33f0:	99 1f       	adc	r25, r25
    33f2:	84 5a       	subi	r24, 0xA4	; 164
    33f4:	9d 4f       	sbci	r25, 0xFD	; 253
    33f6:	fc 01       	movw	r30, r24
    33f8:	80 81       	ld	r24, Z
    33fa:	28 2f       	mov	r18, r24
    33fc:	30 e0       	ldi	r19, 0x00	; 0
    33fe:	81 e0       	ldi	r24, 0x01	; 1
    3400:	90 e0       	ldi	r25, 0x00	; 0
    3402:	02 c0       	rjmp	.+4      	; 0x3408 <__vector_16+0xb0>
    3404:	88 0f       	add	r24, r24
    3406:	99 1f       	adc	r25, r25
    3408:	2a 95       	dec	r18
    340a:	e2 f7       	brpl	.-8      	; 0x3404 <__vector_16+0xac>
    340c:	ac 01       	movw	r20, r24
    340e:	40 95       	com	r20
    3410:	50 95       	com	r21
    3412:	82 e2       	ldi	r24, 0x22	; 34
    3414:	90 e0       	ldi	r25, 0x00	; 0
    3416:	22 e2       	ldi	r18, 0x22	; 34
    3418:	30 e0       	ldi	r19, 0x00	; 0
    341a:	f9 01       	movw	r30, r18
    341c:	20 81       	ld	r18, Z
    341e:	32 2f       	mov	r19, r18
    3420:	24 2f       	mov	r18, r20
    3422:	23 23       	and	r18, r19
    3424:	fc 01       	movw	r30, r24
    3426:	20 83       	st	Z, r18
    3428:	10 92 29 01 	sts	0x0129, r1	; 0x800129 <turnOffCounter+0x1>
    342c:	10 92 28 01 	sts	0x0128, r1	; 0x800128 <turnOffCounter>
    3430:	29 c0       	rjmp	.+82     	; 0x3484 <__vector_16+0x12c>
    3432:	80 91 2c 01 	lds	r24, 0x012C	; 0x80012c <pinCounter>
    3436:	88 2f       	mov	r24, r24
    3438:	90 e0       	ldi	r25, 0x00	; 0
    343a:	01 96       	adiw	r24, 0x01	; 1
    343c:	88 0f       	add	r24, r24
    343e:	99 1f       	adc	r25, r25
    3440:	88 0f       	add	r24, r24
    3442:	99 1f       	adc	r25, r25
    3444:	84 5a       	subi	r24, 0xA4	; 164
    3446:	9d 4f       	sbci	r25, 0xFD	; 253
    3448:	fc 01       	movw	r30, r24
    344a:	80 81       	ld	r24, Z
    344c:	28 2f       	mov	r18, r24
    344e:	30 e0       	ldi	r19, 0x00	; 0
    3450:	81 e0       	ldi	r24, 0x01	; 1
    3452:	90 e0       	ldi	r25, 0x00	; 0
    3454:	02 c0       	rjmp	.+4      	; 0x345a <__vector_16+0x102>
    3456:	88 0f       	add	r24, r24
    3458:	99 1f       	adc	r25, r25
    345a:	2a 95       	dec	r18
    345c:	e2 f7       	brpl	.-8      	; 0x3456 <__vector_16+0xfe>
    345e:	ac 01       	movw	r20, r24
    3460:	40 95       	com	r20
    3462:	50 95       	com	r21
    3464:	82 e2       	ldi	r24, 0x22	; 34
    3466:	90 e0       	ldi	r25, 0x00	; 0
    3468:	22 e2       	ldi	r18, 0x22	; 34
    346a:	30 e0       	ldi	r19, 0x00	; 0
    346c:	f9 01       	movw	r30, r18
    346e:	20 81       	ld	r18, Z
    3470:	32 2f       	mov	r19, r18
    3472:	24 2f       	mov	r18, r20
    3474:	23 23       	and	r18, r19
    3476:	fc 01       	movw	r30, r24
    3478:	20 83       	st	Z, r18
    347a:	80 91 2c 01 	lds	r24, 0x012C	; 0x80012c <pinCounter>
    347e:	8f 5f       	subi	r24, 0xFF	; 255
    3480:	80 93 2c 01 	sts	0x012C, r24	; 0x80012c <pinCounter>
    3484:	80 91 2c 01 	lds	r24, 0x012C	; 0x80012c <pinCounter>
    3488:	88 2f       	mov	r24, r24
    348a:	90 e0       	ldi	r25, 0x00	; 0
    348c:	88 0f       	add	r24, r24
    348e:	99 1f       	adc	r25, r25
    3490:	88 0f       	add	r24, r24
    3492:	99 1f       	adc	r25, r25
    3494:	87 5a       	subi	r24, 0xA7	; 167
    3496:	9d 4f       	sbci	r25, 0xFD	; 253
    3498:	fc 01       	movw	r30, r24
    349a:	20 81       	ld	r18, Z
    349c:	31 81       	ldd	r19, Z+1	; 0x01
    349e:	80 91 2c 01 	lds	r24, 0x012C	; 0x80012c <pinCounter>
    34a2:	88 2f       	mov	r24, r24
    34a4:	90 e0       	ldi	r25, 0x00	; 0
    34a6:	01 96       	adiw	r24, 0x01	; 1
    34a8:	88 0f       	add	r24, r24
    34aa:	99 1f       	adc	r25, r25
    34ac:	88 0f       	add	r24, r24
    34ae:	99 1f       	adc	r25, r25
    34b0:	87 5a       	subi	r24, 0xA7	; 167
    34b2:	9d 4f       	sbci	r25, 0xFD	; 253
    34b4:	fc 01       	movw	r30, r24
    34b6:	80 81       	ld	r24, Z
    34b8:	91 81       	ldd	r25, Z+1	; 0x01
    34ba:	28 17       	cp	r18, r24
    34bc:	39 07       	cpc	r19, r25
    34be:	29 f4       	brne	.+10     	; 0x34ca <__vector_16+0x172>
    34c0:	80 91 2c 01 	lds	r24, 0x012C	; 0x80012c <pinCounter>
    34c4:	85 30       	cpi	r24, 0x05	; 5
    34c6:	08 f4       	brcc	.+2      	; 0x34ca <__vector_16+0x172>
    34c8:	b4 cf       	rjmp	.-152    	; 0x3432 <__vector_16+0xda>
    34ca:	80 91 2c 01 	lds	r24, 0x012C	; 0x80012c <pinCounter>
    34ce:	8f 5f       	subi	r24, 0xFF	; 255
    34d0:	80 93 2c 01 	sts	0x012C, r24	; 0x80012c <pinCounter>
    34d4:	80 91 2c 01 	lds	r24, 0x012C	; 0x80012c <pinCounter>
    34d8:	86 30       	cpi	r24, 0x06	; 6
    34da:	51 f4       	brne	.+20     	; 0x34f0 <__vector_16+0x198>
    34dc:	10 92 2c 01 	sts	0x012C, r1	; 0x80012c <pinCounter>
    34e0:	82 e2       	ldi	r24, 0x22	; 34
    34e2:	90 e0       	ldi	r25, 0x00	; 0
    34e4:	fc 01       	movw	r30, r24
    34e6:	10 82       	st	Z, r1
    34e8:	85 e4       	ldi	r24, 0x45	; 69
    34ea:	90 e0       	ldi	r25, 0x00	; 0
    34ec:	fc 01       	movw	r30, r24
    34ee:	10 82       	st	Z, r1
    34f0:	00 00       	nop
    34f2:	df 91       	pop	r29
    34f4:	cf 91       	pop	r28
    34f6:	ff 91       	pop	r31
    34f8:	ef 91       	pop	r30
    34fa:	9f 91       	pop	r25
    34fc:	8f 91       	pop	r24
    34fe:	5f 91       	pop	r21
    3500:	4f 91       	pop	r20
    3502:	3f 91       	pop	r19
    3504:	2f 91       	pop	r18
    3506:	0f 90       	pop	r0
    3508:	00 92 5f 00 	sts	0x005F, r0	; 0x80005f <__TEXT_REGION_LENGTH__+0x7e005f>
    350c:	0f 90       	pop	r0
    350e:	1f 90       	pop	r1
    3510:	18 95       	reti

00003512 <calculatePwm>:
    3512:	cf 93       	push	r28
    3514:	df 93       	push	r29
    3516:	cd b7       	in	r28, 0x3d	; 61
    3518:	de b7       	in	r29, 0x3e	; 62
    351a:	2c 97       	sbiw	r28, 0x0c	; 12
    351c:	0f b6       	in	r0, 0x3f	; 63
    351e:	f8 94       	cli
    3520:	de bf       	out	0x3e, r29	; 62
    3522:	0f be       	out	0x3f, r0	; 63
    3524:	cd bf       	out	0x3d, r28	; 61
    3526:	8b 87       	std	Y+11, r24	; 0x0b
    3528:	6c 87       	std	Y+12, r22	; 0x0c
    352a:	1a 82       	std	Y+2, r1	; 0x02
    352c:	19 82       	std	Y+1, r1	; 0x01
    352e:	8b 85       	ldd	r24, Y+11	; 0x0b
    3530:	88 2f       	mov	r24, r24
    3532:	90 e0       	ldi	r25, 0x00	; 0
    3534:	24 e6       	ldi	r18, 0x64	; 100
    3536:	28 9f       	mul	r18, r24
    3538:	a0 01       	movw	r20, r0
    353a:	29 9f       	mul	r18, r25
    353c:	50 0d       	add	r21, r0
    353e:	11 24       	eor	r1, r1
    3540:	2f ef       	ldi	r18, 0xFF	; 255
    3542:	30 e0       	ldi	r19, 0x00	; 0
    3544:	ca 01       	movw	r24, r20
    3546:	b9 01       	movw	r22, r18
    3548:	de d4       	rcall	.+2492   	; 0x3f06 <__divmodhi4>
    354a:	cb 01       	movw	r24, r22
    354c:	9a 83       	std	Y+2, r25	; 0x02
    354e:	89 83       	std	Y+1, r24	; 0x01
    3550:	8c 85       	ldd	r24, Y+12	; 0x0c
    3552:	88 23       	and	r24, r24
    3554:	31 f0       	breq	.+12     	; 0x3562 <calculatePwm+0x50>
    3556:	89 81       	ldd	r24, Y+1	; 0x01
    3558:	9a 81       	ldd	r25, Y+2	; 0x02
    355a:	8c 59       	subi	r24, 0x9C	; 156
    355c:	9f 4f       	sbci	r25, 0xFF	; 255
    355e:	9a 83       	std	Y+2, r25	; 0x02
    3560:	89 83       	std	Y+1, r24	; 0x01
    3562:	29 81       	ldd	r18, Y+1	; 0x01
    3564:	3a 81       	ldd	r19, Y+2	; 0x02
    3566:	40 ea       	ldi	r20, 0xA0	; 160
    3568:	42 9f       	mul	r20, r18
    356a:	c0 01       	movw	r24, r0
    356c:	43 9f       	mul	r20, r19
    356e:	90 0d       	add	r25, r0
    3570:	11 24       	eor	r1, r1
    3572:	9c 83       	std	Y+4, r25	; 0x04
    3574:	8b 83       	std	Y+3, r24	; 0x03
    3576:	8b 81       	ldd	r24, Y+3	; 0x03
    3578:	9c 81       	ldd	r25, Y+4	; 0x04
    357a:	99 23       	and	r25, r25
    357c:	14 f4       	brge	.+4      	; 0x3582 <calculatePwm+0x70>
    357e:	81 50       	subi	r24, 0x01	; 1
    3580:	9f 4f       	sbci	r25, 0xFF	; 255
    3582:	89 2f       	mov	r24, r25
    3584:	99 0f       	add	r25, r25
    3586:	99 0b       	sbc	r25, r25
    3588:	9e 83       	std	Y+6, r25	; 0x06
    358a:	8d 83       	std	Y+5, r24	; 0x05
    358c:	8b 81       	ldd	r24, Y+3	; 0x03
    358e:	9c 81       	ldd	r25, Y+4	; 0x04
    3590:	90 78       	andi	r25, 0x80	; 128
    3592:	99 23       	and	r25, r25
    3594:	1c f4       	brge	.+6      	; 0x359c <calculatePwm+0x8a>
    3596:	01 97       	sbiw	r24, 0x01	; 1
    3598:	9f 6f       	ori	r25, 0xFF	; 255
    359a:	01 96       	adiw	r24, 0x01	; 1
    359c:	8f 83       	std	Y+7, r24	; 0x07
    359e:	8d 81       	ldd	r24, Y+5	; 0x05
    35a0:	9e 81       	ldd	r25, Y+6	; 0x06
    35a2:	99 87       	std	Y+9, r25	; 0x09
    35a4:	88 87       	std	Y+8, r24	; 0x08
    35a6:	8f 81       	ldd	r24, Y+7	; 0x07
    35a8:	8a 87       	std	Y+10, r24	; 0x0a
    35aa:	88 85       	ldd	r24, Y+8	; 0x08
    35ac:	99 85       	ldd	r25, Y+9	; 0x09
    35ae:	aa 85       	ldd	r26, Y+10	; 0x0a
    35b0:	bc 01       	movw	r22, r24
    35b2:	8a 2f       	mov	r24, r26
    35b4:	2c 96       	adiw	r28, 0x0c	; 12
    35b6:	0f b6       	in	r0, 0x3f	; 63
    35b8:	f8 94       	cli
    35ba:	de bf       	out	0x3e, r29	; 62
    35bc:	0f be       	out	0x3f, r0	; 63
    35be:	cd bf       	out	0x3d, r28	; 61
    35c0:	df 91       	pop	r29
    35c2:	cf 91       	pop	r28
    35c4:	08 95       	ret

000035c6 <loadTimerValues>:
    35c6:	ef 92       	push	r14
    35c8:	ff 92       	push	r15
    35ca:	0f 93       	push	r16
    35cc:	1f 93       	push	r17
    35ce:	cf 93       	push	r28
    35d0:	df 93       	push	r29
    35d2:	cd b7       	in	r28, 0x3d	; 61
    35d4:	de b7       	in	r29, 0x3e	; 62
    35d6:	6f 97       	sbiw	r28, 0x1f	; 31
    35d8:	0f b6       	in	r0, 0x3f	; 63
    35da:	f8 94       	cli
    35dc:	de bf       	out	0x3e, r29	; 62
    35de:	0f be       	out	0x3f, r0	; 63
    35e0:	cd bf       	out	0x3d, r28	; 61
    35e2:	80 e0       	ldi	r24, 0x00	; 0
    35e4:	90 e0       	ldi	r25, 0x00	; 0
    35e6:	a0 e8       	ldi	r26, 0x80	; 128
    35e8:	bf e3       	ldi	r27, 0x3F	; 63
    35ea:	88 8b       	std	Y+16, r24	; 0x10
    35ec:	99 8b       	std	Y+17, r25	; 0x11
    35ee:	aa 8b       	std	Y+18, r26	; 0x12
    35f0:	bb 8b       	std	Y+19, r27	; 0x13
    35f2:	1c 8a       	std	Y+20, r1	; 0x14
    35f4:	1d 8a       	std	Y+21, r1	; 0x15
    35f6:	1e 8a       	std	Y+22, r1	; 0x16
    35f8:	1f 8a       	std	Y+23, r1	; 0x17
    35fa:	18 8e       	std	Y+24, r1	; 0x18
    35fc:	19 8e       	std	Y+25, r1	; 0x19
    35fe:	1a 8e       	std	Y+26, r1	; 0x1a
    3600:	1b 8e       	std	Y+27, r1	; 0x1b
    3602:	1c 8e       	std	Y+28, r1	; 0x1c
    3604:	1d 8e       	std	Y+29, r1	; 0x1d
    3606:	1e 8e       	std	Y+30, r1	; 0x1e
    3608:	1f 8e       	std	Y+31, r1	; 0x1f
    360a:	2d b7       	in	r18, 0x3d	; 61
    360c:	3e b7       	in	r19, 0x3e	; 62
    360e:	20 51       	subi	r18, 0x10	; 16
    3610:	31 09       	sbc	r19, r1
    3612:	0f b6       	in	r0, 0x3f	; 63
    3614:	f8 94       	cli
    3616:	3e bf       	out	0x3e, r19	; 62
    3618:	0f be       	out	0x3f, r0	; 63
    361a:	2d bf       	out	0x3d, r18	; 61
    361c:	8d b7       	in	r24, 0x3d	; 61
    361e:	9e b7       	in	r25, 0x3e	; 62
    3620:	01 96       	adiw	r24, 0x01	; 1
    3622:	20 e1       	ldi	r18, 0x10	; 16
    3624:	fe 01       	movw	r30, r28
    3626:	70 96       	adiw	r30, 0x10	; 16
    3628:	dc 01       	movw	r26, r24
    362a:	01 90       	ld	r0, Z+
    362c:	0d 92       	st	X+, r0
    362e:	2a 95       	dec	r18
    3630:	e1 f7       	brne	.-8      	; 0x362a <loadTimerValues+0x64>
    3632:	e0 90 04 01 	lds	r14, 0x0104	; 0x800104 <trans>
    3636:	f0 90 05 01 	lds	r15, 0x0105	; 0x800105 <trans+0x1>
    363a:	00 91 06 01 	lds	r16, 0x0106	; 0x800106 <trans+0x2>
    363e:	10 91 07 01 	lds	r17, 0x0107	; 0x800107 <trans+0x3>
    3642:	20 91 08 01 	lds	r18, 0x0108	; 0x800108 <trans+0x4>
    3646:	30 91 09 01 	lds	r19, 0x0109	; 0x800109 <trans+0x5>
    364a:	40 91 0a 01 	lds	r20, 0x010A	; 0x80010a <trans+0x6>
    364e:	50 91 0b 01 	lds	r21, 0x010B	; 0x80010b <trans+0x7>
    3652:	60 91 0c 01 	lds	r22, 0x010C	; 0x80010c <trans+0x8>
    3656:	70 91 0d 01 	lds	r23, 0x010D	; 0x80010d <trans+0x9>
    365a:	80 91 0e 01 	lds	r24, 0x010E	; 0x80010e <trans+0xa>
    365e:	90 91 0f 01 	lds	r25, 0x010F	; 0x80010f <trans+0xb>
    3662:	0e 94 a2 0b 	call	0x1744	; 0x1744 <calcMotorAngles>
    3666:	ed b7       	in	r30, 0x3d	; 61
    3668:	fe b7       	in	r31, 0x3e	; 62
    366a:	70 96       	adiw	r30, 0x10	; 16
    366c:	0f b6       	in	r0, 0x3f	; 63
    366e:	f8 94       	cli
    3670:	de bf       	out	0x3e, r29	; 62
    3672:	0f be       	out	0x3f, r0	; 63
    3674:	cd bf       	out	0x3d, r28	; 61
    3676:	9f 83       	std	Y+7, r25	; 0x07
    3678:	8e 83       	std	Y+6, r24	; 0x06
    367a:	19 82       	std	Y+1, r1	; 0x01
    367c:	4c c0       	rjmp	.+152    	; 0x3716 <loadTimerValues+0x150>
    367e:	89 81       	ldd	r24, Y+1	; 0x01
    3680:	88 2f       	mov	r24, r24
    3682:	90 e0       	ldi	r25, 0x00	; 0
    3684:	88 0f       	add	r24, r24
    3686:	99 1f       	adc	r25, r25
    3688:	88 0f       	add	r24, r24
    368a:	99 1f       	adc	r25, r25
    368c:	2e 81       	ldd	r18, Y+6	; 0x06
    368e:	3f 81       	ldd	r19, Y+7	; 0x07
    3690:	82 0f       	add	r24, r18
    3692:	93 1f       	adc	r25, r19
    3694:	fc 01       	movw	r30, r24
    3696:	80 81       	ld	r24, Z
    3698:	91 81       	ldd	r25, Z+1	; 0x01
    369a:	a2 81       	ldd	r26, Z+2	; 0x02
    369c:	b3 81       	ldd	r27, Z+3	; 0x03
    369e:	88 87       	std	Y+8, r24	; 0x08
    36a0:	99 87       	std	Y+9, r25	; 0x09
    36a2:	aa 87       	std	Y+10, r26	; 0x0a
    36a4:	bb 87       	std	Y+11, r27	; 0x0b
    36a6:	2b ed       	ldi	r18, 0xDB	; 219
    36a8:	3f e0       	ldi	r19, 0x0F	; 15
    36aa:	49 e4       	ldi	r20, 0x49	; 73
    36ac:	50 e4       	ldi	r21, 0x40	; 64
    36ae:	68 85       	ldd	r22, Y+8	; 0x08
    36b0:	79 85       	ldd	r23, Y+9	; 0x09
    36b2:	8a 85       	ldd	r24, Y+10	; 0x0a
    36b4:	9b 85       	ldd	r25, Y+11	; 0x0b
    36b6:	e6 d0       	rcall	.+460    	; 0x3884 <__addsf3>
    36b8:	dc 01       	movw	r26, r24
    36ba:	cb 01       	movw	r24, r22
    36bc:	2b ed       	ldi	r18, 0xDB	; 219
    36be:	3f e0       	ldi	r19, 0x0F	; 15
    36c0:	49 ec       	ldi	r20, 0xC9	; 201
    36c2:	50 e4       	ldi	r21, 0x40	; 64
    36c4:	bc 01       	movw	r22, r24
    36c6:	cd 01       	movw	r24, r26
    36c8:	bd d1       	rcall	.+890    	; 0x3a44 <__divsf3>
    36ca:	dc 01       	movw	r26, r24
    36cc:	cb 01       	movw	r24, r22
    36ce:	20 e0       	ldi	r18, 0x00	; 0
    36d0:	30 e0       	ldi	r19, 0x00	; 0
    36d2:	4f e7       	ldi	r20, 0x7F	; 127
    36d4:	53 e4       	ldi	r21, 0x43	; 67
    36d6:	bc 01       	movw	r22, r24
    36d8:	cd 01       	movw	r24, r26
    36da:	2e d3       	rcall	.+1628   	; 0x3d38 <__mulsf3>
    36dc:	dc 01       	movw	r26, r24
    36de:	cb 01       	movw	r24, r22
    36e0:	bc 01       	movw	r22, r24
    36e2:	cd 01       	movw	r24, r26
    36e4:	17 d2       	rcall	.+1070   	; 0x3b14 <__fixunssfsi>
    36e6:	dc 01       	movw	r26, r24
    36e8:	cb 01       	movw	r24, r22
    36ea:	8c 87       	std	Y+12, r24	; 0x0c
    36ec:	89 81       	ldd	r24, Y+1	; 0x01
    36ee:	88 2f       	mov	r24, r24
    36f0:	90 e0       	ldi	r25, 0x00	; 0
    36f2:	9c 01       	movw	r18, r24
    36f4:	22 0f       	add	r18, r18
    36f6:	33 1f       	adc	r19, r19
    36f8:	23 5d       	subi	r18, 0xD3	; 211
    36fa:	3e 4f       	sbci	r19, 0xFE	; 254
    36fc:	4c 85       	ldd	r20, Y+12	; 0x0c
    36fe:	f9 01       	movw	r30, r18
    3700:	40 83       	st	Z, r20
    3702:	88 0f       	add	r24, r24
    3704:	99 1f       	adc	r25, r25
    3706:	82 5d       	subi	r24, 0xD2	; 210
    3708:	9e 4f       	sbci	r25, 0xFE	; 254
    370a:	29 81       	ldd	r18, Y+1	; 0x01
    370c:	fc 01       	movw	r30, r24
    370e:	20 83       	st	Z, r18
    3710:	89 81       	ldd	r24, Y+1	; 0x01
    3712:	8f 5f       	subi	r24, 0xFF	; 255
    3714:	89 83       	std	Y+1, r24	; 0x01
    3716:	89 81       	ldd	r24, Y+1	; 0x01
    3718:	86 30       	cpi	r24, 0x06	; 6
    371a:	08 f4       	brcc	.+2      	; 0x371e <loadTimerValues+0x158>
    371c:	b0 cf       	rjmp	.-160    	; 0x367e <loadTimerValues+0xb8>
    371e:	81 e0       	ldi	r24, 0x01	; 1
    3720:	90 e0       	ldi	r25, 0x00	; 0
    3722:	9b 83       	std	Y+3, r25	; 0x03
    3724:	8a 83       	std	Y+2, r24	; 0x02
    3726:	17 c0       	rjmp	.+46     	; 0x3756 <loadTimerValues+0x190>
    3728:	8a 81       	ldd	r24, Y+2	; 0x02
    372a:	9b 81       	ldd	r25, Y+3	; 0x03
    372c:	88 0f       	add	r24, r24
    372e:	99 1f       	adc	r25, r25
    3730:	83 5d       	subi	r24, 0xD3	; 211
    3732:	9e 4f       	sbci	r25, 0xFE	; 254
    3734:	fc 01       	movw	r30, r24
    3736:	80 81       	ld	r24, Z
    3738:	28 2f       	mov	r18, r24
    373a:	20 95       	com	r18
    373c:	8a 81       	ldd	r24, Y+2	; 0x02
    373e:	9b 81       	ldd	r25, Y+3	; 0x03
    3740:	88 0f       	add	r24, r24
    3742:	99 1f       	adc	r25, r25
    3744:	83 5d       	subi	r24, 0xD3	; 211
    3746:	9e 4f       	sbci	r25, 0xFE	; 254
    3748:	fc 01       	movw	r30, r24
    374a:	20 83       	st	Z, r18
    374c:	8a 81       	ldd	r24, Y+2	; 0x02
    374e:	9b 81       	ldd	r25, Y+3	; 0x03
    3750:	02 96       	adiw	r24, 0x02	; 2
    3752:	9b 83       	std	Y+3, r25	; 0x03
    3754:	8a 83       	std	Y+2, r24	; 0x02
    3756:	8a 81       	ldd	r24, Y+2	; 0x02
    3758:	9b 81       	ldd	r25, Y+3	; 0x03
    375a:	06 97       	sbiw	r24, 0x06	; 6
    375c:	2c f3       	brlt	.-54     	; 0x3728 <loadTimerValues+0x162>
    375e:	8d e2       	ldi	r24, 0x2D	; 45
    3760:	91 e0       	ldi	r25, 0x01	; 1
    3762:	59 d8       	rcall	.-3918   	; 0x2816 <sort>
    3764:	9e 87       	std	Y+14, r25	; 0x0e
    3766:	8d 87       	std	Y+13, r24	; 0x0d
    3768:	1c 82       	std	Y+4, r1	; 0x04
    376a:	19 c0       	rjmp	.+50     	; 0x379e <loadTimerValues+0x1d8>
    376c:	8c 81       	ldd	r24, Y+4	; 0x04
    376e:	88 2f       	mov	r24, r24
    3770:	90 e0       	ldi	r25, 0x00	; 0
    3772:	2c 81       	ldd	r18, Y+4	; 0x04
    3774:	22 2f       	mov	r18, r18
    3776:	30 e0       	ldi	r19, 0x00	; 0
    3778:	22 0f       	add	r18, r18
    377a:	33 1f       	adc	r19, r19
    377c:	4d 85       	ldd	r20, Y+13	; 0x0d
    377e:	5e 85       	ldd	r21, Y+14	; 0x0e
    3780:	24 0f       	add	r18, r20
    3782:	35 1f       	adc	r19, r21
    3784:	88 0f       	add	r24, r24
    3786:	99 1f       	adc	r25, r25
    3788:	83 5d       	subi	r24, 0xD3	; 211
    378a:	9e 4f       	sbci	r25, 0xFE	; 254
    378c:	f9 01       	movw	r30, r18
    378e:	20 81       	ld	r18, Z
    3790:	31 81       	ldd	r19, Z+1	; 0x01
    3792:	fc 01       	movw	r30, r24
    3794:	31 83       	std	Z+1, r19	; 0x01
    3796:	20 83       	st	Z, r18
    3798:	8c 81       	ldd	r24, Y+4	; 0x04
    379a:	8f 5f       	subi	r24, 0xFF	; 255
    379c:	8c 83       	std	Y+4, r24	; 0x04
    379e:	8c 81       	ldd	r24, Y+4	; 0x04
    37a0:	86 30       	cpi	r24, 0x06	; 6
    37a2:	20 f3       	brcs	.-56     	; 0x376c <loadTimerValues+0x1a6>
    37a4:	1d 82       	std	Y+5, r1	; 0x05
    37a6:	5a c0       	rjmp	.+180    	; 0x385c <loadTimerValues+0x296>
    37a8:	8d 81       	ldd	r24, Y+5	; 0x05
    37aa:	88 2f       	mov	r24, r24
    37ac:	90 e0       	ldi	r25, 0x00	; 0
    37ae:	88 0f       	add	r24, r24
    37b0:	99 1f       	adc	r25, r25
    37b2:	83 5d       	subi	r24, 0xD3	; 211
    37b4:	9e 4f       	sbci	r25, 0xFE	; 254
    37b6:	fc 01       	movw	r30, r24
    37b8:	80 81       	ld	r24, Z
    37ba:	8f 87       	std	Y+15, r24	; 0x0f
    37bc:	8d 81       	ldd	r24, Y+5	; 0x05
    37be:	88 23       	and	r24, r24
    37c0:	19 f1       	breq	.+70     	; 0x3808 <loadTimerValues+0x242>
    37c2:	8d 81       	ldd	r24, Y+5	; 0x05
    37c4:	88 2f       	mov	r24, r24
    37c6:	90 e0       	ldi	r25, 0x00	; 0
    37c8:	01 97       	sbiw	r24, 0x01	; 1
    37ca:	88 0f       	add	r24, r24
    37cc:	99 1f       	adc	r25, r25
    37ce:	83 5d       	subi	r24, 0xD3	; 211
    37d0:	9e 4f       	sbci	r25, 0xFE	; 254
    37d2:	fc 01       	movw	r30, r24
    37d4:	80 81       	ld	r24, Z
    37d6:	9f 85       	ldd	r25, Y+15	; 0x0f
    37d8:	f9 2f       	mov	r31, r25
    37da:	f8 1b       	sub	r31, r24
    37dc:	8f 2f       	mov	r24, r31
    37de:	8f 87       	std	Y+15, r24	; 0x0f
    37e0:	8d 81       	ldd	r24, Y+5	; 0x05
    37e2:	88 2f       	mov	r24, r24
    37e4:	90 e0       	ldi	r25, 0x00	; 0
    37e6:	88 0f       	add	r24, r24
    37e8:	99 1f       	adc	r25, r25
    37ea:	88 0f       	add	r24, r24
    37ec:	99 1f       	adc	r25, r25
    37ee:	8c 01       	movw	r16, r24
    37f0:	07 5c       	subi	r16, 0xC7	; 199
    37f2:	1e 4f       	sbci	r17, 0xFE	; 254
    37f4:	60 e0       	ldi	r22, 0x00	; 0
    37f6:	8f 85       	ldd	r24, Y+15	; 0x0f
    37f8:	8c de       	rcall	.-744    	; 0x3512 <calculatePwm>
    37fa:	a8 2f       	mov	r26, r24
    37fc:	cb 01       	movw	r24, r22
    37fe:	f8 01       	movw	r30, r16
    3800:	80 83       	st	Z, r24
    3802:	91 83       	std	Z+1, r25	; 0x01
    3804:	a2 83       	std	Z+2, r26	; 0x02
    3806:	13 c0       	rjmp	.+38     	; 0x382e <loadTimerValues+0x268>
    3808:	8d 81       	ldd	r24, Y+5	; 0x05
    380a:	88 2f       	mov	r24, r24
    380c:	90 e0       	ldi	r25, 0x00	; 0
    380e:	88 0f       	add	r24, r24
    3810:	99 1f       	adc	r25, r25
    3812:	88 0f       	add	r24, r24
    3814:	99 1f       	adc	r25, r25
    3816:	8c 01       	movw	r16, r24
    3818:	07 5c       	subi	r16, 0xC7	; 199
    381a:	1e 4f       	sbci	r17, 0xFE	; 254
    381c:	61 e0       	ldi	r22, 0x01	; 1
    381e:	8f 85       	ldd	r24, Y+15	; 0x0f
    3820:	78 de       	rcall	.-784    	; 0x3512 <calculatePwm>
    3822:	a8 2f       	mov	r26, r24
    3824:	cb 01       	movw	r24, r22
    3826:	f8 01       	movw	r30, r16
    3828:	80 83       	st	Z, r24
    382a:	91 83       	std	Z+1, r25	; 0x01
    382c:	a2 83       	std	Z+2, r26	; 0x02
    382e:	8d 81       	ldd	r24, Y+5	; 0x05
    3830:	88 2f       	mov	r24, r24
    3832:	90 e0       	ldi	r25, 0x00	; 0
    3834:	2d 81       	ldd	r18, Y+5	; 0x05
    3836:	22 2f       	mov	r18, r18
    3838:	30 e0       	ldi	r19, 0x00	; 0
    383a:	22 0f       	add	r18, r18
    383c:	33 1f       	adc	r19, r19
    383e:	22 5d       	subi	r18, 0xD2	; 210
    3840:	3e 4f       	sbci	r19, 0xFE	; 254
    3842:	f9 01       	movw	r30, r18
    3844:	20 81       	ld	r18, Z
    3846:	88 0f       	add	r24, r24
    3848:	99 1f       	adc	r25, r25
    384a:	88 0f       	add	r24, r24
    384c:	99 1f       	adc	r25, r25
    384e:	84 5c       	subi	r24, 0xC4	; 196
    3850:	9e 4f       	sbci	r25, 0xFE	; 254
    3852:	fc 01       	movw	r30, r24
    3854:	20 83       	st	Z, r18
    3856:	8d 81       	ldd	r24, Y+5	; 0x05
    3858:	8f 5f       	subi	r24, 0xFF	; 255
    385a:	8d 83       	std	Y+5, r24	; 0x05
    385c:	8d 81       	ldd	r24, Y+5	; 0x05
    385e:	86 30       	cpi	r24, 0x06	; 6
    3860:	08 f4       	brcc	.+2      	; 0x3864 <loadTimerValues+0x29e>
    3862:	a2 cf       	rjmp	.-188    	; 0x37a8 <loadTimerValues+0x1e2>
    3864:	89 e3       	ldi	r24, 0x39	; 57
    3866:	91 e0       	ldi	r25, 0x01	; 1
    3868:	6f 96       	adiw	r28, 0x1f	; 31
    386a:	0f b6       	in	r0, 0x3f	; 63
    386c:	f8 94       	cli
    386e:	de bf       	out	0x3e, r29	; 62
    3870:	0f be       	out	0x3f, r0	; 63
    3872:	cd bf       	out	0x3d, r28	; 61
    3874:	df 91       	pop	r29
    3876:	cf 91       	pop	r28
    3878:	1f 91       	pop	r17
    387a:	0f 91       	pop	r16
    387c:	ff 90       	pop	r15
    387e:	ef 90       	pop	r14
    3880:	08 95       	ret

00003882 <__subsf3>:
    3882:	50 58       	subi	r21, 0x80	; 128

00003884 <__addsf3>:
    3884:	bb 27       	eor	r27, r27
    3886:	aa 27       	eor	r26, r26
    3888:	0e d0       	rcall	.+28     	; 0x38a6 <__addsf3x>
    388a:	00 c2       	rjmp	.+1024   	; 0x3c8c <__fp_round>
    388c:	c9 d1       	rcall	.+914    	; 0x3c20 <__fp_pscA>
    388e:	30 f0       	brcs	.+12     	; 0x389c <__addsf3+0x18>
    3890:	ce d1       	rcall	.+924    	; 0x3c2e <__fp_pscB>
    3892:	20 f0       	brcs	.+8      	; 0x389c <__addsf3+0x18>
    3894:	31 f4       	brne	.+12     	; 0x38a2 <__addsf3+0x1e>
    3896:	9f 3f       	cpi	r25, 0xFF	; 255
    3898:	11 f4       	brne	.+4      	; 0x389e <__addsf3+0x1a>
    389a:	1e f4       	brtc	.+6      	; 0x38a2 <__addsf3+0x1e>
    389c:	88 c1       	rjmp	.+784    	; 0x3bae <__fp_nan>
    389e:	0e f4       	brtc	.+2      	; 0x38a2 <__addsf3+0x1e>
    38a0:	e0 95       	com	r30
    38a2:	e7 fb       	bst	r30, 7
    38a4:	7e c1       	rjmp	.+764    	; 0x3ba2 <__fp_inf>

000038a6 <__addsf3x>:
    38a6:	e9 2f       	mov	r30, r25
    38a8:	13 d2       	rcall	.+1062   	; 0x3cd0 <__fp_split3>
    38aa:	80 f3       	brcs	.-32     	; 0x388c <__addsf3+0x8>
    38ac:	ba 17       	cp	r27, r26
    38ae:	62 07       	cpc	r22, r18
    38b0:	73 07       	cpc	r23, r19
    38b2:	84 07       	cpc	r24, r20
    38b4:	95 07       	cpc	r25, r21
    38b6:	18 f0       	brcs	.+6      	; 0x38be <__addsf3x+0x18>
    38b8:	71 f4       	brne	.+28     	; 0x38d6 <__addsf3x+0x30>
    38ba:	9e f5       	brtc	.+102    	; 0x3922 <__addsf3x+0x7c>
    38bc:	2b c2       	rjmp	.+1110   	; 0x3d14 <__fp_zero>
    38be:	0e f4       	brtc	.+2      	; 0x38c2 <__addsf3x+0x1c>
    38c0:	e0 95       	com	r30
    38c2:	0b 2e       	mov	r0, r27
    38c4:	ba 2f       	mov	r27, r26
    38c6:	a0 2d       	mov	r26, r0
    38c8:	0b 01       	movw	r0, r22
    38ca:	b9 01       	movw	r22, r18
    38cc:	90 01       	movw	r18, r0
    38ce:	0c 01       	movw	r0, r24
    38d0:	ca 01       	movw	r24, r20
    38d2:	a0 01       	movw	r20, r0
    38d4:	11 24       	eor	r1, r1
    38d6:	ff 27       	eor	r31, r31
    38d8:	59 1b       	sub	r21, r25
    38da:	99 f0       	breq	.+38     	; 0x3902 <__addsf3x+0x5c>
    38dc:	59 3f       	cpi	r21, 0xF9	; 249
    38de:	50 f4       	brcc	.+20     	; 0x38f4 <__addsf3x+0x4e>
    38e0:	50 3e       	cpi	r21, 0xE0	; 224
    38e2:	68 f1       	brcs	.+90     	; 0x393e <__addsf3x+0x98>
    38e4:	1a 16       	cp	r1, r26
    38e6:	f0 40       	sbci	r31, 0x00	; 0
    38e8:	a2 2f       	mov	r26, r18
    38ea:	23 2f       	mov	r18, r19
    38ec:	34 2f       	mov	r19, r20
    38ee:	44 27       	eor	r20, r20
    38f0:	58 5f       	subi	r21, 0xF8	; 248
    38f2:	f3 cf       	rjmp	.-26     	; 0x38da <__addsf3x+0x34>
    38f4:	46 95       	lsr	r20
    38f6:	37 95       	ror	r19
    38f8:	27 95       	ror	r18
    38fa:	a7 95       	ror	r26
    38fc:	f0 40       	sbci	r31, 0x00	; 0
    38fe:	53 95       	inc	r21
    3900:	c9 f7       	brne	.-14     	; 0x38f4 <__addsf3x+0x4e>
    3902:	7e f4       	brtc	.+30     	; 0x3922 <__addsf3x+0x7c>
    3904:	1f 16       	cp	r1, r31
    3906:	ba 0b       	sbc	r27, r26
    3908:	62 0b       	sbc	r22, r18
    390a:	73 0b       	sbc	r23, r19
    390c:	84 0b       	sbc	r24, r20
    390e:	ba f0       	brmi	.+46     	; 0x393e <__addsf3x+0x98>
    3910:	91 50       	subi	r25, 0x01	; 1
    3912:	a1 f0       	breq	.+40     	; 0x393c <__addsf3x+0x96>
    3914:	ff 0f       	add	r31, r31
    3916:	bb 1f       	adc	r27, r27
    3918:	66 1f       	adc	r22, r22
    391a:	77 1f       	adc	r23, r23
    391c:	88 1f       	adc	r24, r24
    391e:	c2 f7       	brpl	.-16     	; 0x3910 <__addsf3x+0x6a>
    3920:	0e c0       	rjmp	.+28     	; 0x393e <__addsf3x+0x98>
    3922:	ba 0f       	add	r27, r26
    3924:	62 1f       	adc	r22, r18
    3926:	73 1f       	adc	r23, r19
    3928:	84 1f       	adc	r24, r20
    392a:	48 f4       	brcc	.+18     	; 0x393e <__addsf3x+0x98>
    392c:	87 95       	ror	r24
    392e:	77 95       	ror	r23
    3930:	67 95       	ror	r22
    3932:	b7 95       	ror	r27
    3934:	f7 95       	ror	r31
    3936:	9e 3f       	cpi	r25, 0xFE	; 254
    3938:	08 f0       	brcs	.+2      	; 0x393c <__addsf3x+0x96>
    393a:	b3 cf       	rjmp	.-154    	; 0x38a2 <__addsf3+0x1e>
    393c:	93 95       	inc	r25
    393e:	88 0f       	add	r24, r24
    3940:	08 f0       	brcs	.+2      	; 0x3944 <__addsf3x+0x9e>
    3942:	99 27       	eor	r25, r25
    3944:	ee 0f       	add	r30, r30
    3946:	97 95       	ror	r25
    3948:	87 95       	ror	r24
    394a:	08 95       	ret

0000394c <asin>:
    394c:	9f 93       	push	r25
    394e:	9f 77       	andi	r25, 0x7F	; 127
    3950:	ee e3       	ldi	r30, 0x3E	; 62
    3952:	89 37       	cpi	r24, 0x79	; 121
    3954:	9e 07       	cpc	r25, r30
    3956:	20 f4       	brcc	.+8      	; 0x3960 <asin+0x14>
    3958:	e0 e7       	ldi	r30, 0x70	; 112
    395a:	f0 e0       	ldi	r31, 0x00	; 0
    395c:	50 d1       	rcall	.+672    	; 0x3bfe <__fp_powsodd>
    395e:	09 c0       	rjmp	.+18     	; 0x3972 <asin+0x26>
    3960:	05 d1       	rcall	.+522    	; 0x3b6c <__fp_arccos>
    3962:	90 58       	subi	r25, 0x80	; 128
    3964:	a2 ea       	ldi	r26, 0xA2	; 162
    3966:	2a ed       	ldi	r18, 0xDA	; 218
    3968:	3f e0       	ldi	r19, 0x0F	; 15
    396a:	49 ec       	ldi	r20, 0xC9	; 201
    396c:	5f e3       	ldi	r21, 0x3F	; 63
    396e:	9b df       	rcall	.-202    	; 0x38a6 <__addsf3x>
    3970:	8d d1       	rcall	.+794    	; 0x3c8c <__fp_round>
    3972:	0f 90       	pop	r0
    3974:	07 fc       	sbrc	r0, 7
    3976:	90 58       	subi	r25, 0x80	; 128
    3978:	08 95       	ret
    397a:	52 d1       	rcall	.+676    	; 0x3c20 <__fp_pscA>
    397c:	58 f0       	brcs	.+22     	; 0x3994 <asin+0x48>
    397e:	80 e8       	ldi	r24, 0x80	; 128
    3980:	91 e0       	ldi	r25, 0x01	; 1
    3982:	09 f4       	brne	.+2      	; 0x3986 <asin+0x3a>
    3984:	9e ef       	ldi	r25, 0xFE	; 254
    3986:	53 d1       	rcall	.+678    	; 0x3c2e <__fp_pscB>
    3988:	28 f0       	brcs	.+10     	; 0x3994 <asin+0x48>
    398a:	40 e8       	ldi	r20, 0x80	; 128
    398c:	51 e0       	ldi	r21, 0x01	; 1
    398e:	59 f4       	brne	.+22     	; 0x39a6 <atan2+0xe>
    3990:	5e ef       	ldi	r21, 0xFE	; 254
    3992:	09 c0       	rjmp	.+18     	; 0x39a6 <atan2+0xe>
    3994:	0c c1       	rjmp	.+536    	; 0x3bae <__fp_nan>
    3996:	be c1       	rjmp	.+892    	; 0x3d14 <__fp_zero>

00003998 <atan2>:
    3998:	e9 2f       	mov	r30, r25
    399a:	e0 78       	andi	r30, 0x80	; 128
    399c:	99 d1       	rcall	.+818    	; 0x3cd0 <__fp_split3>
    399e:	68 f3       	brcs	.-38     	; 0x397a <asin+0x2e>
    39a0:	09 2e       	mov	r0, r25
    39a2:	05 2a       	or	r0, r21
    39a4:	c1 f3       	breq	.-16     	; 0x3996 <asin+0x4a>
    39a6:	26 17       	cp	r18, r22
    39a8:	37 07       	cpc	r19, r23
    39aa:	48 07       	cpc	r20, r24
    39ac:	59 07       	cpc	r21, r25
    39ae:	38 f0       	brcs	.+14     	; 0x39be <atan2+0x26>
    39b0:	0e 2e       	mov	r0, r30
    39b2:	07 f8       	bld	r0, 7
    39b4:	e0 25       	eor	r30, r0
    39b6:	69 f0       	breq	.+26     	; 0x39d2 <atan2+0x3a>
    39b8:	e0 25       	eor	r30, r0
    39ba:	e0 64       	ori	r30, 0x40	; 64
    39bc:	0a c0       	rjmp	.+20     	; 0x39d2 <atan2+0x3a>
    39be:	ef 63       	ori	r30, 0x3F	; 63
    39c0:	07 f8       	bld	r0, 7
    39c2:	00 94       	com	r0
    39c4:	07 fa       	bst	r0, 7
    39c6:	db 01       	movw	r26, r22
    39c8:	b9 01       	movw	r22, r18
    39ca:	9d 01       	movw	r18, r26
    39cc:	dc 01       	movw	r26, r24
    39ce:	ca 01       	movw	r24, r20
    39d0:	ad 01       	movw	r20, r26
    39d2:	ef 93       	push	r30
    39d4:	46 d0       	rcall	.+140    	; 0x3a62 <__divsf3_pse>
    39d6:	5a d1       	rcall	.+692    	; 0x3c8c <__fp_round>
    39d8:	0a d0       	rcall	.+20     	; 0x39ee <atan>
    39da:	5f 91       	pop	r21
    39dc:	55 23       	and	r21, r21
    39de:	31 f0       	breq	.+12     	; 0x39ec <atan2+0x54>
    39e0:	2b ed       	ldi	r18, 0xDB	; 219
    39e2:	3f e0       	ldi	r19, 0x0F	; 15
    39e4:	49 e4       	ldi	r20, 0x49	; 73
    39e6:	50 fd       	sbrc	r21, 0
    39e8:	49 ec       	ldi	r20, 0xC9	; 201
    39ea:	4c cf       	rjmp	.-360    	; 0x3884 <__addsf3>
    39ec:	08 95       	ret

000039ee <atan>:
    39ee:	df 93       	push	r29
    39f0:	dd 27       	eor	r29, r29
    39f2:	b9 2f       	mov	r27, r25
    39f4:	bf 77       	andi	r27, 0x7F	; 127
    39f6:	40 e8       	ldi	r20, 0x80	; 128
    39f8:	5f e3       	ldi	r21, 0x3F	; 63
    39fa:	16 16       	cp	r1, r22
    39fc:	17 06       	cpc	r1, r23
    39fe:	48 07       	cpc	r20, r24
    3a00:	5b 07       	cpc	r21, r27
    3a02:	10 f4       	brcc	.+4      	; 0x3a08 <atan+0x1a>
    3a04:	d9 2f       	mov	r29, r25
    3a06:	91 d1       	rcall	.+802    	; 0x3d2a <inverse>
    3a08:	9f 93       	push	r25
    3a0a:	8f 93       	push	r24
    3a0c:	7f 93       	push	r23
    3a0e:	6f 93       	push	r22
    3a10:	3e d2       	rcall	.+1148   	; 0x3e8e <square>
    3a12:	e4 e8       	ldi	r30, 0x84	; 132
    3a14:	f0 e0       	ldi	r31, 0x00	; 0
    3a16:	ce d0       	rcall	.+412    	; 0x3bb4 <__fp_powser>
    3a18:	39 d1       	rcall	.+626    	; 0x3c8c <__fp_round>
    3a1a:	2f 91       	pop	r18
    3a1c:	3f 91       	pop	r19
    3a1e:	4f 91       	pop	r20
    3a20:	5f 91       	pop	r21
    3a22:	96 d1       	rcall	.+812    	; 0x3d50 <__mulsf3x>
    3a24:	dd 23       	and	r29, r29
    3a26:	49 f0       	breq	.+18     	; 0x3a3a <atan+0x4c>
    3a28:	90 58       	subi	r25, 0x80	; 128
    3a2a:	a2 ea       	ldi	r26, 0xA2	; 162
    3a2c:	2a ed       	ldi	r18, 0xDA	; 218
    3a2e:	3f e0       	ldi	r19, 0x0F	; 15
    3a30:	49 ec       	ldi	r20, 0xC9	; 201
    3a32:	5f e3       	ldi	r21, 0x3F	; 63
    3a34:	d0 78       	andi	r29, 0x80	; 128
    3a36:	5d 27       	eor	r21, r29
    3a38:	36 df       	rcall	.-404    	; 0x38a6 <__addsf3x>
    3a3a:	df 91       	pop	r29
    3a3c:	27 c1       	rjmp	.+590    	; 0x3c8c <__fp_round>

00003a3e <cos>:
    3a3e:	ff d0       	rcall	.+510    	; 0x3c3e <__fp_rempio2>
    3a40:	e3 95       	inc	r30
    3a42:	35 c1       	rjmp	.+618    	; 0x3cae <__fp_sinus>

00003a44 <__divsf3>:
    3a44:	0c d0       	rcall	.+24     	; 0x3a5e <__divsf3x>
    3a46:	22 c1       	rjmp	.+580    	; 0x3c8c <__fp_round>
    3a48:	f2 d0       	rcall	.+484    	; 0x3c2e <__fp_pscB>
    3a4a:	40 f0       	brcs	.+16     	; 0x3a5c <__divsf3+0x18>
    3a4c:	e9 d0       	rcall	.+466    	; 0x3c20 <__fp_pscA>
    3a4e:	30 f0       	brcs	.+12     	; 0x3a5c <__divsf3+0x18>
    3a50:	21 f4       	brne	.+8      	; 0x3a5a <__divsf3+0x16>
    3a52:	5f 3f       	cpi	r21, 0xFF	; 255
    3a54:	19 f0       	breq	.+6      	; 0x3a5c <__divsf3+0x18>
    3a56:	a5 c0       	rjmp	.+330    	; 0x3ba2 <__fp_inf>
    3a58:	51 11       	cpse	r21, r1
    3a5a:	5d c1       	rjmp	.+698    	; 0x3d16 <__fp_szero>
    3a5c:	a8 c0       	rjmp	.+336    	; 0x3bae <__fp_nan>

00003a5e <__divsf3x>:
    3a5e:	38 d1       	rcall	.+624    	; 0x3cd0 <__fp_split3>
    3a60:	98 f3       	brcs	.-26     	; 0x3a48 <__divsf3+0x4>

00003a62 <__divsf3_pse>:
    3a62:	99 23       	and	r25, r25
    3a64:	c9 f3       	breq	.-14     	; 0x3a58 <__divsf3+0x14>
    3a66:	55 23       	and	r21, r21
    3a68:	b1 f3       	breq	.-20     	; 0x3a56 <__divsf3+0x12>
    3a6a:	95 1b       	sub	r25, r21
    3a6c:	55 0b       	sbc	r21, r21
    3a6e:	bb 27       	eor	r27, r27
    3a70:	aa 27       	eor	r26, r26
    3a72:	62 17       	cp	r22, r18
    3a74:	73 07       	cpc	r23, r19
    3a76:	84 07       	cpc	r24, r20
    3a78:	38 f0       	brcs	.+14     	; 0x3a88 <__divsf3_pse+0x26>
    3a7a:	9f 5f       	subi	r25, 0xFF	; 255
    3a7c:	5f 4f       	sbci	r21, 0xFF	; 255
    3a7e:	22 0f       	add	r18, r18
    3a80:	33 1f       	adc	r19, r19
    3a82:	44 1f       	adc	r20, r20
    3a84:	aa 1f       	adc	r26, r26
    3a86:	a9 f3       	breq	.-22     	; 0x3a72 <__divsf3_pse+0x10>
    3a88:	33 d0       	rcall	.+102    	; 0x3af0 <__divsf3_pse+0x8e>
    3a8a:	0e 2e       	mov	r0, r30
    3a8c:	3a f0       	brmi	.+14     	; 0x3a9c <__divsf3_pse+0x3a>
    3a8e:	e0 e8       	ldi	r30, 0x80	; 128
    3a90:	30 d0       	rcall	.+96     	; 0x3af2 <__divsf3_pse+0x90>
    3a92:	91 50       	subi	r25, 0x01	; 1
    3a94:	50 40       	sbci	r21, 0x00	; 0
    3a96:	e6 95       	lsr	r30
    3a98:	00 1c       	adc	r0, r0
    3a9a:	ca f7       	brpl	.-14     	; 0x3a8e <__divsf3_pse+0x2c>
    3a9c:	29 d0       	rcall	.+82     	; 0x3af0 <__divsf3_pse+0x8e>
    3a9e:	fe 2f       	mov	r31, r30
    3aa0:	27 d0       	rcall	.+78     	; 0x3af0 <__divsf3_pse+0x8e>
    3aa2:	66 0f       	add	r22, r22
    3aa4:	77 1f       	adc	r23, r23
    3aa6:	88 1f       	adc	r24, r24
    3aa8:	bb 1f       	adc	r27, r27
    3aaa:	26 17       	cp	r18, r22
    3aac:	37 07       	cpc	r19, r23
    3aae:	48 07       	cpc	r20, r24
    3ab0:	ab 07       	cpc	r26, r27
    3ab2:	b0 e8       	ldi	r27, 0x80	; 128
    3ab4:	09 f0       	breq	.+2      	; 0x3ab8 <__divsf3_pse+0x56>
    3ab6:	bb 0b       	sbc	r27, r27
    3ab8:	80 2d       	mov	r24, r0
    3aba:	bf 01       	movw	r22, r30
    3abc:	ff 27       	eor	r31, r31
    3abe:	93 58       	subi	r25, 0x83	; 131
    3ac0:	5f 4f       	sbci	r21, 0xFF	; 255
    3ac2:	2a f0       	brmi	.+10     	; 0x3ace <__divsf3_pse+0x6c>
    3ac4:	9e 3f       	cpi	r25, 0xFE	; 254
    3ac6:	51 05       	cpc	r21, r1
    3ac8:	68 f0       	brcs	.+26     	; 0x3ae4 <__divsf3_pse+0x82>
    3aca:	6b c0       	rjmp	.+214    	; 0x3ba2 <__fp_inf>
    3acc:	24 c1       	rjmp	.+584    	; 0x3d16 <__fp_szero>
    3ace:	5f 3f       	cpi	r21, 0xFF	; 255
    3ad0:	ec f3       	brlt	.-6      	; 0x3acc <__divsf3_pse+0x6a>
    3ad2:	98 3e       	cpi	r25, 0xE8	; 232
    3ad4:	dc f3       	brlt	.-10     	; 0x3acc <__divsf3_pse+0x6a>
    3ad6:	86 95       	lsr	r24
    3ad8:	77 95       	ror	r23
    3ada:	67 95       	ror	r22
    3adc:	b7 95       	ror	r27
    3ade:	f7 95       	ror	r31
    3ae0:	9f 5f       	subi	r25, 0xFF	; 255
    3ae2:	c9 f7       	brne	.-14     	; 0x3ad6 <__divsf3_pse+0x74>
    3ae4:	88 0f       	add	r24, r24
    3ae6:	91 1d       	adc	r25, r1
    3ae8:	96 95       	lsr	r25
    3aea:	87 95       	ror	r24
    3aec:	97 f9       	bld	r25, 7
    3aee:	08 95       	ret
    3af0:	e1 e0       	ldi	r30, 0x01	; 1
    3af2:	66 0f       	add	r22, r22
    3af4:	77 1f       	adc	r23, r23
    3af6:	88 1f       	adc	r24, r24
    3af8:	bb 1f       	adc	r27, r27
    3afa:	62 17       	cp	r22, r18
    3afc:	73 07       	cpc	r23, r19
    3afe:	84 07       	cpc	r24, r20
    3b00:	ba 07       	cpc	r27, r26
    3b02:	20 f0       	brcs	.+8      	; 0x3b0c <__divsf3_pse+0xaa>
    3b04:	62 1b       	sub	r22, r18
    3b06:	73 0b       	sbc	r23, r19
    3b08:	84 0b       	sbc	r24, r20
    3b0a:	ba 0b       	sbc	r27, r26
    3b0c:	ee 1f       	adc	r30, r30
    3b0e:	88 f7       	brcc	.-30     	; 0x3af2 <__divsf3_pse+0x90>
    3b10:	e0 95       	com	r30
    3b12:	08 95       	ret

00003b14 <__fixunssfsi>:
    3b14:	e5 d0       	rcall	.+458    	; 0x3ce0 <__fp_splitA>
    3b16:	88 f0       	brcs	.+34     	; 0x3b3a <__fixunssfsi+0x26>
    3b18:	9f 57       	subi	r25, 0x7F	; 127
    3b1a:	90 f0       	brcs	.+36     	; 0x3b40 <__fixunssfsi+0x2c>
    3b1c:	b9 2f       	mov	r27, r25
    3b1e:	99 27       	eor	r25, r25
    3b20:	b7 51       	subi	r27, 0x17	; 23
    3b22:	a0 f0       	brcs	.+40     	; 0x3b4c <__fixunssfsi+0x38>
    3b24:	d1 f0       	breq	.+52     	; 0x3b5a <__fixunssfsi+0x46>
    3b26:	66 0f       	add	r22, r22
    3b28:	77 1f       	adc	r23, r23
    3b2a:	88 1f       	adc	r24, r24
    3b2c:	99 1f       	adc	r25, r25
    3b2e:	1a f0       	brmi	.+6      	; 0x3b36 <__fixunssfsi+0x22>
    3b30:	ba 95       	dec	r27
    3b32:	c9 f7       	brne	.-14     	; 0x3b26 <__fixunssfsi+0x12>
    3b34:	12 c0       	rjmp	.+36     	; 0x3b5a <__fixunssfsi+0x46>
    3b36:	b1 30       	cpi	r27, 0x01	; 1
    3b38:	81 f0       	breq	.+32     	; 0x3b5a <__fixunssfsi+0x46>
    3b3a:	ec d0       	rcall	.+472    	; 0x3d14 <__fp_zero>
    3b3c:	b1 e0       	ldi	r27, 0x01	; 1
    3b3e:	08 95       	ret
    3b40:	e9 c0       	rjmp	.+466    	; 0x3d14 <__fp_zero>
    3b42:	67 2f       	mov	r22, r23
    3b44:	78 2f       	mov	r23, r24
    3b46:	88 27       	eor	r24, r24
    3b48:	b8 5f       	subi	r27, 0xF8	; 248
    3b4a:	39 f0       	breq	.+14     	; 0x3b5a <__fixunssfsi+0x46>
    3b4c:	b9 3f       	cpi	r27, 0xF9	; 249
    3b4e:	cc f3       	brlt	.-14     	; 0x3b42 <__fixunssfsi+0x2e>
    3b50:	86 95       	lsr	r24
    3b52:	77 95       	ror	r23
    3b54:	67 95       	ror	r22
    3b56:	b3 95       	inc	r27
    3b58:	d9 f7       	brne	.-10     	; 0x3b50 <__fixunssfsi+0x3c>
    3b5a:	3e f4       	brtc	.+14     	; 0x3b6a <__fixunssfsi+0x56>
    3b5c:	90 95       	com	r25
    3b5e:	80 95       	com	r24
    3b60:	70 95       	com	r23
    3b62:	61 95       	neg	r22
    3b64:	7f 4f       	sbci	r23, 0xFF	; 255
    3b66:	8f 4f       	sbci	r24, 0xFF	; 255
    3b68:	9f 4f       	sbci	r25, 0xFF	; 255
    3b6a:	08 95       	ret

00003b6c <__fp_arccos>:
    3b6c:	df 93       	push	r29
    3b6e:	cf 93       	push	r28
    3b70:	1f 93       	push	r17
    3b72:	0f 93       	push	r16
    3b74:	8b 01       	movw	r16, r22
    3b76:	ec 01       	movw	r28, r24
    3b78:	e1 eb       	ldi	r30, 0xB1	; 177
    3b7a:	f0 e0       	ldi	r31, 0x00	; 0
    3b7c:	1b d0       	rcall	.+54     	; 0x3bb4 <__fp_powser>
    3b7e:	86 d0       	rcall	.+268    	; 0x3c8c <__fp_round>
    3b80:	98 01       	movw	r18, r16
    3b82:	ae 01       	movw	r20, r28
    3b84:	8b 01       	movw	r16, r22
    3b86:	ec 01       	movw	r28, r24
    3b88:	60 e0       	ldi	r22, 0x00	; 0
    3b8a:	70 e0       	ldi	r23, 0x00	; 0
    3b8c:	80 e8       	ldi	r24, 0x80	; 128
    3b8e:	9f e3       	ldi	r25, 0x3F	; 63
    3b90:	78 de       	rcall	.-784    	; 0x3882 <__subsf3>
    3b92:	3f d1       	rcall	.+638    	; 0x3e12 <sqrt>
    3b94:	98 01       	movw	r18, r16
    3b96:	ae 01       	movw	r20, r28
    3b98:	0f 91       	pop	r16
    3b9a:	1f 91       	pop	r17
    3b9c:	cf 91       	pop	r28
    3b9e:	df 91       	pop	r29
    3ba0:	d7 c0       	rjmp	.+430    	; 0x3d50 <__mulsf3x>

00003ba2 <__fp_inf>:
    3ba2:	97 f9       	bld	r25, 7
    3ba4:	9f 67       	ori	r25, 0x7F	; 127
    3ba6:	80 e8       	ldi	r24, 0x80	; 128
    3ba8:	70 e0       	ldi	r23, 0x00	; 0
    3baa:	60 e0       	ldi	r22, 0x00	; 0
    3bac:	08 95       	ret

00003bae <__fp_nan>:
    3bae:	9f ef       	ldi	r25, 0xFF	; 255
    3bb0:	80 ec       	ldi	r24, 0xC0	; 192
    3bb2:	08 95       	ret

00003bb4 <__fp_powser>:
    3bb4:	df 93       	push	r29
    3bb6:	cf 93       	push	r28
    3bb8:	1f 93       	push	r17
    3bba:	0f 93       	push	r16
    3bbc:	ff 92       	push	r15
    3bbe:	ef 92       	push	r14
    3bc0:	df 92       	push	r13
    3bc2:	7b 01       	movw	r14, r22
    3bc4:	8c 01       	movw	r16, r24
    3bc6:	68 94       	set
    3bc8:	05 c0       	rjmp	.+10     	; 0x3bd4 <__fp_powser+0x20>
    3bca:	da 2e       	mov	r13, r26
    3bcc:	ef 01       	movw	r28, r30
    3bce:	c0 d0       	rcall	.+384    	; 0x3d50 <__mulsf3x>
    3bd0:	fe 01       	movw	r30, r28
    3bd2:	e8 94       	clt
    3bd4:	a5 91       	lpm	r26, Z+
    3bd6:	25 91       	lpm	r18, Z+
    3bd8:	35 91       	lpm	r19, Z+
    3bda:	45 91       	lpm	r20, Z+
    3bdc:	55 91       	lpm	r21, Z+
    3bde:	ae f3       	brts	.-22     	; 0x3bca <__fp_powser+0x16>
    3be0:	ef 01       	movw	r28, r30
    3be2:	61 de       	rcall	.-830    	; 0x38a6 <__addsf3x>
    3be4:	fe 01       	movw	r30, r28
    3be6:	97 01       	movw	r18, r14
    3be8:	a8 01       	movw	r20, r16
    3bea:	da 94       	dec	r13
    3bec:	79 f7       	brne	.-34     	; 0x3bcc <__fp_powser+0x18>
    3bee:	df 90       	pop	r13
    3bf0:	ef 90       	pop	r14
    3bf2:	ff 90       	pop	r15
    3bf4:	0f 91       	pop	r16
    3bf6:	1f 91       	pop	r17
    3bf8:	cf 91       	pop	r28
    3bfa:	df 91       	pop	r29
    3bfc:	08 95       	ret

00003bfe <__fp_powsodd>:
    3bfe:	9f 93       	push	r25
    3c00:	8f 93       	push	r24
    3c02:	7f 93       	push	r23
    3c04:	6f 93       	push	r22
    3c06:	ff 93       	push	r31
    3c08:	ef 93       	push	r30
    3c0a:	9b 01       	movw	r18, r22
    3c0c:	ac 01       	movw	r20, r24
    3c0e:	94 d0       	rcall	.+296    	; 0x3d38 <__mulsf3>
    3c10:	ef 91       	pop	r30
    3c12:	ff 91       	pop	r31
    3c14:	cf df       	rcall	.-98     	; 0x3bb4 <__fp_powser>
    3c16:	2f 91       	pop	r18
    3c18:	3f 91       	pop	r19
    3c1a:	4f 91       	pop	r20
    3c1c:	5f 91       	pop	r21
    3c1e:	8c c0       	rjmp	.+280    	; 0x3d38 <__mulsf3>

00003c20 <__fp_pscA>:
    3c20:	00 24       	eor	r0, r0
    3c22:	0a 94       	dec	r0
    3c24:	16 16       	cp	r1, r22
    3c26:	17 06       	cpc	r1, r23
    3c28:	18 06       	cpc	r1, r24
    3c2a:	09 06       	cpc	r0, r25
    3c2c:	08 95       	ret

00003c2e <__fp_pscB>:
    3c2e:	00 24       	eor	r0, r0
    3c30:	0a 94       	dec	r0
    3c32:	12 16       	cp	r1, r18
    3c34:	13 06       	cpc	r1, r19
    3c36:	14 06       	cpc	r1, r20
    3c38:	05 06       	cpc	r0, r21
    3c3a:	08 95       	ret
    3c3c:	b8 cf       	rjmp	.-144    	; 0x3bae <__fp_nan>

00003c3e <__fp_rempio2>:
    3c3e:	50 d0       	rcall	.+160    	; 0x3ce0 <__fp_splitA>
    3c40:	e8 f3       	brcs	.-6      	; 0x3c3c <__fp_pscB+0xe>
    3c42:	e8 94       	clt
    3c44:	e0 e0       	ldi	r30, 0x00	; 0
    3c46:	bb 27       	eor	r27, r27
    3c48:	9f 57       	subi	r25, 0x7F	; 127
    3c4a:	f0 f0       	brcs	.+60     	; 0x3c88 <__fp_rempio2+0x4a>
    3c4c:	2a ed       	ldi	r18, 0xDA	; 218
    3c4e:	3f e0       	ldi	r19, 0x0F	; 15
    3c50:	49 ec       	ldi	r20, 0xC9	; 201
    3c52:	06 c0       	rjmp	.+12     	; 0x3c60 <__fp_rempio2+0x22>
    3c54:	ee 0f       	add	r30, r30
    3c56:	bb 0f       	add	r27, r27
    3c58:	66 1f       	adc	r22, r22
    3c5a:	77 1f       	adc	r23, r23
    3c5c:	88 1f       	adc	r24, r24
    3c5e:	28 f0       	brcs	.+10     	; 0x3c6a <__fp_rempio2+0x2c>
    3c60:	b2 3a       	cpi	r27, 0xA2	; 162
    3c62:	62 07       	cpc	r22, r18
    3c64:	73 07       	cpc	r23, r19
    3c66:	84 07       	cpc	r24, r20
    3c68:	28 f0       	brcs	.+10     	; 0x3c74 <__fp_rempio2+0x36>
    3c6a:	b2 5a       	subi	r27, 0xA2	; 162
    3c6c:	62 0b       	sbc	r22, r18
    3c6e:	73 0b       	sbc	r23, r19
    3c70:	84 0b       	sbc	r24, r20
    3c72:	e3 95       	inc	r30
    3c74:	9a 95       	dec	r25
    3c76:	72 f7       	brpl	.-36     	; 0x3c54 <__fp_rempio2+0x16>
    3c78:	80 38       	cpi	r24, 0x80	; 128
    3c7a:	30 f4       	brcc	.+12     	; 0x3c88 <__fp_rempio2+0x4a>
    3c7c:	9a 95       	dec	r25
    3c7e:	bb 0f       	add	r27, r27
    3c80:	66 1f       	adc	r22, r22
    3c82:	77 1f       	adc	r23, r23
    3c84:	88 1f       	adc	r24, r24
    3c86:	d2 f7       	brpl	.-12     	; 0x3c7c <__fp_rempio2+0x3e>
    3c88:	90 48       	sbci	r25, 0x80	; 128
    3c8a:	2a c1       	rjmp	.+596    	; 0x3ee0 <__fp_mpack_finite>

00003c8c <__fp_round>:
    3c8c:	09 2e       	mov	r0, r25
    3c8e:	03 94       	inc	r0
    3c90:	00 0c       	add	r0, r0
    3c92:	11 f4       	brne	.+4      	; 0x3c98 <__fp_round+0xc>
    3c94:	88 23       	and	r24, r24
    3c96:	52 f0       	brmi	.+20     	; 0x3cac <__fp_round+0x20>
    3c98:	bb 0f       	add	r27, r27
    3c9a:	40 f4       	brcc	.+16     	; 0x3cac <__fp_round+0x20>
    3c9c:	bf 2b       	or	r27, r31
    3c9e:	11 f4       	brne	.+4      	; 0x3ca4 <__fp_round+0x18>
    3ca0:	60 ff       	sbrs	r22, 0
    3ca2:	04 c0       	rjmp	.+8      	; 0x3cac <__fp_round+0x20>
    3ca4:	6f 5f       	subi	r22, 0xFF	; 255
    3ca6:	7f 4f       	sbci	r23, 0xFF	; 255
    3ca8:	8f 4f       	sbci	r24, 0xFF	; 255
    3caa:	9f 4f       	sbci	r25, 0xFF	; 255
    3cac:	08 95       	ret

00003cae <__fp_sinus>:
    3cae:	ef 93       	push	r30
    3cb0:	e0 ff       	sbrs	r30, 0
    3cb2:	06 c0       	rjmp	.+12     	; 0x3cc0 <__fp_sinus+0x12>
    3cb4:	a2 ea       	ldi	r26, 0xA2	; 162
    3cb6:	2a ed       	ldi	r18, 0xDA	; 218
    3cb8:	3f e0       	ldi	r19, 0x0F	; 15
    3cba:	49 ec       	ldi	r20, 0xC9	; 201
    3cbc:	5f eb       	ldi	r21, 0xBF	; 191
    3cbe:	f3 dd       	rcall	.-1050   	; 0x38a6 <__addsf3x>
    3cc0:	e5 df       	rcall	.-54     	; 0x3c8c <__fp_round>
    3cc2:	0f 90       	pop	r0
    3cc4:	03 94       	inc	r0
    3cc6:	01 fc       	sbrc	r0, 1
    3cc8:	90 58       	subi	r25, 0x80	; 128
    3cca:	e9 ed       	ldi	r30, 0xD9	; 217
    3ccc:	f0 e0       	ldi	r31, 0x00	; 0
    3cce:	97 cf       	rjmp	.-210    	; 0x3bfe <__fp_powsodd>

00003cd0 <__fp_split3>:
    3cd0:	57 fd       	sbrc	r21, 7
    3cd2:	90 58       	subi	r25, 0x80	; 128
    3cd4:	44 0f       	add	r20, r20
    3cd6:	55 1f       	adc	r21, r21
    3cd8:	59 f0       	breq	.+22     	; 0x3cf0 <__fp_splitA+0x10>
    3cda:	5f 3f       	cpi	r21, 0xFF	; 255
    3cdc:	71 f0       	breq	.+28     	; 0x3cfa <__fp_splitA+0x1a>
    3cde:	47 95       	ror	r20

00003ce0 <__fp_splitA>:
    3ce0:	88 0f       	add	r24, r24
    3ce2:	97 fb       	bst	r25, 7
    3ce4:	99 1f       	adc	r25, r25
    3ce6:	61 f0       	breq	.+24     	; 0x3d00 <__fp_splitA+0x20>
    3ce8:	9f 3f       	cpi	r25, 0xFF	; 255
    3cea:	79 f0       	breq	.+30     	; 0x3d0a <__fp_splitA+0x2a>
    3cec:	87 95       	ror	r24
    3cee:	08 95       	ret
    3cf0:	12 16       	cp	r1, r18
    3cf2:	13 06       	cpc	r1, r19
    3cf4:	14 06       	cpc	r1, r20
    3cf6:	55 1f       	adc	r21, r21
    3cf8:	f2 cf       	rjmp	.-28     	; 0x3cde <__fp_split3+0xe>
    3cfa:	46 95       	lsr	r20
    3cfc:	f1 df       	rcall	.-30     	; 0x3ce0 <__fp_splitA>
    3cfe:	08 c0       	rjmp	.+16     	; 0x3d10 <__fp_splitA+0x30>
    3d00:	16 16       	cp	r1, r22
    3d02:	17 06       	cpc	r1, r23
    3d04:	18 06       	cpc	r1, r24
    3d06:	99 1f       	adc	r25, r25
    3d08:	f1 cf       	rjmp	.-30     	; 0x3cec <__fp_splitA+0xc>
    3d0a:	86 95       	lsr	r24
    3d0c:	71 05       	cpc	r23, r1
    3d0e:	61 05       	cpc	r22, r1
    3d10:	08 94       	sec
    3d12:	08 95       	ret

00003d14 <__fp_zero>:
    3d14:	e8 94       	clt

00003d16 <__fp_szero>:
    3d16:	bb 27       	eor	r27, r27
    3d18:	66 27       	eor	r22, r22
    3d1a:	77 27       	eor	r23, r23
    3d1c:	cb 01       	movw	r24, r22
    3d1e:	97 f9       	bld	r25, 7
    3d20:	08 95       	ret

00003d22 <__gesf2>:
    3d22:	b8 d0       	rcall	.+368    	; 0x3e94 <__fp_cmp>
    3d24:	08 f4       	brcc	.+2      	; 0x3d28 <__gesf2+0x6>
    3d26:	8f ef       	ldi	r24, 0xFF	; 255
    3d28:	08 95       	ret

00003d2a <inverse>:
    3d2a:	9b 01       	movw	r18, r22
    3d2c:	ac 01       	movw	r20, r24
    3d2e:	60 e0       	ldi	r22, 0x00	; 0
    3d30:	70 e0       	ldi	r23, 0x00	; 0
    3d32:	80 e8       	ldi	r24, 0x80	; 128
    3d34:	9f e3       	ldi	r25, 0x3F	; 63
    3d36:	86 ce       	rjmp	.-756    	; 0x3a44 <__divsf3>

00003d38 <__mulsf3>:
    3d38:	0b d0       	rcall	.+22     	; 0x3d50 <__mulsf3x>
    3d3a:	a8 cf       	rjmp	.-176    	; 0x3c8c <__fp_round>
    3d3c:	71 df       	rcall	.-286    	; 0x3c20 <__fp_pscA>
    3d3e:	28 f0       	brcs	.+10     	; 0x3d4a <__mulsf3+0x12>
    3d40:	76 df       	rcall	.-276    	; 0x3c2e <__fp_pscB>
    3d42:	18 f0       	brcs	.+6      	; 0x3d4a <__mulsf3+0x12>
    3d44:	95 23       	and	r25, r21
    3d46:	09 f0       	breq	.+2      	; 0x3d4a <__mulsf3+0x12>
    3d48:	2c cf       	rjmp	.-424    	; 0x3ba2 <__fp_inf>
    3d4a:	31 cf       	rjmp	.-414    	; 0x3bae <__fp_nan>
    3d4c:	11 24       	eor	r1, r1
    3d4e:	e3 cf       	rjmp	.-58     	; 0x3d16 <__fp_szero>

00003d50 <__mulsf3x>:
    3d50:	bf df       	rcall	.-130    	; 0x3cd0 <__fp_split3>
    3d52:	a0 f3       	brcs	.-24     	; 0x3d3c <__mulsf3+0x4>

00003d54 <__mulsf3_pse>:
    3d54:	95 9f       	mul	r25, r21
    3d56:	d1 f3       	breq	.-12     	; 0x3d4c <__mulsf3+0x14>
    3d58:	95 0f       	add	r25, r21
    3d5a:	50 e0       	ldi	r21, 0x00	; 0
    3d5c:	55 1f       	adc	r21, r21
    3d5e:	62 9f       	mul	r22, r18
    3d60:	f0 01       	movw	r30, r0
    3d62:	72 9f       	mul	r23, r18
    3d64:	bb 27       	eor	r27, r27
    3d66:	f0 0d       	add	r31, r0
    3d68:	b1 1d       	adc	r27, r1
    3d6a:	63 9f       	mul	r22, r19
    3d6c:	aa 27       	eor	r26, r26
    3d6e:	f0 0d       	add	r31, r0
    3d70:	b1 1d       	adc	r27, r1
    3d72:	aa 1f       	adc	r26, r26
    3d74:	64 9f       	mul	r22, r20
    3d76:	66 27       	eor	r22, r22
    3d78:	b0 0d       	add	r27, r0
    3d7a:	a1 1d       	adc	r26, r1
    3d7c:	66 1f       	adc	r22, r22
    3d7e:	82 9f       	mul	r24, r18
    3d80:	22 27       	eor	r18, r18
    3d82:	b0 0d       	add	r27, r0
    3d84:	a1 1d       	adc	r26, r1
    3d86:	62 1f       	adc	r22, r18
    3d88:	73 9f       	mul	r23, r19
    3d8a:	b0 0d       	add	r27, r0
    3d8c:	a1 1d       	adc	r26, r1
    3d8e:	62 1f       	adc	r22, r18
    3d90:	83 9f       	mul	r24, r19
    3d92:	a0 0d       	add	r26, r0
    3d94:	61 1d       	adc	r22, r1
    3d96:	22 1f       	adc	r18, r18
    3d98:	74 9f       	mul	r23, r20
    3d9a:	33 27       	eor	r19, r19
    3d9c:	a0 0d       	add	r26, r0
    3d9e:	61 1d       	adc	r22, r1
    3da0:	23 1f       	adc	r18, r19
    3da2:	84 9f       	mul	r24, r20
    3da4:	60 0d       	add	r22, r0
    3da6:	21 1d       	adc	r18, r1
    3da8:	82 2f       	mov	r24, r18
    3daa:	76 2f       	mov	r23, r22
    3dac:	6a 2f       	mov	r22, r26
    3dae:	11 24       	eor	r1, r1
    3db0:	9f 57       	subi	r25, 0x7F	; 127
    3db2:	50 40       	sbci	r21, 0x00	; 0
    3db4:	8a f0       	brmi	.+34     	; 0x3dd8 <__mulsf3_pse+0x84>
    3db6:	e1 f0       	breq	.+56     	; 0x3df0 <__mulsf3_pse+0x9c>
    3db8:	88 23       	and	r24, r24
    3dba:	4a f0       	brmi	.+18     	; 0x3dce <__mulsf3_pse+0x7a>
    3dbc:	ee 0f       	add	r30, r30
    3dbe:	ff 1f       	adc	r31, r31
    3dc0:	bb 1f       	adc	r27, r27
    3dc2:	66 1f       	adc	r22, r22
    3dc4:	77 1f       	adc	r23, r23
    3dc6:	88 1f       	adc	r24, r24
    3dc8:	91 50       	subi	r25, 0x01	; 1
    3dca:	50 40       	sbci	r21, 0x00	; 0
    3dcc:	a9 f7       	brne	.-22     	; 0x3db8 <__mulsf3_pse+0x64>
    3dce:	9e 3f       	cpi	r25, 0xFE	; 254
    3dd0:	51 05       	cpc	r21, r1
    3dd2:	70 f0       	brcs	.+28     	; 0x3df0 <__mulsf3_pse+0x9c>
    3dd4:	e6 ce       	rjmp	.-564    	; 0x3ba2 <__fp_inf>
    3dd6:	9f cf       	rjmp	.-194    	; 0x3d16 <__fp_szero>
    3dd8:	5f 3f       	cpi	r21, 0xFF	; 255
    3dda:	ec f3       	brlt	.-6      	; 0x3dd6 <__mulsf3_pse+0x82>
    3ddc:	98 3e       	cpi	r25, 0xE8	; 232
    3dde:	dc f3       	brlt	.-10     	; 0x3dd6 <__mulsf3_pse+0x82>
    3de0:	86 95       	lsr	r24
    3de2:	77 95       	ror	r23
    3de4:	67 95       	ror	r22
    3de6:	b7 95       	ror	r27
    3de8:	f7 95       	ror	r31
    3dea:	e7 95       	ror	r30
    3dec:	9f 5f       	subi	r25, 0xFF	; 255
    3dee:	c1 f7       	brne	.-16     	; 0x3de0 <__mulsf3_pse+0x8c>
    3df0:	fe 2b       	or	r31, r30
    3df2:	88 0f       	add	r24, r24
    3df4:	91 1d       	adc	r25, r1
    3df6:	96 95       	lsr	r25
    3df8:	87 95       	ror	r24
    3dfa:	97 f9       	bld	r25, 7
    3dfc:	08 95       	ret

00003dfe <sin>:
    3dfe:	9f 93       	push	r25
    3e00:	1e df       	rcall	.-452    	; 0x3c3e <__fp_rempio2>
    3e02:	0f 90       	pop	r0
    3e04:	07 fc       	sbrc	r0, 7
    3e06:	ee 5f       	subi	r30, 0xFE	; 254
    3e08:	52 cf       	rjmp	.-348    	; 0x3cae <__fp_sinus>
    3e0a:	11 f4       	brne	.+4      	; 0x3e10 <sin+0x12>
    3e0c:	0e f4       	brtc	.+2      	; 0x3e10 <sin+0x12>
    3e0e:	cf ce       	rjmp	.-610    	; 0x3bae <__fp_nan>
    3e10:	65 c0       	rjmp	.+202    	; 0x3edc <__fp_mpack>

00003e12 <sqrt>:
    3e12:	66 df       	rcall	.-308    	; 0x3ce0 <__fp_splitA>
    3e14:	d0 f3       	brcs	.-12     	; 0x3e0a <sin+0xc>
    3e16:	99 23       	and	r25, r25
    3e18:	d9 f3       	breq	.-10     	; 0x3e10 <sin+0x12>
    3e1a:	ce f3       	brts	.-14     	; 0x3e0e <sin+0x10>
    3e1c:	9f 57       	subi	r25, 0x7F	; 127
    3e1e:	55 0b       	sbc	r21, r21
    3e20:	87 ff       	sbrs	r24, 7
    3e22:	6a d0       	rcall	.+212    	; 0x3ef8 <__fp_norm2>
    3e24:	00 24       	eor	r0, r0
    3e26:	a0 e6       	ldi	r26, 0x60	; 96
    3e28:	40 ea       	ldi	r20, 0xA0	; 160
    3e2a:	90 01       	movw	r18, r0
    3e2c:	80 58       	subi	r24, 0x80	; 128
    3e2e:	56 95       	lsr	r21
    3e30:	97 95       	ror	r25
    3e32:	28 f4       	brcc	.+10     	; 0x3e3e <sqrt+0x2c>
    3e34:	80 5c       	subi	r24, 0xC0	; 192
    3e36:	66 0f       	add	r22, r22
    3e38:	77 1f       	adc	r23, r23
    3e3a:	88 1f       	adc	r24, r24
    3e3c:	20 f0       	brcs	.+8      	; 0x3e46 <sqrt+0x34>
    3e3e:	26 17       	cp	r18, r22
    3e40:	37 07       	cpc	r19, r23
    3e42:	48 07       	cpc	r20, r24
    3e44:	30 f4       	brcc	.+12     	; 0x3e52 <sqrt+0x40>
    3e46:	62 1b       	sub	r22, r18
    3e48:	73 0b       	sbc	r23, r19
    3e4a:	84 0b       	sbc	r24, r20
    3e4c:	20 29       	or	r18, r0
    3e4e:	31 29       	or	r19, r1
    3e50:	4a 2b       	or	r20, r26
    3e52:	a6 95       	lsr	r26
    3e54:	17 94       	ror	r1
    3e56:	07 94       	ror	r0
    3e58:	20 25       	eor	r18, r0
    3e5a:	31 25       	eor	r19, r1
    3e5c:	4a 27       	eor	r20, r26
    3e5e:	58 f7       	brcc	.-42     	; 0x3e36 <sqrt+0x24>
    3e60:	66 0f       	add	r22, r22
    3e62:	77 1f       	adc	r23, r23
    3e64:	88 1f       	adc	r24, r24
    3e66:	20 f0       	brcs	.+8      	; 0x3e70 <sqrt+0x5e>
    3e68:	26 17       	cp	r18, r22
    3e6a:	37 07       	cpc	r19, r23
    3e6c:	48 07       	cpc	r20, r24
    3e6e:	30 f4       	brcc	.+12     	; 0x3e7c <sqrt+0x6a>
    3e70:	62 0b       	sbc	r22, r18
    3e72:	73 0b       	sbc	r23, r19
    3e74:	84 0b       	sbc	r24, r20
    3e76:	20 0d       	add	r18, r0
    3e78:	31 1d       	adc	r19, r1
    3e7a:	41 1d       	adc	r20, r1
    3e7c:	a0 95       	com	r26
    3e7e:	81 f7       	brne	.-32     	; 0x3e60 <sqrt+0x4e>
    3e80:	b9 01       	movw	r22, r18
    3e82:	84 2f       	mov	r24, r20
    3e84:	91 58       	subi	r25, 0x81	; 129
    3e86:	88 0f       	add	r24, r24
    3e88:	96 95       	lsr	r25
    3e8a:	87 95       	ror	r24
    3e8c:	08 95       	ret

00003e8e <square>:
    3e8e:	9b 01       	movw	r18, r22
    3e90:	ac 01       	movw	r20, r24
    3e92:	52 cf       	rjmp	.-348    	; 0x3d38 <__mulsf3>

00003e94 <__fp_cmp>:
    3e94:	99 0f       	add	r25, r25
    3e96:	00 08       	sbc	r0, r0
    3e98:	55 0f       	add	r21, r21
    3e9a:	aa 0b       	sbc	r26, r26
    3e9c:	e0 e8       	ldi	r30, 0x80	; 128
    3e9e:	fe ef       	ldi	r31, 0xFE	; 254
    3ea0:	16 16       	cp	r1, r22
    3ea2:	17 06       	cpc	r1, r23
    3ea4:	e8 07       	cpc	r30, r24
    3ea6:	f9 07       	cpc	r31, r25
    3ea8:	c0 f0       	brcs	.+48     	; 0x3eda <__fp_cmp+0x46>
    3eaa:	12 16       	cp	r1, r18
    3eac:	13 06       	cpc	r1, r19
    3eae:	e4 07       	cpc	r30, r20
    3eb0:	f5 07       	cpc	r31, r21
    3eb2:	98 f0       	brcs	.+38     	; 0x3eda <__fp_cmp+0x46>
    3eb4:	62 1b       	sub	r22, r18
    3eb6:	73 0b       	sbc	r23, r19
    3eb8:	84 0b       	sbc	r24, r20
    3eba:	95 0b       	sbc	r25, r21
    3ebc:	39 f4       	brne	.+14     	; 0x3ecc <__fp_cmp+0x38>
    3ebe:	0a 26       	eor	r0, r26
    3ec0:	61 f0       	breq	.+24     	; 0x3eda <__fp_cmp+0x46>
    3ec2:	23 2b       	or	r18, r19
    3ec4:	24 2b       	or	r18, r20
    3ec6:	25 2b       	or	r18, r21
    3ec8:	21 f4       	brne	.+8      	; 0x3ed2 <__fp_cmp+0x3e>
    3eca:	08 95       	ret
    3ecc:	0a 26       	eor	r0, r26
    3ece:	09 f4       	brne	.+2      	; 0x3ed2 <__fp_cmp+0x3e>
    3ed0:	a1 40       	sbci	r26, 0x01	; 1
    3ed2:	a6 95       	lsr	r26
    3ed4:	8f ef       	ldi	r24, 0xFF	; 255
    3ed6:	81 1d       	adc	r24, r1
    3ed8:	81 1d       	adc	r24, r1
    3eda:	08 95       	ret

00003edc <__fp_mpack>:
    3edc:	9f 3f       	cpi	r25, 0xFF	; 255
    3ede:	31 f0       	breq	.+12     	; 0x3eec <__fp_mpack_finite+0xc>

00003ee0 <__fp_mpack_finite>:
    3ee0:	91 50       	subi	r25, 0x01	; 1
    3ee2:	20 f4       	brcc	.+8      	; 0x3eec <__fp_mpack_finite+0xc>
    3ee4:	87 95       	ror	r24
    3ee6:	77 95       	ror	r23
    3ee8:	67 95       	ror	r22
    3eea:	b7 95       	ror	r27
    3eec:	88 0f       	add	r24, r24
    3eee:	91 1d       	adc	r25, r1
    3ef0:	96 95       	lsr	r25
    3ef2:	87 95       	ror	r24
    3ef4:	97 f9       	bld	r25, 7
    3ef6:	08 95       	ret

00003ef8 <__fp_norm2>:
    3ef8:	91 50       	subi	r25, 0x01	; 1
    3efa:	50 40       	sbci	r21, 0x00	; 0
    3efc:	66 0f       	add	r22, r22
    3efe:	77 1f       	adc	r23, r23
    3f00:	88 1f       	adc	r24, r24
    3f02:	d2 f7       	brpl	.-12     	; 0x3ef8 <__fp_norm2>
    3f04:	08 95       	ret

00003f06 <__divmodhi4>:
    3f06:	97 fb       	bst	r25, 7
    3f08:	07 2e       	mov	r0, r23
    3f0a:	16 f4       	brtc	.+4      	; 0x3f10 <__divmodhi4+0xa>
    3f0c:	00 94       	com	r0
    3f0e:	06 d0       	rcall	.+12     	; 0x3f1c <__divmodhi4_neg1>
    3f10:	77 fd       	sbrc	r23, 7
    3f12:	08 d0       	rcall	.+16     	; 0x3f24 <__divmodhi4_neg2>
    3f14:	0b d0       	rcall	.+22     	; 0x3f2c <__udivmodhi4>
    3f16:	07 fc       	sbrc	r0, 7
    3f18:	05 d0       	rcall	.+10     	; 0x3f24 <__divmodhi4_neg2>
    3f1a:	3e f4       	brtc	.+14     	; 0x3f2a <__divmodhi4_exit>

00003f1c <__divmodhi4_neg1>:
    3f1c:	90 95       	com	r25
    3f1e:	81 95       	neg	r24
    3f20:	9f 4f       	sbci	r25, 0xFF	; 255
    3f22:	08 95       	ret

00003f24 <__divmodhi4_neg2>:
    3f24:	70 95       	com	r23
    3f26:	61 95       	neg	r22
    3f28:	7f 4f       	sbci	r23, 0xFF	; 255

00003f2a <__divmodhi4_exit>:
    3f2a:	08 95       	ret

00003f2c <__udivmodhi4>:
    3f2c:	aa 1b       	sub	r26, r26
    3f2e:	bb 1b       	sub	r27, r27
    3f30:	51 e1       	ldi	r21, 0x11	; 17
    3f32:	07 c0       	rjmp	.+14     	; 0x3f42 <__udivmodhi4_ep>

00003f34 <__udivmodhi4_loop>:
    3f34:	aa 1f       	adc	r26, r26
    3f36:	bb 1f       	adc	r27, r27
    3f38:	a6 17       	cp	r26, r22
    3f3a:	b7 07       	cpc	r27, r23
    3f3c:	10 f0       	brcs	.+4      	; 0x3f42 <__udivmodhi4_ep>
    3f3e:	a6 1b       	sub	r26, r22
    3f40:	b7 0b       	sbc	r27, r23

00003f42 <__udivmodhi4_ep>:
    3f42:	88 1f       	adc	r24, r24
    3f44:	99 1f       	adc	r25, r25
    3f46:	5a 95       	dec	r21
    3f48:	a9 f7       	brne	.-22     	; 0x3f34 <__udivmodhi4_loop>
    3f4a:	80 95       	com	r24
    3f4c:	90 95       	com	r25
    3f4e:	bc 01       	movw	r22, r24
    3f50:	cd 01       	movw	r24, r26
    3f52:	08 95       	ret

00003f54 <_exit>:
    3f54:	f8 94       	cli

00003f56 <__stop_program>:
    3f56:	ff cf       	rjmp	.-2      	; 0x3f56 <__stop_program>
