
GccBoardProject1.elf:     file format elf32-avr

Sections:
Idx Name          Size      VMA       LMA       File off  Algn
  0 .data         00000010  00800100  00002eb2  00002f46  2**0
                  CONTENTS, ALLOC, LOAD, DATA
  1 .text         00002eb2  00000000  00000000  00000094  2**1
                  CONTENTS, ALLOC, LOAD, READONLY, CODE
  2 .bss          00000161  00800110  00800110  00002f56  2**0
                  ALLOC
  3 .comment      00000030  00000000  00000000  00002f56  2**0
                  CONTENTS, READONLY
  4 .note.gnu.avr.deviceinfo 0000003c  00000000  00000000  00002f88  2**2
                  CONTENTS, READONLY
  5 .debug_info   00000672  00000000  00000000  00002fc4  2**0
                  CONTENTS, READONLY, DEBUGGING
  6 .debug_abbrev 00000619  00000000  00000000  00003636  2**0
                  CONTENTS, READONLY, DEBUGGING
  7 .debug_line   0000013f  00000000  00000000  00003c4f  2**0
                  CONTENTS, READONLY, DEBUGGING
  8 .debug_str    00000231  00000000  00000000  00003d8e  2**0
                  CONTENTS, READONLY, DEBUGGING

Disassembly of section .text:

00000000 <__vectors>:
       0:	7b c0       	rjmp	.+246    	; 0xf8 <__ctors_end>
       2:	00 00       	nop
       4:	96 c0       	rjmp	.+300    	; 0x132 <__bad_interrupt>
       6:	00 00       	nop
       8:	94 c0       	rjmp	.+296    	; 0x132 <__bad_interrupt>
       a:	00 00       	nop
       c:	92 c0       	rjmp	.+292    	; 0x132 <__bad_interrupt>
       e:	00 00       	nop
      10:	90 c0       	rjmp	.+288    	; 0x132 <__bad_interrupt>
      12:	00 00       	nop
      14:	8e c0       	rjmp	.+284    	; 0x132 <__bad_interrupt>
      16:	00 00       	nop
      18:	8c c0       	rjmp	.+280    	; 0x132 <__bad_interrupt>
      1a:	00 00       	nop
      1c:	8a c0       	rjmp	.+276    	; 0x132 <__bad_interrupt>
      1e:	00 00       	nop
      20:	88 c0       	rjmp	.+272    	; 0x132 <__bad_interrupt>
      22:	00 00       	nop
      24:	0c 94 8f 11 	jmp	0x231e	; 0x231e <__vector_9>
      28:	84 c0       	rjmp	.+264    	; 0x132 <__bad_interrupt>
      2a:	00 00       	nop
      2c:	82 c0       	rjmp	.+260    	; 0x132 <__bad_interrupt>
      2e:	00 00       	nop
      30:	80 c0       	rjmp	.+256    	; 0x132 <__bad_interrupt>
      32:	00 00       	nop
      34:	7e c0       	rjmp	.+252    	; 0x132 <__bad_interrupt>
      36:	00 00       	nop
      38:	7c c0       	rjmp	.+248    	; 0x132 <__bad_interrupt>
      3a:	00 00       	nop
      3c:	7a c0       	rjmp	.+244    	; 0x132 <__bad_interrupt>
      3e:	00 00       	nop
      40:	0c 94 bb 11 	jmp	0x2376	; 0x2376 <__vector_16>
      44:	76 c0       	rjmp	.+236    	; 0x132 <__bad_interrupt>
      46:	00 00       	nop
      48:	74 c0       	rjmp	.+232    	; 0x132 <__bad_interrupt>
      4a:	00 00       	nop
      4c:	72 c0       	rjmp	.+228    	; 0x132 <__bad_interrupt>
      4e:	00 00       	nop
      50:	70 c0       	rjmp	.+224    	; 0x132 <__bad_interrupt>
      52:	00 00       	nop
      54:	6e c0       	rjmp	.+220    	; 0x132 <__bad_interrupt>
      56:	00 00       	nop
      58:	6c c0       	rjmp	.+216    	; 0x132 <__bad_interrupt>
      5a:	00 00       	nop
      5c:	6a c0       	rjmp	.+212    	; 0x132 <__bad_interrupt>
      5e:	00 00       	nop
      60:	68 c0       	rjmp	.+208    	; 0x132 <__bad_interrupt>
      62:	00 00       	nop
      64:	66 c0       	rjmp	.+204    	; 0x132 <__bad_interrupt>
      66:	00 00       	nop
      68:	64 c0       	rjmp	.+200    	; 0x132 <__bad_interrupt>
      6a:	00 00       	nop
      6c:	62 c0       	rjmp	.+196    	; 0x132 <__bad_interrupt>
      6e:	00 00       	nop
      70:	03 6e       	ori	r16, 0xE3	; 227
      72:	db 36       	cpi	r29, 0x6B	; 107
      74:	3d 9a       	sbi	0x07, 5	; 7
      76:	99 99       	sbic	0x13, 1	; 19
      78:	99 3d       	cpi	r25, 0xD9	; 217
      7a:	ab aa       	std	Y+51, r10	; 0x33
      7c:	aa 2a       	or	r10, r26
      7e:	3e 00       	.word	0x003e	; ????
      80:	00 00       	nop
      82:	80 3f       	cpi	r24, 0xF0	; 240
      84:	08 4a       	sbci	r16, 0xA8	; 168
      86:	d7 3b       	cpi	r29, 0xB7	; 183
      88:	3b ce       	rjmp	.-906    	; 0xfffffd00 <__eeprom_end+0xff7efd00>
      8a:	01 6e       	ori	r16, 0xE1	; 225
      8c:	84 bc       	out	0x24, r8	; 36
      8e:	bf fd       	.word	0xfdbf	; ????
      90:	c1 2f       	mov	r28, r17
      92:	3d 6c       	ori	r19, 0xCD	; 205
      94:	74 31       	cpi	r23, 0x14	; 20
      96:	9a bd       	out	0x2a, r25	; 42
      98:	56 83       	std	Z+6, r21	; 0x06
      9a:	3d da       	rcall	.-2950   	; 0xfffff516 <__eeprom_end+0xff7ef516>
      9c:	3d 00       	.word	0x003d	; ????
      9e:	c7 7f       	andi	r28, 0xF7	; 247
      a0:	11 be       	out	0x31, r1	; 49
      a2:	d9 e4       	ldi	r29, 0x49	; 73
      a4:	bb 4c       	sbci	r27, 0xCB	; 203
      a6:	3e 91       	ld	r19, -X
      a8:	6b aa       	std	Y+51, r6	; 0x33
      aa:	aa be       	out	0x3a, r10	; 58
      ac:	00 00       	nop
      ae:	00 80       	ld	r0, Z
      b0:	3f 07       	cpc	r19, r31
      b2:	2c 7a       	andi	r18, 0xAC	; 172
      b4:	a5 ba       	out	0x15, r10	; 21
      b6:	6c c5       	rjmp	.+2776   	; 0xb90 <calcMotorPositions+0x37c>
      b8:	90 da       	rcall	.-2784   	; 0xfffff5da <__eeprom_end+0xff7ef5da>
      ba:	3b 93       	.word	0x933b	; ????
      bc:	65 fc       	sbrc	r6, 5
      be:	8b bc       	out	0x2b, r8	; 43
      c0:	53 f8       	bld	r5, 3
      c2:	10 fd       	sbrc	r17, 0
      c4:	3c 56       	subi	r19, 0x6C	; 108
      c6:	92 83       	std	Z+2, r25	; 0x02
      c8:	4d bd       	out	0x2d, r20	; 45
      ca:	87 9d       	mul	r24, r7
      cc:	3a b6       	in	r3, 0x3a	; 58
      ce:	3d cb       	rjmp	.-2438   	; 0xfffff74a <__eeprom_end+0xff7ef74a>
      d0:	c9 bf       	out	0x39, r28	; 57
      d2:	5b be       	out	0x3b, r5	; 59
      d4:	73 da       	rcall	.-2842   	; 0xfffff5bc <__eeprom_end+0xff7ef5bc>
      d6:	0f c9       	rjmp	.-3554   	; 0xfffff2f6 <__eeprom_end+0xff7ef2f6>
      d8:	3f 05       	cpc	r19, r15
      da:	a8 4c       	sbci	r26, 0xC8	; 200
      dc:	cd b2       	in	r12, 0x1d	; 29
      de:	d4 4e       	sbci	r29, 0xE4	; 228
      e0:	b9 38       	cpi	r27, 0x89	; 137
      e2:	36 a9       	ldd	r19, Z+54	; 0x36
      e4:	02 0c       	add	r0, r2
      e6:	50 b9       	out	0x00, r21	; 0
      e8:	91 86       	std	Z+9, r9	; 0x09
      ea:	88 08       	sbc	r8, r8
      ec:	3c a6       	std	Y+44, r3	; 0x2c
      ee:	aa aa       	std	Y+50, r10	; 0x32
      f0:	2a be       	out	0x3a, r2	; 58
      f2:	00 00       	nop
      f4:	00 80       	ld	r0, Z
      f6:	3f 00       	.word	0x003f	; ????

000000f8 <__ctors_end>:
      f8:	11 24       	eor	r1, r1
      fa:	1f be       	out	0x3f, r1	; 63
      fc:	cf ef       	ldi	r28, 0xFF	; 255
      fe:	d0 e1       	ldi	r29, 0x10	; 16
     100:	de bf       	out	0x3e, r29	; 62
     102:	cd bf       	out	0x3d, r28	; 61

00000104 <__do_copy_data>:
     104:	11 e0       	ldi	r17, 0x01	; 1
     106:	a0 e0       	ldi	r26, 0x00	; 0
     108:	b1 e0       	ldi	r27, 0x01	; 1
     10a:	e2 eb       	ldi	r30, 0xB2	; 178
     10c:	fe e2       	ldi	r31, 0x2E	; 46
     10e:	02 c0       	rjmp	.+4      	; 0x114 <__do_copy_data+0x10>
     110:	05 90       	lpm	r0, Z+
     112:	0d 92       	st	X+, r0
     114:	a0 31       	cpi	r26, 0x10	; 16
     116:	b1 07       	cpc	r27, r17
     118:	d9 f7       	brne	.-10     	; 0x110 <__do_copy_data+0xc>

0000011a <__do_clear_bss>:
     11a:	22 e0       	ldi	r18, 0x02	; 2
     11c:	a0 e1       	ldi	r26, 0x10	; 16
     11e:	b1 e0       	ldi	r27, 0x01	; 1
     120:	01 c0       	rjmp	.+2      	; 0x124 <.do_clear_bss_start>

00000122 <.do_clear_bss_loop>:
     122:	1d 92       	st	X+, r1

00000124 <.do_clear_bss_start>:
     124:	a1 37       	cpi	r26, 0x71	; 113
     126:	b2 07       	cpc	r27, r18
     128:	e1 f7       	brne	.-8      	; 0x122 <.do_clear_bss_loop>
     12a:	0e 94 57 13 	call	0x26ae	; 0x26ae <main>
     12e:	0c 94 57 17 	jmp	0x2eae	; 0x2eae <_exit>

00000132 <__bad_interrupt>:
     132:	66 cf       	rjmp	.-308    	; 0x0 <__vectors>

00000134 <calcHornAngle>:
     134:	ed e5       	ldi	r30, 0x5D	; 93
     136:	f1 e0       	ldi	r31, 0x01	; 1
     138:	8b ed       	ldi	r24, 0xDB	; 219
     13a:	9f e0       	ldi	r25, 0x0F	; 15
     13c:	a9 e4       	ldi	r26, 0x49	; 73
     13e:	b0 e4       	ldi	r27, 0x40	; 64
     140:	80 83       	st	Z, r24
     142:	91 83       	std	Z+1, r25	; 0x01
     144:	a2 83       	std	Z+2, r26	; 0x02
     146:	b3 83       	std	Z+3, r27	; 0x03
     148:	14 82       	std	Z+4, r1	; 0x04
     14a:	15 82       	std	Z+5, r1	; 0x05
     14c:	16 82       	std	Z+6, r1	; 0x06
     14e:	17 82       	std	Z+7, r1	; 0x07
     150:	82 e9       	ldi	r24, 0x92	; 146
     152:	9a e0       	ldi	r25, 0x0A	; 10
     154:	a6 e8       	ldi	r26, 0x86	; 134
     156:	bf e3       	ldi	r27, 0x3F	; 63
     158:	80 87       	std	Z+8, r24	; 0x08
     15a:	91 87       	std	Z+9, r25	; 0x09
     15c:	a2 87       	std	Z+10, r26	; 0x0a
     15e:	b3 87       	std	Z+11, r27	; 0x0b
     160:	82 e9       	ldi	r24, 0x92	; 146
     162:	9a e0       	ldi	r25, 0x0A	; 10
     164:	a6 e0       	ldi	r26, 0x06	; 6
     166:	b0 ec       	ldi	r27, 0xC0	; 192
     168:	84 87       	std	Z+12, r24	; 0x0c
     16a:	95 87       	std	Z+13, r25	; 0x0d
     16c:	a6 87       	std	Z+14, r26	; 0x0e
     16e:	b7 87       	std	Z+15, r27	; 0x0f
     170:	82 e9       	ldi	r24, 0x92	; 146
     172:	9a e0       	ldi	r25, 0x0A	; 10
     174:	a6 e8       	ldi	r26, 0x86	; 134
     176:	bf eb       	ldi	r27, 0xBF	; 191
     178:	80 8b       	std	Z+16, r24	; 0x10
     17a:	91 8b       	std	Z+17, r25	; 0x11
     17c:	a2 8b       	std	Z+18, r26	; 0x12
     17e:	b3 8b       	std	Z+19, r27	; 0x13
     180:	82 e9       	ldi	r24, 0x92	; 146
     182:	9a e0       	ldi	r25, 0x0A	; 10
     184:	a6 e0       	ldi	r26, 0x06	; 6
     186:	b0 e4       	ldi	r27, 0x40	; 64
     188:	84 8b       	std	Z+20, r24	; 0x14
     18a:	95 8b       	std	Z+21, r25	; 0x15
     18c:	a6 8b       	std	Z+22, r26	; 0x16
     18e:	b7 8b       	std	Z+23, r27	; 0x17
     190:	08 95       	ret

00000192 <calcAnchorPositions>:
     192:	4f 92       	push	r4
     194:	5f 92       	push	r5
     196:	6f 92       	push	r6
     198:	7f 92       	push	r7
     19a:	8f 92       	push	r8
     19c:	9f 92       	push	r9
     19e:	af 92       	push	r10
     1a0:	bf 92       	push	r11
     1a2:	cf 92       	push	r12
     1a4:	df 92       	push	r13
     1a6:	ef 92       	push	r14
     1a8:	ff 92       	push	r15
     1aa:	0f 93       	push	r16
     1ac:	1f 93       	push	r17
     1ae:	cf 93       	push	r28
     1b0:	df 93       	push	r29
     1b2:	cd b7       	in	r28, 0x3d	; 61
     1b4:	de b7       	in	r29, 0x3e	; 62
     1b6:	c8 57       	subi	r28, 0x78	; 120
     1b8:	d1 09       	sbc	r29, r1
     1ba:	0f b6       	in	r0, 0x3f	; 63
     1bc:	f8 94       	cli
     1be:	de bf       	out	0x3e, r29	; 62
     1c0:	0f be       	out	0x3f, r0	; 63
     1c2:	cd bf       	out	0x3d, r28	; 61
     1c4:	20 91 59 01 	lds	r18, 0x0159	; 0x800159 <platPositionKoeff>
     1c8:	30 91 5a 01 	lds	r19, 0x015A	; 0x80015a <platPositionKoeff+0x1>
     1cc:	40 91 5b 01 	lds	r20, 0x015B	; 0x80015b <platPositionKoeff+0x2>
     1d0:	50 91 5c 01 	lds	r21, 0x015C	; 0x80015c <platPositionKoeff+0x3>
     1d4:	60 e0       	ldi	r22, 0x00	; 0
     1d6:	70 e0       	ldi	r23, 0x00	; 0
     1d8:	80 e8       	ldi	r24, 0x80	; 128
     1da:	9f e3       	ldi	r25, 0x3F	; 63
     1dc:	0e 94 16 14 	call	0x282c	; 0x282c <__subsf3>
     1e0:	2b 01       	movw	r4, r22
     1e2:	3c 01       	movw	r6, r24
     1e4:	8d b7       	in	r24, 0x3d	; 61
     1e6:	9e b7       	in	r25, 0x3e	; 62
     1e8:	0c 97       	sbiw	r24, 0x0c	; 12
     1ea:	0f b6       	in	r0, 0x3f	; 63
     1ec:	f8 94       	cli
     1ee:	9e bf       	out	0x3e, r25	; 62
     1f0:	0f be       	out	0x3f, r0	; 63
     1f2:	8d bf       	out	0x3d, r24	; 61
     1f4:	ad b7       	in	r26, 0x3d	; 61
     1f6:	be b7       	in	r27, 0x3e	; 62
     1f8:	11 96       	adiw	r26, 0x01	; 1
     1fa:	8c e0       	ldi	r24, 0x0C	; 12
     1fc:	e1 e9       	ldi	r30, 0x91	; 145
     1fe:	f1 e0       	ldi	r31, 0x01	; 1
     200:	01 90       	ld	r0, Z+
     202:	0d 92       	st	X+, r0
     204:	8a 95       	dec	r24
     206:	e1 f7       	brne	.-8      	; 0x200 <calcAnchorPositions+0x6e>
     208:	c0 90 e5 01 	lds	r12, 0x01E5	; 0x8001e5 <Bp>
     20c:	d0 90 e6 01 	lds	r13, 0x01E6	; 0x8001e6 <Bp+0x1>
     210:	e0 90 e7 01 	lds	r14, 0x01E7	; 0x8001e7 <Bp+0x2>
     214:	f0 90 e8 01 	lds	r15, 0x01E8	; 0x8001e8 <Bp+0x3>
     218:	00 91 e9 01 	lds	r16, 0x01E9	; 0x8001e9 <Bp+0x4>
     21c:	10 91 ea 01 	lds	r17, 0x01EA	; 0x8001ea <Bp+0x5>
     220:	20 91 eb 01 	lds	r18, 0x01EB	; 0x8001eb <Bp+0x6>
     224:	30 91 ec 01 	lds	r19, 0x01EC	; 0x8001ec <Bp+0x7>
     228:	40 91 ed 01 	lds	r20, 0x01ED	; 0x8001ed <Bp+0x8>
     22c:	50 91 ee 01 	lds	r21, 0x01EE	; 0x8001ee <Bp+0x9>
     230:	60 91 ef 01 	lds	r22, 0x01EF	; 0x8001ef <Bp+0xa>
     234:	70 91 f0 01 	lds	r23, 0x01F0	; 0x8001f0 <Bp+0xb>
     238:	ce 01       	movw	r24, r28
     23a:	8f 59       	subi	r24, 0x9F	; 159
     23c:	9f 4f       	sbci	r25, 0xFF	; 255
     23e:	0e 94 aa 0f 	call	0x1f54	; 0x1f54 <subtract>
     242:	8d b7       	in	r24, 0x3d	; 61
     244:	9e b7       	in	r25, 0x3e	; 62
     246:	0c 97       	sbiw	r24, 0x0c	; 12
     248:	0f b6       	in	r0, 0x3f	; 63
     24a:	f8 94       	cli
     24c:	9e bf       	out	0x3e, r25	; 62
     24e:	0f be       	out	0x3f, r0	; 63
     250:	8d bf       	out	0x3d, r24	; 61
     252:	ad b7       	in	r26, 0x3d	; 61
     254:	be b7       	in	r27, 0x3e	; 62
     256:	11 96       	adiw	r26, 0x01	; 1
     258:	8c e0       	ldi	r24, 0x0C	; 12
     25a:	e5 ee       	ldi	r30, 0xE5	; 229
     25c:	f1 e0       	ldi	r31, 0x01	; 1
     25e:	01 90       	ld	r0, Z+
     260:	0d 92       	st	X+, r0
     262:	8a 95       	dec	r24
     264:	e1 f7       	brne	.-8      	; 0x25e <calcAnchorPositions+0xcc>
     266:	c0 90 01 02 	lds	r12, 0x0201	; 0x800201 <Cp>
     26a:	d0 90 02 02 	lds	r13, 0x0202	; 0x800202 <Cp+0x1>
     26e:	e0 90 03 02 	lds	r14, 0x0203	; 0x800203 <Cp+0x2>
     272:	f0 90 04 02 	lds	r15, 0x0204	; 0x800204 <Cp+0x3>
     276:	00 91 05 02 	lds	r16, 0x0205	; 0x800205 <Cp+0x4>
     27a:	10 91 06 02 	lds	r17, 0x0206	; 0x800206 <Cp+0x5>
     27e:	20 91 07 02 	lds	r18, 0x0207	; 0x800207 <Cp+0x6>
     282:	30 91 08 02 	lds	r19, 0x0208	; 0x800208 <Cp+0x7>
     286:	40 91 09 02 	lds	r20, 0x0209	; 0x800209 <Cp+0x8>
     28a:	50 91 0a 02 	lds	r21, 0x020A	; 0x80020a <Cp+0x9>
     28e:	60 91 0b 02 	lds	r22, 0x020B	; 0x80020b <Cp+0xa>
     292:	70 91 0c 02 	lds	r23, 0x020C	; 0x80020c <Cp+0xb>
     296:	ce 01       	movw	r24, r28
     298:	8b 5a       	subi	r24, 0xAB	; 171
     29a:	9f 4f       	sbci	r25, 0xFF	; 255
     29c:	0e 94 aa 0f 	call	0x1f54	; 0x1f54 <subtract>
     2a0:	8d b7       	in	r24, 0x3d	; 61
     2a2:	9e b7       	in	r25, 0x3e	; 62
     2a4:	0c 97       	sbiw	r24, 0x0c	; 12
     2a6:	0f b6       	in	r0, 0x3f	; 63
     2a8:	f8 94       	cli
     2aa:	9e bf       	out	0x3e, r25	; 62
     2ac:	0f be       	out	0x3f, r0	; 63
     2ae:	8d bf       	out	0x3d, r24	; 61
     2b0:	ad b7       	in	r26, 0x3d	; 61
     2b2:	be b7       	in	r27, 0x3e	; 62
     2b4:	11 96       	adiw	r26, 0x01	; 1
     2b6:	8c e0       	ldi	r24, 0x0C	; 12
     2b8:	e1 e0       	ldi	r30, 0x01	; 1
     2ba:	f2 e0       	ldi	r31, 0x02	; 2
     2bc:	01 90       	ld	r0, Z+
     2be:	0d 92       	st	X+, r0
     2c0:	8a 95       	dec	r24
     2c2:	e1 f7       	brne	.-8      	; 0x2bc <calcAnchorPositions+0x12a>
     2c4:	c0 90 91 01 	lds	r12, 0x0191	; 0x800191 <Ap>
     2c8:	d0 90 92 01 	lds	r13, 0x0192	; 0x800192 <Ap+0x1>
     2cc:	e0 90 93 01 	lds	r14, 0x0193	; 0x800193 <Ap+0x2>
     2d0:	f0 90 94 01 	lds	r15, 0x0194	; 0x800194 <Ap+0x3>
     2d4:	00 91 95 01 	lds	r16, 0x0195	; 0x800195 <Ap+0x4>
     2d8:	10 91 96 01 	lds	r17, 0x0196	; 0x800196 <Ap+0x5>
     2dc:	20 91 97 01 	lds	r18, 0x0197	; 0x800197 <Ap+0x6>
     2e0:	30 91 98 01 	lds	r19, 0x0198	; 0x800198 <Ap+0x7>
     2e4:	40 91 99 01 	lds	r20, 0x0199	; 0x800199 <Ap+0x8>
     2e8:	50 91 9a 01 	lds	r21, 0x019A	; 0x80019a <Ap+0x9>
     2ec:	60 91 9b 01 	lds	r22, 0x019B	; 0x80019b <Ap+0xa>
     2f0:	70 91 9c 01 	lds	r23, 0x019C	; 0x80019c <Ap+0xb>
     2f4:	ce 01       	movw	r24, r28
     2f6:	87 5b       	subi	r24, 0xB7	; 183
     2f8:	9f 4f       	sbci	r25, 0xFF	; 255
     2fa:	0e 94 aa 0f 	call	0x1f54	; 0x1f54 <subtract>
     2fe:	0f b6       	in	r0, 0x3f	; 63
     300:	f8 94       	cli
     302:	de bf       	out	0x3e, r29	; 62
     304:	0f be       	out	0x3f, r0	; 63
     306:	cd bf       	out	0x3d, r28	; 61
     308:	80 90 59 01 	lds	r8, 0x0159	; 0x800159 <platPositionKoeff>
     30c:	90 90 5a 01 	lds	r9, 0x015A	; 0x80015a <platPositionKoeff+0x1>
     310:	a0 90 5b 01 	lds	r10, 0x015B	; 0x80015b <platPositionKoeff+0x2>
     314:	b0 90 5c 01 	lds	r11, 0x015C	; 0x80015c <platPositionKoeff+0x3>
     318:	a2 96       	adiw	r28, 0x22	; 34
     31a:	cf ac       	ldd	r12, Y+63	; 0x3f
     31c:	a2 97       	sbiw	r28, 0x22	; 34
     31e:	a3 96       	adiw	r28, 0x23	; 35
     320:	df ac       	ldd	r13, Y+63	; 0x3f
     322:	a3 97       	sbiw	r28, 0x23	; 35
     324:	a4 96       	adiw	r28, 0x24	; 36
     326:	ef ac       	ldd	r14, Y+63	; 0x3f
     328:	a4 97       	sbiw	r28, 0x24	; 36
     32a:	a5 96       	adiw	r28, 0x25	; 37
     32c:	ff ac       	ldd	r15, Y+63	; 0x3f
     32e:	a5 97       	sbiw	r28, 0x25	; 37
     330:	a6 96       	adiw	r28, 0x26	; 38
     332:	0f ad       	ldd	r16, Y+63	; 0x3f
     334:	a6 97       	sbiw	r28, 0x26	; 38
     336:	a7 96       	adiw	r28, 0x27	; 39
     338:	1f ad       	ldd	r17, Y+63	; 0x3f
     33a:	a7 97       	sbiw	r28, 0x27	; 39
     33c:	a8 96       	adiw	r28, 0x28	; 40
     33e:	2f ad       	ldd	r18, Y+63	; 0x3f
     340:	a8 97       	sbiw	r28, 0x28	; 40
     342:	a9 96       	adiw	r28, 0x29	; 41
     344:	3f ad       	ldd	r19, Y+63	; 0x3f
     346:	a9 97       	sbiw	r28, 0x29	; 41
     348:	aa 96       	adiw	r28, 0x2a	; 42
     34a:	4f ad       	ldd	r20, Y+63	; 0x3f
     34c:	aa 97       	sbiw	r28, 0x2a	; 42
     34e:	ab 96       	adiw	r28, 0x2b	; 43
     350:	5f ad       	ldd	r21, Y+63	; 0x3f
     352:	ab 97       	sbiw	r28, 0x2b	; 43
     354:	ac 96       	adiw	r28, 0x2c	; 44
     356:	6f ad       	ldd	r22, Y+63	; 0x3f
     358:	ac 97       	sbiw	r28, 0x2c	; 44
     35a:	ad 96       	adiw	r28, 0x2d	; 45
     35c:	7f ad       	ldd	r23, Y+63	; 0x3f
     35e:	ad 97       	sbiw	r28, 0x2d	; 45
     360:	ce 01       	movw	r24, r28
     362:	cd 96       	adiw	r24, 0x3d	; 61
     364:	0e 94 de 0e 	call	0x1dbc	; 0x1dbc <multiply>
     368:	8d b7       	in	r24, 0x3d	; 61
     36a:	9e b7       	in	r25, 0x3e	; 62
     36c:	0c 97       	sbiw	r24, 0x0c	; 12
     36e:	0f b6       	in	r0, 0x3f	; 63
     370:	f8 94       	cli
     372:	9e bf       	out	0x3e, r25	; 62
     374:	0f be       	out	0x3f, r0	; 63
     376:	8d bf       	out	0x3d, r24	; 61
     378:	ad b7       	in	r26, 0x3d	; 61
     37a:	be b7       	in	r27, 0x3e	; 62
     37c:	11 96       	adiw	r26, 0x01	; 1
     37e:	8c e0       	ldi	r24, 0x0C	; 12
     380:	fe 01       	movw	r30, r28
     382:	fd 96       	adiw	r30, 0x3d	; 61
     384:	01 90       	ld	r0, Z+
     386:	0d 92       	st	X+, r0
     388:	8a 95       	dec	r24
     38a:	e1 f7       	brne	.-8      	; 0x384 <calcAnchorPositions+0x1f2>
     38c:	c0 90 91 01 	lds	r12, 0x0191	; 0x800191 <Ap>
     390:	d0 90 92 01 	lds	r13, 0x0192	; 0x800192 <Ap+0x1>
     394:	e0 90 93 01 	lds	r14, 0x0193	; 0x800193 <Ap+0x2>
     398:	f0 90 94 01 	lds	r15, 0x0194	; 0x800194 <Ap+0x3>
     39c:	00 91 95 01 	lds	r16, 0x0195	; 0x800195 <Ap+0x4>
     3a0:	10 91 96 01 	lds	r17, 0x0196	; 0x800196 <Ap+0x5>
     3a4:	20 91 97 01 	lds	r18, 0x0197	; 0x800197 <Ap+0x6>
     3a8:	30 91 98 01 	lds	r19, 0x0198	; 0x800198 <Ap+0x7>
     3ac:	40 91 99 01 	lds	r20, 0x0199	; 0x800199 <Ap+0x8>
     3b0:	50 91 9a 01 	lds	r21, 0x019A	; 0x80019a <Ap+0x9>
     3b4:	60 91 9b 01 	lds	r22, 0x019B	; 0x80019b <Ap+0xa>
     3b8:	70 91 9c 01 	lds	r23, 0x019C	; 0x80019c <Ap+0xb>
     3bc:	ce 01       	movw	r24, r28
     3be:	83 59       	subi	r24, 0x93	; 147
     3c0:	9f 4f       	sbci	r25, 0xFF	; 255
     3c2:	0e 94 45 0f 	call	0x1e8a	; 0x1e8a <add>
     3c6:	8c e0       	ldi	r24, 0x0C	; 12
     3c8:	fe 01       	movw	r30, r28
     3ca:	e3 59       	subi	r30, 0x93	; 147
     3cc:	ff 4f       	sbci	r31, 0xFF	; 255
     3ce:	ad e0       	ldi	r26, 0x0D	; 13
     3d0:	b2 e0       	ldi	r27, 0x02	; 2
     3d2:	01 90       	ld	r0, Z+
     3d4:	0d 92       	st	X+, r0
     3d6:	8a 95       	dec	r24
     3d8:	e1 f7       	brne	.-8      	; 0x3d2 <calcAnchorPositions+0x240>
     3da:	53 01       	movw	r10, r6
     3dc:	42 01       	movw	r8, r4
     3de:	2a 96       	adiw	r28, 0x0a	; 10
     3e0:	cf ac       	ldd	r12, Y+63	; 0x3f
     3e2:	2a 97       	sbiw	r28, 0x0a	; 10
     3e4:	2b 96       	adiw	r28, 0x0b	; 11
     3e6:	df ac       	ldd	r13, Y+63	; 0x3f
     3e8:	2b 97       	sbiw	r28, 0x0b	; 11
     3ea:	2c 96       	adiw	r28, 0x0c	; 12
     3ec:	ef ac       	ldd	r14, Y+63	; 0x3f
     3ee:	2c 97       	sbiw	r28, 0x0c	; 12
     3f0:	2d 96       	adiw	r28, 0x0d	; 13
     3f2:	ff ac       	ldd	r15, Y+63	; 0x3f
     3f4:	2d 97       	sbiw	r28, 0x0d	; 13
     3f6:	2e 96       	adiw	r28, 0x0e	; 14
     3f8:	0f ad       	ldd	r16, Y+63	; 0x3f
     3fa:	2e 97       	sbiw	r28, 0x0e	; 14
     3fc:	2f 96       	adiw	r28, 0x0f	; 15
     3fe:	1f ad       	ldd	r17, Y+63	; 0x3f
     400:	2f 97       	sbiw	r28, 0x0f	; 15
     402:	60 96       	adiw	r28, 0x10	; 16
     404:	2f ad       	ldd	r18, Y+63	; 0x3f
     406:	60 97       	sbiw	r28, 0x10	; 16
     408:	61 96       	adiw	r28, 0x11	; 17
     40a:	3f ad       	ldd	r19, Y+63	; 0x3f
     40c:	61 97       	sbiw	r28, 0x11	; 17
     40e:	62 96       	adiw	r28, 0x12	; 18
     410:	4f ad       	ldd	r20, Y+63	; 0x3f
     412:	62 97       	sbiw	r28, 0x12	; 18
     414:	63 96       	adiw	r28, 0x13	; 19
     416:	5f ad       	ldd	r21, Y+63	; 0x3f
     418:	63 97       	sbiw	r28, 0x13	; 19
     41a:	64 96       	adiw	r28, 0x14	; 20
     41c:	6f ad       	ldd	r22, Y+63	; 0x3f
     41e:	64 97       	sbiw	r28, 0x14	; 20
     420:	65 96       	adiw	r28, 0x15	; 21
     422:	7f ad       	ldd	r23, Y+63	; 0x3f
     424:	65 97       	sbiw	r28, 0x15	; 21
     426:	ce 01       	movw	r24, r28
     428:	c1 96       	adiw	r24, 0x31	; 49
     42a:	0e 94 de 0e 	call	0x1dbc	; 0x1dbc <multiply>
     42e:	8d b7       	in	r24, 0x3d	; 61
     430:	9e b7       	in	r25, 0x3e	; 62
     432:	0c 97       	sbiw	r24, 0x0c	; 12
     434:	0f b6       	in	r0, 0x3f	; 63
     436:	f8 94       	cli
     438:	9e bf       	out	0x3e, r25	; 62
     43a:	0f be       	out	0x3f, r0	; 63
     43c:	8d bf       	out	0x3d, r24	; 61
     43e:	ad b7       	in	r26, 0x3d	; 61
     440:	be b7       	in	r27, 0x3e	; 62
     442:	11 96       	adiw	r26, 0x01	; 1
     444:	8c e0       	ldi	r24, 0x0C	; 12
     446:	fe 01       	movw	r30, r28
     448:	f1 96       	adiw	r30, 0x31	; 49
     44a:	01 90       	ld	r0, Z+
     44c:	0d 92       	st	X+, r0
     44e:	8a 95       	dec	r24
     450:	e1 f7       	brne	.-8      	; 0x44a <__LOCK_REGION_LENGTH__+0x4a>
     452:	c0 90 01 02 	lds	r12, 0x0201	; 0x800201 <Cp>
     456:	d0 90 02 02 	lds	r13, 0x0202	; 0x800202 <Cp+0x1>
     45a:	e0 90 03 02 	lds	r14, 0x0203	; 0x800203 <Cp+0x2>
     45e:	f0 90 04 02 	lds	r15, 0x0204	; 0x800204 <Cp+0x3>
     462:	00 91 05 02 	lds	r16, 0x0205	; 0x800205 <Cp+0x4>
     466:	10 91 06 02 	lds	r17, 0x0206	; 0x800206 <Cp+0x5>
     46a:	20 91 07 02 	lds	r18, 0x0207	; 0x800207 <Cp+0x6>
     46e:	30 91 08 02 	lds	r19, 0x0208	; 0x800208 <Cp+0x7>
     472:	40 91 09 02 	lds	r20, 0x0209	; 0x800209 <Cp+0x8>
     476:	50 91 0a 02 	lds	r21, 0x020A	; 0x80020a <Cp+0x9>
     47a:	60 91 0b 02 	lds	r22, 0x020B	; 0x80020b <Cp+0xa>
     47e:	70 91 0c 02 	lds	r23, 0x020C	; 0x80020c <Cp+0xb>
     482:	ce 01       	movw	r24, r28
     484:	83 59       	subi	r24, 0x93	; 147
     486:	9f 4f       	sbci	r25, 0xFF	; 255
     488:	0e 94 45 0f 	call	0x1e8a	; 0x1e8a <add>
     48c:	8c e0       	ldi	r24, 0x0C	; 12
     48e:	fe 01       	movw	r30, r28
     490:	e3 59       	subi	r30, 0x93	; 147
     492:	ff 4f       	sbci	r31, 0xFF	; 255
     494:	a9 e1       	ldi	r26, 0x19	; 25
     496:	b2 e0       	ldi	r27, 0x02	; 2
     498:	01 90       	ld	r0, Z+
     49a:	0d 92       	st	X+, r0
     49c:	8a 95       	dec	r24
     49e:	e1 f7       	brne	.-8      	; 0x498 <__LOCK_REGION_LENGTH__+0x98>
     4a0:	80 90 59 01 	lds	r8, 0x0159	; 0x800159 <platPositionKoeff>
     4a4:	90 90 5a 01 	lds	r9, 0x015A	; 0x80015a <platPositionKoeff+0x1>
     4a8:	a0 90 5b 01 	lds	r10, 0x015B	; 0x80015b <platPositionKoeff+0x2>
     4ac:	b0 90 5c 01 	lds	r11, 0x015C	; 0x80015c <platPositionKoeff+0x3>
     4b0:	2a 96       	adiw	r28, 0x0a	; 10
     4b2:	cf ac       	ldd	r12, Y+63	; 0x3f
     4b4:	2a 97       	sbiw	r28, 0x0a	; 10
     4b6:	2b 96       	adiw	r28, 0x0b	; 11
     4b8:	df ac       	ldd	r13, Y+63	; 0x3f
     4ba:	2b 97       	sbiw	r28, 0x0b	; 11
     4bc:	2c 96       	adiw	r28, 0x0c	; 12
     4be:	ef ac       	ldd	r14, Y+63	; 0x3f
     4c0:	2c 97       	sbiw	r28, 0x0c	; 12
     4c2:	2d 96       	adiw	r28, 0x0d	; 13
     4c4:	ff ac       	ldd	r15, Y+63	; 0x3f
     4c6:	2d 97       	sbiw	r28, 0x0d	; 13
     4c8:	2e 96       	adiw	r28, 0x0e	; 14
     4ca:	0f ad       	ldd	r16, Y+63	; 0x3f
     4cc:	2e 97       	sbiw	r28, 0x0e	; 14
     4ce:	2f 96       	adiw	r28, 0x0f	; 15
     4d0:	1f ad       	ldd	r17, Y+63	; 0x3f
     4d2:	2f 97       	sbiw	r28, 0x0f	; 15
     4d4:	60 96       	adiw	r28, 0x10	; 16
     4d6:	2f ad       	ldd	r18, Y+63	; 0x3f
     4d8:	60 97       	sbiw	r28, 0x10	; 16
     4da:	61 96       	adiw	r28, 0x11	; 17
     4dc:	3f ad       	ldd	r19, Y+63	; 0x3f
     4de:	61 97       	sbiw	r28, 0x11	; 17
     4e0:	62 96       	adiw	r28, 0x12	; 18
     4e2:	4f ad       	ldd	r20, Y+63	; 0x3f
     4e4:	62 97       	sbiw	r28, 0x12	; 18
     4e6:	63 96       	adiw	r28, 0x13	; 19
     4e8:	5f ad       	ldd	r21, Y+63	; 0x3f
     4ea:	63 97       	sbiw	r28, 0x13	; 19
     4ec:	64 96       	adiw	r28, 0x14	; 20
     4ee:	6f ad       	ldd	r22, Y+63	; 0x3f
     4f0:	64 97       	sbiw	r28, 0x14	; 20
     4f2:	65 96       	adiw	r28, 0x15	; 21
     4f4:	7f ad       	ldd	r23, Y+63	; 0x3f
     4f6:	65 97       	sbiw	r28, 0x15	; 21
     4f8:	ce 01       	movw	r24, r28
     4fa:	85 96       	adiw	r24, 0x25	; 37
     4fc:	0e 94 de 0e 	call	0x1dbc	; 0x1dbc <multiply>
     500:	8d b7       	in	r24, 0x3d	; 61
     502:	9e b7       	in	r25, 0x3e	; 62
     504:	0c 97       	sbiw	r24, 0x0c	; 12
     506:	0f b6       	in	r0, 0x3f	; 63
     508:	f8 94       	cli
     50a:	9e bf       	out	0x3e, r25	; 62
     50c:	0f be       	out	0x3f, r0	; 63
     50e:	8d bf       	out	0x3d, r24	; 61
     510:	ad b7       	in	r26, 0x3d	; 61
     512:	be b7       	in	r27, 0x3e	; 62
     514:	11 96       	adiw	r26, 0x01	; 1
     516:	8c e0       	ldi	r24, 0x0C	; 12
     518:	fe 01       	movw	r30, r28
     51a:	b5 96       	adiw	r30, 0x25	; 37
     51c:	01 90       	ld	r0, Z+
     51e:	0d 92       	st	X+, r0
     520:	8a 95       	dec	r24
     522:	e1 f7       	brne	.-8      	; 0x51c <__LOCK_REGION_LENGTH__+0x11c>
     524:	c0 90 01 02 	lds	r12, 0x0201	; 0x800201 <Cp>
     528:	d0 90 02 02 	lds	r13, 0x0202	; 0x800202 <Cp+0x1>
     52c:	e0 90 03 02 	lds	r14, 0x0203	; 0x800203 <Cp+0x2>
     530:	f0 90 04 02 	lds	r15, 0x0204	; 0x800204 <Cp+0x3>
     534:	00 91 05 02 	lds	r16, 0x0205	; 0x800205 <Cp+0x4>
     538:	10 91 06 02 	lds	r17, 0x0206	; 0x800206 <Cp+0x5>
     53c:	20 91 07 02 	lds	r18, 0x0207	; 0x800207 <Cp+0x6>
     540:	30 91 08 02 	lds	r19, 0x0208	; 0x800208 <Cp+0x7>
     544:	40 91 09 02 	lds	r20, 0x0209	; 0x800209 <Cp+0x8>
     548:	50 91 0a 02 	lds	r21, 0x020A	; 0x80020a <Cp+0x9>
     54c:	60 91 0b 02 	lds	r22, 0x020B	; 0x80020b <Cp+0xa>
     550:	70 91 0c 02 	lds	r23, 0x020C	; 0x80020c <Cp+0xb>
     554:	ce 01       	movw	r24, r28
     556:	83 59       	subi	r24, 0x93	; 147
     558:	9f 4f       	sbci	r25, 0xFF	; 255
     55a:	0e 94 45 0f 	call	0x1e8a	; 0x1e8a <add>
     55e:	8c e0       	ldi	r24, 0x0C	; 12
     560:	fe 01       	movw	r30, r28
     562:	e3 59       	subi	r30, 0x93	; 147
     564:	ff 4f       	sbci	r31, 0xFF	; 255
     566:	a5 e2       	ldi	r26, 0x25	; 37
     568:	b2 e0       	ldi	r27, 0x02	; 2
     56a:	01 90       	ld	r0, Z+
     56c:	0d 92       	st	X+, r0
     56e:	8a 95       	dec	r24
     570:	e1 f7       	brne	.-8      	; 0x56a <__LOCK_REGION_LENGTH__+0x16a>
     572:	0f b6       	in	r0, 0x3f	; 63
     574:	f8 94       	cli
     576:	de bf       	out	0x3e, r29	; 62
     578:	0f be       	out	0x3f, r0	; 63
     57a:	cd bf       	out	0x3d, r28	; 61
     57c:	53 01       	movw	r10, r6
     57e:	42 01       	movw	r8, r4
     580:	66 96       	adiw	r28, 0x16	; 22
     582:	cf ac       	ldd	r12, Y+63	; 0x3f
     584:	66 97       	sbiw	r28, 0x16	; 22
     586:	67 96       	adiw	r28, 0x17	; 23
     588:	df ac       	ldd	r13, Y+63	; 0x3f
     58a:	67 97       	sbiw	r28, 0x17	; 23
     58c:	68 96       	adiw	r28, 0x18	; 24
     58e:	ef ac       	ldd	r14, Y+63	; 0x3f
     590:	68 97       	sbiw	r28, 0x18	; 24
     592:	69 96       	adiw	r28, 0x19	; 25
     594:	ff ac       	ldd	r15, Y+63	; 0x3f
     596:	69 97       	sbiw	r28, 0x19	; 25
     598:	6a 96       	adiw	r28, 0x1a	; 26
     59a:	0f ad       	ldd	r16, Y+63	; 0x3f
     59c:	6a 97       	sbiw	r28, 0x1a	; 26
     59e:	6b 96       	adiw	r28, 0x1b	; 27
     5a0:	1f ad       	ldd	r17, Y+63	; 0x3f
     5a2:	6b 97       	sbiw	r28, 0x1b	; 27
     5a4:	6c 96       	adiw	r28, 0x1c	; 28
     5a6:	2f ad       	ldd	r18, Y+63	; 0x3f
     5a8:	6c 97       	sbiw	r28, 0x1c	; 28
     5aa:	6d 96       	adiw	r28, 0x1d	; 29
     5ac:	3f ad       	ldd	r19, Y+63	; 0x3f
     5ae:	6d 97       	sbiw	r28, 0x1d	; 29
     5b0:	6e 96       	adiw	r28, 0x1e	; 30
     5b2:	4f ad       	ldd	r20, Y+63	; 0x3f
     5b4:	6e 97       	sbiw	r28, 0x1e	; 30
     5b6:	6f 96       	adiw	r28, 0x1f	; 31
     5b8:	5f ad       	ldd	r21, Y+63	; 0x3f
     5ba:	6f 97       	sbiw	r28, 0x1f	; 31
     5bc:	a0 96       	adiw	r28, 0x20	; 32
     5be:	6f ad       	ldd	r22, Y+63	; 0x3f
     5c0:	a0 97       	sbiw	r28, 0x20	; 32
     5c2:	a1 96       	adiw	r28, 0x21	; 33
     5c4:	7f ad       	ldd	r23, Y+63	; 0x3f
     5c6:	a1 97       	sbiw	r28, 0x21	; 33
     5c8:	ce 01       	movw	r24, r28
     5ca:	49 96       	adiw	r24, 0x19	; 25
     5cc:	0e 94 de 0e 	call	0x1dbc	; 0x1dbc <multiply>
     5d0:	8d b7       	in	r24, 0x3d	; 61
     5d2:	9e b7       	in	r25, 0x3e	; 62
     5d4:	0c 97       	sbiw	r24, 0x0c	; 12
     5d6:	0f b6       	in	r0, 0x3f	; 63
     5d8:	f8 94       	cli
     5da:	9e bf       	out	0x3e, r25	; 62
     5dc:	0f be       	out	0x3f, r0	; 63
     5de:	8d bf       	out	0x3d, r24	; 61
     5e0:	ad b7       	in	r26, 0x3d	; 61
     5e2:	be b7       	in	r27, 0x3e	; 62
     5e4:	11 96       	adiw	r26, 0x01	; 1
     5e6:	8c e0       	ldi	r24, 0x0C	; 12
     5e8:	fe 01       	movw	r30, r28
     5ea:	79 96       	adiw	r30, 0x19	; 25
     5ec:	01 90       	ld	r0, Z+
     5ee:	0d 92       	st	X+, r0
     5f0:	8a 95       	dec	r24
     5f2:	e1 f7       	brne	.-8      	; 0x5ec <__LOCK_REGION_LENGTH__+0x1ec>
     5f4:	c0 90 e5 01 	lds	r12, 0x01E5	; 0x8001e5 <Bp>
     5f8:	d0 90 e6 01 	lds	r13, 0x01E6	; 0x8001e6 <Bp+0x1>
     5fc:	e0 90 e7 01 	lds	r14, 0x01E7	; 0x8001e7 <Bp+0x2>
     600:	f0 90 e8 01 	lds	r15, 0x01E8	; 0x8001e8 <Bp+0x3>
     604:	00 91 e9 01 	lds	r16, 0x01E9	; 0x8001e9 <Bp+0x4>
     608:	10 91 ea 01 	lds	r17, 0x01EA	; 0x8001ea <Bp+0x5>
     60c:	20 91 eb 01 	lds	r18, 0x01EB	; 0x8001eb <Bp+0x6>
     610:	30 91 ec 01 	lds	r19, 0x01EC	; 0x8001ec <Bp+0x7>
     614:	40 91 ed 01 	lds	r20, 0x01ED	; 0x8001ed <Bp+0x8>
     618:	50 91 ee 01 	lds	r21, 0x01EE	; 0x8001ee <Bp+0x9>
     61c:	60 91 ef 01 	lds	r22, 0x01EF	; 0x8001ef <Bp+0xa>
     620:	70 91 f0 01 	lds	r23, 0x01F0	; 0x8001f0 <Bp+0xb>
     624:	ce 01       	movw	r24, r28
     626:	83 59       	subi	r24, 0x93	; 147
     628:	9f 4f       	sbci	r25, 0xFF	; 255
     62a:	0e 94 45 0f 	call	0x1e8a	; 0x1e8a <add>
     62e:	8c e0       	ldi	r24, 0x0C	; 12
     630:	fe 01       	movw	r30, r28
     632:	e3 59       	subi	r30, 0x93	; 147
     634:	ff 4f       	sbci	r31, 0xFF	; 255
     636:	a1 e3       	ldi	r26, 0x31	; 49
     638:	b2 e0       	ldi	r27, 0x02	; 2
     63a:	01 90       	ld	r0, Z+
     63c:	0d 92       	st	X+, r0
     63e:	8a 95       	dec	r24
     640:	e1 f7       	brne	.-8      	; 0x63a <__LOCK_REGION_LENGTH__+0x23a>
     642:	80 90 59 01 	lds	r8, 0x0159	; 0x800159 <platPositionKoeff>
     646:	90 90 5a 01 	lds	r9, 0x015A	; 0x80015a <platPositionKoeff+0x1>
     64a:	a0 90 5b 01 	lds	r10, 0x015B	; 0x80015b <platPositionKoeff+0x2>
     64e:	b0 90 5c 01 	lds	r11, 0x015C	; 0x80015c <platPositionKoeff+0x3>
     652:	66 96       	adiw	r28, 0x16	; 22
     654:	cf ac       	ldd	r12, Y+63	; 0x3f
     656:	66 97       	sbiw	r28, 0x16	; 22
     658:	67 96       	adiw	r28, 0x17	; 23
     65a:	df ac       	ldd	r13, Y+63	; 0x3f
     65c:	67 97       	sbiw	r28, 0x17	; 23
     65e:	68 96       	adiw	r28, 0x18	; 24
     660:	ef ac       	ldd	r14, Y+63	; 0x3f
     662:	68 97       	sbiw	r28, 0x18	; 24
     664:	69 96       	adiw	r28, 0x19	; 25
     666:	ff ac       	ldd	r15, Y+63	; 0x3f
     668:	69 97       	sbiw	r28, 0x19	; 25
     66a:	6a 96       	adiw	r28, 0x1a	; 26
     66c:	0f ad       	ldd	r16, Y+63	; 0x3f
     66e:	6a 97       	sbiw	r28, 0x1a	; 26
     670:	6b 96       	adiw	r28, 0x1b	; 27
     672:	1f ad       	ldd	r17, Y+63	; 0x3f
     674:	6b 97       	sbiw	r28, 0x1b	; 27
     676:	6c 96       	adiw	r28, 0x1c	; 28
     678:	2f ad       	ldd	r18, Y+63	; 0x3f
     67a:	6c 97       	sbiw	r28, 0x1c	; 28
     67c:	6d 96       	adiw	r28, 0x1d	; 29
     67e:	3f ad       	ldd	r19, Y+63	; 0x3f
     680:	6d 97       	sbiw	r28, 0x1d	; 29
     682:	6e 96       	adiw	r28, 0x1e	; 30
     684:	4f ad       	ldd	r20, Y+63	; 0x3f
     686:	6e 97       	sbiw	r28, 0x1e	; 30
     688:	6f 96       	adiw	r28, 0x1f	; 31
     68a:	5f ad       	ldd	r21, Y+63	; 0x3f
     68c:	6f 97       	sbiw	r28, 0x1f	; 31
     68e:	a0 96       	adiw	r28, 0x20	; 32
     690:	6f ad       	ldd	r22, Y+63	; 0x3f
     692:	a0 97       	sbiw	r28, 0x20	; 32
     694:	a1 96       	adiw	r28, 0x21	; 33
     696:	7f ad       	ldd	r23, Y+63	; 0x3f
     698:	a1 97       	sbiw	r28, 0x21	; 33
     69a:	ce 01       	movw	r24, r28
     69c:	0d 96       	adiw	r24, 0x0d	; 13
     69e:	0e 94 de 0e 	call	0x1dbc	; 0x1dbc <multiply>
     6a2:	8d b7       	in	r24, 0x3d	; 61
     6a4:	9e b7       	in	r25, 0x3e	; 62
     6a6:	0c 97       	sbiw	r24, 0x0c	; 12
     6a8:	0f b6       	in	r0, 0x3f	; 63
     6aa:	f8 94       	cli
     6ac:	9e bf       	out	0x3e, r25	; 62
     6ae:	0f be       	out	0x3f, r0	; 63
     6b0:	8d bf       	out	0x3d, r24	; 61
     6b2:	ad b7       	in	r26, 0x3d	; 61
     6b4:	be b7       	in	r27, 0x3e	; 62
     6b6:	11 96       	adiw	r26, 0x01	; 1
     6b8:	8c e0       	ldi	r24, 0x0C	; 12
     6ba:	fe 01       	movw	r30, r28
     6bc:	3d 96       	adiw	r30, 0x0d	; 13
     6be:	01 90       	ld	r0, Z+
     6c0:	0d 92       	st	X+, r0
     6c2:	8a 95       	dec	r24
     6c4:	e1 f7       	brne	.-8      	; 0x6be <__LOCK_REGION_LENGTH__+0x2be>
     6c6:	c0 90 e5 01 	lds	r12, 0x01E5	; 0x8001e5 <Bp>
     6ca:	d0 90 e6 01 	lds	r13, 0x01E6	; 0x8001e6 <Bp+0x1>
     6ce:	e0 90 e7 01 	lds	r14, 0x01E7	; 0x8001e7 <Bp+0x2>
     6d2:	f0 90 e8 01 	lds	r15, 0x01E8	; 0x8001e8 <Bp+0x3>
     6d6:	00 91 e9 01 	lds	r16, 0x01E9	; 0x8001e9 <Bp+0x4>
     6da:	10 91 ea 01 	lds	r17, 0x01EA	; 0x8001ea <Bp+0x5>
     6de:	20 91 eb 01 	lds	r18, 0x01EB	; 0x8001eb <Bp+0x6>
     6e2:	30 91 ec 01 	lds	r19, 0x01EC	; 0x8001ec <Bp+0x7>
     6e6:	40 91 ed 01 	lds	r20, 0x01ED	; 0x8001ed <Bp+0x8>
     6ea:	50 91 ee 01 	lds	r21, 0x01EE	; 0x8001ee <Bp+0x9>
     6ee:	60 91 ef 01 	lds	r22, 0x01EF	; 0x8001ef <Bp+0xa>
     6f2:	70 91 f0 01 	lds	r23, 0x01F0	; 0x8001f0 <Bp+0xb>
     6f6:	ce 01       	movw	r24, r28
     6f8:	83 59       	subi	r24, 0x93	; 147
     6fa:	9f 4f       	sbci	r25, 0xFF	; 255
     6fc:	0e 94 45 0f 	call	0x1e8a	; 0x1e8a <add>
     700:	8c e0       	ldi	r24, 0x0C	; 12
     702:	fe 01       	movw	r30, r28
     704:	e3 59       	subi	r30, 0x93	; 147
     706:	ff 4f       	sbci	r31, 0xFF	; 255
     708:	ad e3       	ldi	r26, 0x3D	; 61
     70a:	b2 e0       	ldi	r27, 0x02	; 2
     70c:	01 90       	ld	r0, Z+
     70e:	0d 92       	st	X+, r0
     710:	8a 95       	dec	r24
     712:	e1 f7       	brne	.-8      	; 0x70c <__LOCK_REGION_LENGTH__+0x30c>
     714:	53 01       	movw	r10, r6
     716:	42 01       	movw	r8, r4
     718:	a2 96       	adiw	r28, 0x22	; 34
     71a:	cf ac       	ldd	r12, Y+63	; 0x3f
     71c:	a2 97       	sbiw	r28, 0x22	; 34
     71e:	a3 96       	adiw	r28, 0x23	; 35
     720:	df ac       	ldd	r13, Y+63	; 0x3f
     722:	a3 97       	sbiw	r28, 0x23	; 35
     724:	a4 96       	adiw	r28, 0x24	; 36
     726:	ef ac       	ldd	r14, Y+63	; 0x3f
     728:	a4 97       	sbiw	r28, 0x24	; 36
     72a:	a5 96       	adiw	r28, 0x25	; 37
     72c:	ff ac       	ldd	r15, Y+63	; 0x3f
     72e:	a5 97       	sbiw	r28, 0x25	; 37
     730:	a6 96       	adiw	r28, 0x26	; 38
     732:	0f ad       	ldd	r16, Y+63	; 0x3f
     734:	a6 97       	sbiw	r28, 0x26	; 38
     736:	a7 96       	adiw	r28, 0x27	; 39
     738:	1f ad       	ldd	r17, Y+63	; 0x3f
     73a:	a7 97       	sbiw	r28, 0x27	; 39
     73c:	a8 96       	adiw	r28, 0x28	; 40
     73e:	2f ad       	ldd	r18, Y+63	; 0x3f
     740:	a8 97       	sbiw	r28, 0x28	; 40
     742:	a9 96       	adiw	r28, 0x29	; 41
     744:	3f ad       	ldd	r19, Y+63	; 0x3f
     746:	a9 97       	sbiw	r28, 0x29	; 41
     748:	aa 96       	adiw	r28, 0x2a	; 42
     74a:	4f ad       	ldd	r20, Y+63	; 0x3f
     74c:	aa 97       	sbiw	r28, 0x2a	; 42
     74e:	ab 96       	adiw	r28, 0x2b	; 43
     750:	5f ad       	ldd	r21, Y+63	; 0x3f
     752:	ab 97       	sbiw	r28, 0x2b	; 43
     754:	ac 96       	adiw	r28, 0x2c	; 44
     756:	6f ad       	ldd	r22, Y+63	; 0x3f
     758:	ac 97       	sbiw	r28, 0x2c	; 44
     75a:	ad 96       	adiw	r28, 0x2d	; 45
     75c:	7f ad       	ldd	r23, Y+63	; 0x3f
     75e:	ad 97       	sbiw	r28, 0x2d	; 45
     760:	ce 01       	movw	r24, r28
     762:	01 96       	adiw	r24, 0x01	; 1
     764:	0e 94 de 0e 	call	0x1dbc	; 0x1dbc <multiply>
     768:	8d b7       	in	r24, 0x3d	; 61
     76a:	9e b7       	in	r25, 0x3e	; 62
     76c:	0c 97       	sbiw	r24, 0x0c	; 12
     76e:	0f b6       	in	r0, 0x3f	; 63
     770:	f8 94       	cli
     772:	9e bf       	out	0x3e, r25	; 62
     774:	0f be       	out	0x3f, r0	; 63
     776:	8d bf       	out	0x3d, r24	; 61
     778:	ad b7       	in	r26, 0x3d	; 61
     77a:	be b7       	in	r27, 0x3e	; 62
     77c:	11 96       	adiw	r26, 0x01	; 1
     77e:	8c e0       	ldi	r24, 0x0C	; 12
     780:	fe 01       	movw	r30, r28
     782:	31 96       	adiw	r30, 0x01	; 1
     784:	01 90       	ld	r0, Z+
     786:	0d 92       	st	X+, r0
     788:	8a 95       	dec	r24
     78a:	e1 f7       	brne	.-8      	; 0x784 <__LOCK_REGION_LENGTH__+0x384>
     78c:	c0 90 91 01 	lds	r12, 0x0191	; 0x800191 <Ap>
     790:	d0 90 92 01 	lds	r13, 0x0192	; 0x800192 <Ap+0x1>
     794:	e0 90 93 01 	lds	r14, 0x0193	; 0x800193 <Ap+0x2>
     798:	f0 90 94 01 	lds	r15, 0x0194	; 0x800194 <Ap+0x3>
     79c:	00 91 95 01 	lds	r16, 0x0195	; 0x800195 <Ap+0x4>
     7a0:	10 91 96 01 	lds	r17, 0x0196	; 0x800196 <Ap+0x5>
     7a4:	20 91 97 01 	lds	r18, 0x0197	; 0x800197 <Ap+0x6>
     7a8:	30 91 98 01 	lds	r19, 0x0198	; 0x800198 <Ap+0x7>
     7ac:	40 91 99 01 	lds	r20, 0x0199	; 0x800199 <Ap+0x8>
     7b0:	50 91 9a 01 	lds	r21, 0x019A	; 0x80019a <Ap+0x9>
     7b4:	60 91 9b 01 	lds	r22, 0x019B	; 0x80019b <Ap+0xa>
     7b8:	70 91 9c 01 	lds	r23, 0x019C	; 0x80019c <Ap+0xb>
     7bc:	ce 01       	movw	r24, r28
     7be:	83 59       	subi	r24, 0x93	; 147
     7c0:	9f 4f       	sbci	r25, 0xFF	; 255
     7c2:	0e 94 45 0f 	call	0x1e8a	; 0x1e8a <add>
     7c6:	8c e0       	ldi	r24, 0x0C	; 12
     7c8:	fe 01       	movw	r30, r28
     7ca:	e3 59       	subi	r30, 0x93	; 147
     7cc:	ff 4f       	sbci	r31, 0xFF	; 255
     7ce:	a9 e4       	ldi	r26, 0x49	; 73
     7d0:	b2 e0       	ldi	r27, 0x02	; 2
     7d2:	01 90       	ld	r0, Z+
     7d4:	0d 92       	st	X+, r0
     7d6:	8a 95       	dec	r24
     7d8:	e1 f7       	brne	.-8      	; 0x7d2 <__LOCK_REGION_LENGTH__+0x3d2>
     7da:	0f b6       	in	r0, 0x3f	; 63
     7dc:	f8 94       	cli
     7de:	de bf       	out	0x3e, r29	; 62
     7e0:	0f be       	out	0x3f, r0	; 63
     7e2:	cd bf       	out	0x3d, r28	; 61
     7e4:	c8 58       	subi	r28, 0x88	; 136
     7e6:	df 4f       	sbci	r29, 0xFF	; 255
     7e8:	0f b6       	in	r0, 0x3f	; 63
     7ea:	f8 94       	cli
     7ec:	de bf       	out	0x3e, r29	; 62
     7ee:	0f be       	out	0x3f, r0	; 63
     7f0:	cd bf       	out	0x3d, r28	; 61
     7f2:	df 91       	pop	r29
     7f4:	cf 91       	pop	r28
     7f6:	1f 91       	pop	r17
     7f8:	0f 91       	pop	r16
     7fa:	ff 90       	pop	r15
     7fc:	ef 90       	pop	r14
     7fe:	df 90       	pop	r13
     800:	cf 90       	pop	r12
     802:	bf 90       	pop	r11
     804:	af 90       	pop	r10
     806:	9f 90       	pop	r9
     808:	8f 90       	pop	r8
     80a:	7f 90       	pop	r7
     80c:	6f 90       	pop	r6
     80e:	5f 90       	pop	r5
     810:	4f 90       	pop	r4
     812:	08 95       	ret

00000814 <calcMotorPositions>:
     814:	4f 92       	push	r4
     816:	5f 92       	push	r5
     818:	6f 92       	push	r6
     81a:	7f 92       	push	r7
     81c:	8f 92       	push	r8
     81e:	9f 92       	push	r9
     820:	af 92       	push	r10
     822:	bf 92       	push	r11
     824:	cf 92       	push	r12
     826:	df 92       	push	r13
     828:	ef 92       	push	r14
     82a:	ff 92       	push	r15
     82c:	0f 93       	push	r16
     82e:	1f 93       	push	r17
     830:	cf 93       	push	r28
     832:	df 93       	push	r29
     834:	cd b7       	in	r28, 0x3d	; 61
     836:	de b7       	in	r29, 0x3e	; 62
     838:	c8 57       	subi	r28, 0x78	; 120
     83a:	d1 09       	sbc	r29, r1
     83c:	0f b6       	in	r0, 0x3f	; 63
     83e:	f8 94       	cli
     840:	de bf       	out	0x3e, r29	; 62
     842:	0f be       	out	0x3f, r0	; 63
     844:	cd bf       	out	0x3d, r28	; 61
     846:	20 91 55 01 	lds	r18, 0x0155	; 0x800155 <basePositionKoeff>
     84a:	30 91 56 01 	lds	r19, 0x0156	; 0x800156 <basePositionKoeff+0x1>
     84e:	40 91 57 01 	lds	r20, 0x0157	; 0x800157 <basePositionKoeff+0x2>
     852:	50 91 58 01 	lds	r21, 0x0158	; 0x800158 <basePositionKoeff+0x3>
     856:	60 e0       	ldi	r22, 0x00	; 0
     858:	70 e0       	ldi	r23, 0x00	; 0
     85a:	80 e8       	ldi	r24, 0x80	; 128
     85c:	9f e3       	ldi	r25, 0x3F	; 63
     85e:	0e 94 16 14 	call	0x282c	; 0x282c <__subsf3>
     862:	2b 01       	movw	r4, r22
     864:	3c 01       	movw	r6, r24
     866:	8d b7       	in	r24, 0x3d	; 61
     868:	9e b7       	in	r25, 0x3e	; 62
     86a:	0c 97       	sbiw	r24, 0x0c	; 12
     86c:	0f b6       	in	r0, 0x3f	; 63
     86e:	f8 94       	cli
     870:	9e bf       	out	0x3e, r25	; 62
     872:	0f be       	out	0x3f, r0	; 63
     874:	8d bf       	out	0x3d, r24	; 61
     876:	ad b7       	in	r26, 0x3d	; 61
     878:	be b7       	in	r27, 0x3e	; 62
     87a:	11 96       	adiw	r26, 0x01	; 1
     87c:	8c e0       	ldi	r24, 0x0C	; 12
     87e:	e1 ef       	ldi	r30, 0xF1	; 241
     880:	f1 e0       	ldi	r31, 0x01	; 1
     882:	01 90       	ld	r0, Z+
     884:	0d 92       	st	X+, r0
     886:	8a 95       	dec	r24
     888:	e1 f7       	brne	.-8      	; 0x882 <calcMotorPositions+0x6e>
     88a:	c0 90 79 01 	lds	r12, 0x0179	; 0x800179 <Bb>
     88e:	d0 90 7a 01 	lds	r13, 0x017A	; 0x80017a <Bb+0x1>
     892:	e0 90 7b 01 	lds	r14, 0x017B	; 0x80017b <Bb+0x2>
     896:	f0 90 7c 01 	lds	r15, 0x017C	; 0x80017c <Bb+0x3>
     89a:	00 91 7d 01 	lds	r16, 0x017D	; 0x80017d <Bb+0x4>
     89e:	10 91 7e 01 	lds	r17, 0x017E	; 0x80017e <Bb+0x5>
     8a2:	20 91 7f 01 	lds	r18, 0x017F	; 0x80017f <Bb+0x6>
     8a6:	30 91 80 01 	lds	r19, 0x0180	; 0x800180 <Bb+0x7>
     8aa:	40 91 81 01 	lds	r20, 0x0181	; 0x800181 <Bb+0x8>
     8ae:	50 91 82 01 	lds	r21, 0x0182	; 0x800182 <Bb+0x9>
     8b2:	60 91 83 01 	lds	r22, 0x0183	; 0x800183 <Bb+0xa>
     8b6:	70 91 84 01 	lds	r23, 0x0184	; 0x800184 <Bb+0xb>
     8ba:	ce 01       	movw	r24, r28
     8bc:	8f 59       	subi	r24, 0x9F	; 159
     8be:	9f 4f       	sbci	r25, 0xFF	; 255
     8c0:	0e 94 aa 0f 	call	0x1f54	; 0x1f54 <subtract>
     8c4:	8d b7       	in	r24, 0x3d	; 61
     8c6:	9e b7       	in	r25, 0x3e	; 62
     8c8:	0c 97       	sbiw	r24, 0x0c	; 12
     8ca:	0f b6       	in	r0, 0x3f	; 63
     8cc:	f8 94       	cli
     8ce:	9e bf       	out	0x3e, r25	; 62
     8d0:	0f be       	out	0x3f, r0	; 63
     8d2:	8d bf       	out	0x3d, r24	; 61
     8d4:	ad b7       	in	r26, 0x3d	; 61
     8d6:	be b7       	in	r27, 0x3e	; 62
     8d8:	11 96       	adiw	r26, 0x01	; 1
     8da:	8c e0       	ldi	r24, 0x0C	; 12
     8dc:	e9 e7       	ldi	r30, 0x79	; 121
     8de:	f1 e0       	ldi	r31, 0x01	; 1
     8e0:	01 90       	ld	r0, Z+
     8e2:	0d 92       	st	X+, r0
     8e4:	8a 95       	dec	r24
     8e6:	e1 f7       	brne	.-8      	; 0x8e0 <calcMotorPositions+0xcc>
     8e8:	c0 90 85 01 	lds	r12, 0x0185	; 0x800185 <Cb>
     8ec:	d0 90 86 01 	lds	r13, 0x0186	; 0x800186 <Cb+0x1>
     8f0:	e0 90 87 01 	lds	r14, 0x0187	; 0x800187 <Cb+0x2>
     8f4:	f0 90 88 01 	lds	r15, 0x0188	; 0x800188 <Cb+0x3>
     8f8:	00 91 89 01 	lds	r16, 0x0189	; 0x800189 <Cb+0x4>
     8fc:	10 91 8a 01 	lds	r17, 0x018A	; 0x80018a <Cb+0x5>
     900:	20 91 8b 01 	lds	r18, 0x018B	; 0x80018b <Cb+0x6>
     904:	30 91 8c 01 	lds	r19, 0x018C	; 0x80018c <Cb+0x7>
     908:	40 91 8d 01 	lds	r20, 0x018D	; 0x80018d <Cb+0x8>
     90c:	50 91 8e 01 	lds	r21, 0x018E	; 0x80018e <Cb+0x9>
     910:	60 91 8f 01 	lds	r22, 0x018F	; 0x80018f <Cb+0xa>
     914:	70 91 90 01 	lds	r23, 0x0190	; 0x800190 <Cb+0xb>
     918:	ce 01       	movw	r24, r28
     91a:	8b 5a       	subi	r24, 0xAB	; 171
     91c:	9f 4f       	sbci	r25, 0xFF	; 255
     91e:	0e 94 aa 0f 	call	0x1f54	; 0x1f54 <subtract>
     922:	8d b7       	in	r24, 0x3d	; 61
     924:	9e b7       	in	r25, 0x3e	; 62
     926:	0c 97       	sbiw	r24, 0x0c	; 12
     928:	0f b6       	in	r0, 0x3f	; 63
     92a:	f8 94       	cli
     92c:	9e bf       	out	0x3e, r25	; 62
     92e:	0f be       	out	0x3f, r0	; 63
     930:	8d bf       	out	0x3d, r24	; 61
     932:	ad b7       	in	r26, 0x3d	; 61
     934:	be b7       	in	r27, 0x3e	; 62
     936:	11 96       	adiw	r26, 0x01	; 1
     938:	8c e0       	ldi	r24, 0x0C	; 12
     93a:	e5 e8       	ldi	r30, 0x85	; 133
     93c:	f1 e0       	ldi	r31, 0x01	; 1
     93e:	01 90       	ld	r0, Z+
     940:	0d 92       	st	X+, r0
     942:	8a 95       	dec	r24
     944:	e1 f7       	brne	.-8      	; 0x93e <calcMotorPositions+0x12a>
     946:	c0 90 f1 01 	lds	r12, 0x01F1	; 0x8001f1 <Ab>
     94a:	d0 90 f2 01 	lds	r13, 0x01F2	; 0x8001f2 <Ab+0x1>
     94e:	e0 90 f3 01 	lds	r14, 0x01F3	; 0x8001f3 <Ab+0x2>
     952:	f0 90 f4 01 	lds	r15, 0x01F4	; 0x8001f4 <Ab+0x3>
     956:	00 91 f5 01 	lds	r16, 0x01F5	; 0x8001f5 <Ab+0x4>
     95a:	10 91 f6 01 	lds	r17, 0x01F6	; 0x8001f6 <Ab+0x5>
     95e:	20 91 f7 01 	lds	r18, 0x01F7	; 0x8001f7 <Ab+0x6>
     962:	30 91 f8 01 	lds	r19, 0x01F8	; 0x8001f8 <Ab+0x7>
     966:	40 91 f9 01 	lds	r20, 0x01F9	; 0x8001f9 <Ab+0x8>
     96a:	50 91 fa 01 	lds	r21, 0x01FA	; 0x8001fa <Ab+0x9>
     96e:	60 91 fb 01 	lds	r22, 0x01FB	; 0x8001fb <Ab+0xa>
     972:	70 91 fc 01 	lds	r23, 0x01FC	; 0x8001fc <Ab+0xb>
     976:	ce 01       	movw	r24, r28
     978:	87 5b       	subi	r24, 0xB7	; 183
     97a:	9f 4f       	sbci	r25, 0xFF	; 255
     97c:	0e 94 aa 0f 	call	0x1f54	; 0x1f54 <subtract>
     980:	0f b6       	in	r0, 0x3f	; 63
     982:	f8 94       	cli
     984:	de bf       	out	0x3e, r29	; 62
     986:	0f be       	out	0x3f, r0	; 63
     988:	cd bf       	out	0x3d, r28	; 61
     98a:	53 01       	movw	r10, r6
     98c:	42 01       	movw	r8, r4
     98e:	a2 96       	adiw	r28, 0x22	; 34
     990:	cf ac       	ldd	r12, Y+63	; 0x3f
     992:	a2 97       	sbiw	r28, 0x22	; 34
     994:	a3 96       	adiw	r28, 0x23	; 35
     996:	df ac       	ldd	r13, Y+63	; 0x3f
     998:	a3 97       	sbiw	r28, 0x23	; 35
     99a:	a4 96       	adiw	r28, 0x24	; 36
     99c:	ef ac       	ldd	r14, Y+63	; 0x3f
     99e:	a4 97       	sbiw	r28, 0x24	; 36
     9a0:	a5 96       	adiw	r28, 0x25	; 37
     9a2:	ff ac       	ldd	r15, Y+63	; 0x3f
     9a4:	a5 97       	sbiw	r28, 0x25	; 37
     9a6:	a6 96       	adiw	r28, 0x26	; 38
     9a8:	0f ad       	ldd	r16, Y+63	; 0x3f
     9aa:	a6 97       	sbiw	r28, 0x26	; 38
     9ac:	a7 96       	adiw	r28, 0x27	; 39
     9ae:	1f ad       	ldd	r17, Y+63	; 0x3f
     9b0:	a7 97       	sbiw	r28, 0x27	; 39
     9b2:	a8 96       	adiw	r28, 0x28	; 40
     9b4:	2f ad       	ldd	r18, Y+63	; 0x3f
     9b6:	a8 97       	sbiw	r28, 0x28	; 40
     9b8:	a9 96       	adiw	r28, 0x29	; 41
     9ba:	3f ad       	ldd	r19, Y+63	; 0x3f
     9bc:	a9 97       	sbiw	r28, 0x29	; 41
     9be:	aa 96       	adiw	r28, 0x2a	; 42
     9c0:	4f ad       	ldd	r20, Y+63	; 0x3f
     9c2:	aa 97       	sbiw	r28, 0x2a	; 42
     9c4:	ab 96       	adiw	r28, 0x2b	; 43
     9c6:	5f ad       	ldd	r21, Y+63	; 0x3f
     9c8:	ab 97       	sbiw	r28, 0x2b	; 43
     9ca:	ac 96       	adiw	r28, 0x2c	; 44
     9cc:	6f ad       	ldd	r22, Y+63	; 0x3f
     9ce:	ac 97       	sbiw	r28, 0x2c	; 44
     9d0:	ad 96       	adiw	r28, 0x2d	; 45
     9d2:	7f ad       	ldd	r23, Y+63	; 0x3f
     9d4:	ad 97       	sbiw	r28, 0x2d	; 45
     9d6:	ce 01       	movw	r24, r28
     9d8:	cd 96       	adiw	r24, 0x3d	; 61
     9da:	0e 94 de 0e 	call	0x1dbc	; 0x1dbc <multiply>
     9de:	8d b7       	in	r24, 0x3d	; 61
     9e0:	9e b7       	in	r25, 0x3e	; 62
     9e2:	0c 97       	sbiw	r24, 0x0c	; 12
     9e4:	0f b6       	in	r0, 0x3f	; 63
     9e6:	f8 94       	cli
     9e8:	9e bf       	out	0x3e, r25	; 62
     9ea:	0f be       	out	0x3f, r0	; 63
     9ec:	8d bf       	out	0x3d, r24	; 61
     9ee:	ad b7       	in	r26, 0x3d	; 61
     9f0:	be b7       	in	r27, 0x3e	; 62
     9f2:	11 96       	adiw	r26, 0x01	; 1
     9f4:	8c e0       	ldi	r24, 0x0C	; 12
     9f6:	fe 01       	movw	r30, r28
     9f8:	fd 96       	adiw	r30, 0x3d	; 61
     9fa:	01 90       	ld	r0, Z+
     9fc:	0d 92       	st	X+, r0
     9fe:	8a 95       	dec	r24
     a00:	e1 f7       	brne	.-8      	; 0x9fa <calcMotorPositions+0x1e6>
     a02:	c0 90 f1 01 	lds	r12, 0x01F1	; 0x8001f1 <Ab>
     a06:	d0 90 f2 01 	lds	r13, 0x01F2	; 0x8001f2 <Ab+0x1>
     a0a:	e0 90 f3 01 	lds	r14, 0x01F3	; 0x8001f3 <Ab+0x2>
     a0e:	f0 90 f4 01 	lds	r15, 0x01F4	; 0x8001f4 <Ab+0x3>
     a12:	00 91 f5 01 	lds	r16, 0x01F5	; 0x8001f5 <Ab+0x4>
     a16:	10 91 f6 01 	lds	r17, 0x01F6	; 0x8001f6 <Ab+0x5>
     a1a:	20 91 f7 01 	lds	r18, 0x01F7	; 0x8001f7 <Ab+0x6>
     a1e:	30 91 f8 01 	lds	r19, 0x01F8	; 0x8001f8 <Ab+0x7>
     a22:	40 91 f9 01 	lds	r20, 0x01F9	; 0x8001f9 <Ab+0x8>
     a26:	50 91 fa 01 	lds	r21, 0x01FA	; 0x8001fa <Ab+0x9>
     a2a:	60 91 fb 01 	lds	r22, 0x01FB	; 0x8001fb <Ab+0xa>
     a2e:	70 91 fc 01 	lds	r23, 0x01FC	; 0x8001fc <Ab+0xb>
     a32:	ce 01       	movw	r24, r28
     a34:	83 59       	subi	r24, 0x93	; 147
     a36:	9f 4f       	sbci	r25, 0xFF	; 255
     a38:	0e 94 45 0f 	call	0x1e8a	; 0x1e8a <add>
     a3c:	8c e0       	ldi	r24, 0x0C	; 12
     a3e:	fe 01       	movw	r30, r28
     a40:	e3 59       	subi	r30, 0x93	; 147
     a42:	ff 4f       	sbci	r31, 0xFF	; 255
     a44:	ad e9       	ldi	r26, 0x9D	; 157
     a46:	b1 e0       	ldi	r27, 0x01	; 1
     a48:	01 90       	ld	r0, Z+
     a4a:	0d 92       	st	X+, r0
     a4c:	8a 95       	dec	r24
     a4e:	e1 f7       	brne	.-8      	; 0xa48 <calcMotorPositions+0x234>
     a50:	80 90 55 01 	lds	r8, 0x0155	; 0x800155 <basePositionKoeff>
     a54:	90 90 56 01 	lds	r9, 0x0156	; 0x800156 <basePositionKoeff+0x1>
     a58:	a0 90 57 01 	lds	r10, 0x0157	; 0x800157 <basePositionKoeff+0x2>
     a5c:	b0 90 58 01 	lds	r11, 0x0158	; 0x800158 <basePositionKoeff+0x3>
     a60:	a2 96       	adiw	r28, 0x22	; 34
     a62:	cf ac       	ldd	r12, Y+63	; 0x3f
     a64:	a2 97       	sbiw	r28, 0x22	; 34
     a66:	a3 96       	adiw	r28, 0x23	; 35
     a68:	df ac       	ldd	r13, Y+63	; 0x3f
     a6a:	a3 97       	sbiw	r28, 0x23	; 35
     a6c:	a4 96       	adiw	r28, 0x24	; 36
     a6e:	ef ac       	ldd	r14, Y+63	; 0x3f
     a70:	a4 97       	sbiw	r28, 0x24	; 36
     a72:	a5 96       	adiw	r28, 0x25	; 37
     a74:	ff ac       	ldd	r15, Y+63	; 0x3f
     a76:	a5 97       	sbiw	r28, 0x25	; 37
     a78:	a6 96       	adiw	r28, 0x26	; 38
     a7a:	0f ad       	ldd	r16, Y+63	; 0x3f
     a7c:	a6 97       	sbiw	r28, 0x26	; 38
     a7e:	a7 96       	adiw	r28, 0x27	; 39
     a80:	1f ad       	ldd	r17, Y+63	; 0x3f
     a82:	a7 97       	sbiw	r28, 0x27	; 39
     a84:	a8 96       	adiw	r28, 0x28	; 40
     a86:	2f ad       	ldd	r18, Y+63	; 0x3f
     a88:	a8 97       	sbiw	r28, 0x28	; 40
     a8a:	a9 96       	adiw	r28, 0x29	; 41
     a8c:	3f ad       	ldd	r19, Y+63	; 0x3f
     a8e:	a9 97       	sbiw	r28, 0x29	; 41
     a90:	aa 96       	adiw	r28, 0x2a	; 42
     a92:	4f ad       	ldd	r20, Y+63	; 0x3f
     a94:	aa 97       	sbiw	r28, 0x2a	; 42
     a96:	ab 96       	adiw	r28, 0x2b	; 43
     a98:	5f ad       	ldd	r21, Y+63	; 0x3f
     a9a:	ab 97       	sbiw	r28, 0x2b	; 43
     a9c:	ac 96       	adiw	r28, 0x2c	; 44
     a9e:	6f ad       	ldd	r22, Y+63	; 0x3f
     aa0:	ac 97       	sbiw	r28, 0x2c	; 44
     aa2:	ad 96       	adiw	r28, 0x2d	; 45
     aa4:	7f ad       	ldd	r23, Y+63	; 0x3f
     aa6:	ad 97       	sbiw	r28, 0x2d	; 45
     aa8:	ce 01       	movw	r24, r28
     aaa:	c1 96       	adiw	r24, 0x31	; 49
     aac:	0e 94 de 0e 	call	0x1dbc	; 0x1dbc <multiply>
     ab0:	8d b7       	in	r24, 0x3d	; 61
     ab2:	9e b7       	in	r25, 0x3e	; 62
     ab4:	0c 97       	sbiw	r24, 0x0c	; 12
     ab6:	0f b6       	in	r0, 0x3f	; 63
     ab8:	f8 94       	cli
     aba:	9e bf       	out	0x3e, r25	; 62
     abc:	0f be       	out	0x3f, r0	; 63
     abe:	8d bf       	out	0x3d, r24	; 61
     ac0:	ad b7       	in	r26, 0x3d	; 61
     ac2:	be b7       	in	r27, 0x3e	; 62
     ac4:	11 96       	adiw	r26, 0x01	; 1
     ac6:	8c e0       	ldi	r24, 0x0C	; 12
     ac8:	fe 01       	movw	r30, r28
     aca:	f1 96       	adiw	r30, 0x31	; 49
     acc:	01 90       	ld	r0, Z+
     ace:	0d 92       	st	X+, r0
     ad0:	8a 95       	dec	r24
     ad2:	e1 f7       	brne	.-8      	; 0xacc <calcMotorPositions+0x2b8>
     ad4:	c0 90 f1 01 	lds	r12, 0x01F1	; 0x8001f1 <Ab>
     ad8:	d0 90 f2 01 	lds	r13, 0x01F2	; 0x8001f2 <Ab+0x1>
     adc:	e0 90 f3 01 	lds	r14, 0x01F3	; 0x8001f3 <Ab+0x2>
     ae0:	f0 90 f4 01 	lds	r15, 0x01F4	; 0x8001f4 <Ab+0x3>
     ae4:	00 91 f5 01 	lds	r16, 0x01F5	; 0x8001f5 <Ab+0x4>
     ae8:	10 91 f6 01 	lds	r17, 0x01F6	; 0x8001f6 <Ab+0x5>
     aec:	20 91 f7 01 	lds	r18, 0x01F7	; 0x8001f7 <Ab+0x6>
     af0:	30 91 f8 01 	lds	r19, 0x01F8	; 0x8001f8 <Ab+0x7>
     af4:	40 91 f9 01 	lds	r20, 0x01F9	; 0x8001f9 <Ab+0x8>
     af8:	50 91 fa 01 	lds	r21, 0x01FA	; 0x8001fa <Ab+0x9>
     afc:	60 91 fb 01 	lds	r22, 0x01FB	; 0x8001fb <Ab+0xa>
     b00:	70 91 fc 01 	lds	r23, 0x01FC	; 0x8001fc <Ab+0xb>
     b04:	ce 01       	movw	r24, r28
     b06:	83 59       	subi	r24, 0x93	; 147
     b08:	9f 4f       	sbci	r25, 0xFF	; 255
     b0a:	0e 94 45 0f 	call	0x1e8a	; 0x1e8a <add>
     b0e:	8c e0       	ldi	r24, 0x0C	; 12
     b10:	fe 01       	movw	r30, r28
     b12:	e3 59       	subi	r30, 0x93	; 147
     b14:	ff 4f       	sbci	r31, 0xFF	; 255
     b16:	a9 ea       	ldi	r26, 0xA9	; 169
     b18:	b1 e0       	ldi	r27, 0x01	; 1
     b1a:	01 90       	ld	r0, Z+
     b1c:	0d 92       	st	X+, r0
     b1e:	8a 95       	dec	r24
     b20:	e1 f7       	brne	.-8      	; 0xb1a <calcMotorPositions+0x306>
     b22:	53 01       	movw	r10, r6
     b24:	42 01       	movw	r8, r4
     b26:	2a 96       	adiw	r28, 0x0a	; 10
     b28:	cf ac       	ldd	r12, Y+63	; 0x3f
     b2a:	2a 97       	sbiw	r28, 0x0a	; 10
     b2c:	2b 96       	adiw	r28, 0x0b	; 11
     b2e:	df ac       	ldd	r13, Y+63	; 0x3f
     b30:	2b 97       	sbiw	r28, 0x0b	; 11
     b32:	2c 96       	adiw	r28, 0x0c	; 12
     b34:	ef ac       	ldd	r14, Y+63	; 0x3f
     b36:	2c 97       	sbiw	r28, 0x0c	; 12
     b38:	2d 96       	adiw	r28, 0x0d	; 13
     b3a:	ff ac       	ldd	r15, Y+63	; 0x3f
     b3c:	2d 97       	sbiw	r28, 0x0d	; 13
     b3e:	2e 96       	adiw	r28, 0x0e	; 14
     b40:	0f ad       	ldd	r16, Y+63	; 0x3f
     b42:	2e 97       	sbiw	r28, 0x0e	; 14
     b44:	2f 96       	adiw	r28, 0x0f	; 15
     b46:	1f ad       	ldd	r17, Y+63	; 0x3f
     b48:	2f 97       	sbiw	r28, 0x0f	; 15
     b4a:	60 96       	adiw	r28, 0x10	; 16
     b4c:	2f ad       	ldd	r18, Y+63	; 0x3f
     b4e:	60 97       	sbiw	r28, 0x10	; 16
     b50:	61 96       	adiw	r28, 0x11	; 17
     b52:	3f ad       	ldd	r19, Y+63	; 0x3f
     b54:	61 97       	sbiw	r28, 0x11	; 17
     b56:	62 96       	adiw	r28, 0x12	; 18
     b58:	4f ad       	ldd	r20, Y+63	; 0x3f
     b5a:	62 97       	sbiw	r28, 0x12	; 18
     b5c:	63 96       	adiw	r28, 0x13	; 19
     b5e:	5f ad       	ldd	r21, Y+63	; 0x3f
     b60:	63 97       	sbiw	r28, 0x13	; 19
     b62:	64 96       	adiw	r28, 0x14	; 20
     b64:	6f ad       	ldd	r22, Y+63	; 0x3f
     b66:	64 97       	sbiw	r28, 0x14	; 20
     b68:	65 96       	adiw	r28, 0x15	; 21
     b6a:	7f ad       	ldd	r23, Y+63	; 0x3f
     b6c:	65 97       	sbiw	r28, 0x15	; 21
     b6e:	ce 01       	movw	r24, r28
     b70:	85 96       	adiw	r24, 0x25	; 37
     b72:	0e 94 de 0e 	call	0x1dbc	; 0x1dbc <multiply>
     b76:	8d b7       	in	r24, 0x3d	; 61
     b78:	9e b7       	in	r25, 0x3e	; 62
     b7a:	0c 97       	sbiw	r24, 0x0c	; 12
     b7c:	0f b6       	in	r0, 0x3f	; 63
     b7e:	f8 94       	cli
     b80:	9e bf       	out	0x3e, r25	; 62
     b82:	0f be       	out	0x3f, r0	; 63
     b84:	8d bf       	out	0x3d, r24	; 61
     b86:	ad b7       	in	r26, 0x3d	; 61
     b88:	be b7       	in	r27, 0x3e	; 62
     b8a:	11 96       	adiw	r26, 0x01	; 1
     b8c:	8c e0       	ldi	r24, 0x0C	; 12
     b8e:	fe 01       	movw	r30, r28
     b90:	b5 96       	adiw	r30, 0x25	; 37
     b92:	01 90       	ld	r0, Z+
     b94:	0d 92       	st	X+, r0
     b96:	8a 95       	dec	r24
     b98:	e1 f7       	brne	.-8      	; 0xb92 <calcMotorPositions+0x37e>
     b9a:	c0 90 85 01 	lds	r12, 0x0185	; 0x800185 <Cb>
     b9e:	d0 90 86 01 	lds	r13, 0x0186	; 0x800186 <Cb+0x1>
     ba2:	e0 90 87 01 	lds	r14, 0x0187	; 0x800187 <Cb+0x2>
     ba6:	f0 90 88 01 	lds	r15, 0x0188	; 0x800188 <Cb+0x3>
     baa:	00 91 89 01 	lds	r16, 0x0189	; 0x800189 <Cb+0x4>
     bae:	10 91 8a 01 	lds	r17, 0x018A	; 0x80018a <Cb+0x5>
     bb2:	20 91 8b 01 	lds	r18, 0x018B	; 0x80018b <Cb+0x6>
     bb6:	30 91 8c 01 	lds	r19, 0x018C	; 0x80018c <Cb+0x7>
     bba:	40 91 8d 01 	lds	r20, 0x018D	; 0x80018d <Cb+0x8>
     bbe:	50 91 8e 01 	lds	r21, 0x018E	; 0x80018e <Cb+0x9>
     bc2:	60 91 8f 01 	lds	r22, 0x018F	; 0x80018f <Cb+0xa>
     bc6:	70 91 90 01 	lds	r23, 0x0190	; 0x800190 <Cb+0xb>
     bca:	ce 01       	movw	r24, r28
     bcc:	83 59       	subi	r24, 0x93	; 147
     bce:	9f 4f       	sbci	r25, 0xFF	; 255
     bd0:	0e 94 45 0f 	call	0x1e8a	; 0x1e8a <add>
     bd4:	8c e0       	ldi	r24, 0x0C	; 12
     bd6:	fe 01       	movw	r30, r28
     bd8:	e3 59       	subi	r30, 0x93	; 147
     bda:	ff 4f       	sbci	r31, 0xFF	; 255
     bdc:	a5 eb       	ldi	r26, 0xB5	; 181
     bde:	b1 e0       	ldi	r27, 0x01	; 1
     be0:	01 90       	ld	r0, Z+
     be2:	0d 92       	st	X+, r0
     be4:	8a 95       	dec	r24
     be6:	e1 f7       	brne	.-8      	; 0xbe0 <calcMotorPositions+0x3cc>
     be8:	0f b6       	in	r0, 0x3f	; 63
     bea:	f8 94       	cli
     bec:	de bf       	out	0x3e, r29	; 62
     bee:	0f be       	out	0x3f, r0	; 63
     bf0:	cd bf       	out	0x3d, r28	; 61
     bf2:	80 90 55 01 	lds	r8, 0x0155	; 0x800155 <basePositionKoeff>
     bf6:	90 90 56 01 	lds	r9, 0x0156	; 0x800156 <basePositionKoeff+0x1>
     bfa:	a0 90 57 01 	lds	r10, 0x0157	; 0x800157 <basePositionKoeff+0x2>
     bfe:	b0 90 58 01 	lds	r11, 0x0158	; 0x800158 <basePositionKoeff+0x3>
     c02:	2a 96       	adiw	r28, 0x0a	; 10
     c04:	cf ac       	ldd	r12, Y+63	; 0x3f
     c06:	2a 97       	sbiw	r28, 0x0a	; 10
     c08:	2b 96       	adiw	r28, 0x0b	; 11
     c0a:	df ac       	ldd	r13, Y+63	; 0x3f
     c0c:	2b 97       	sbiw	r28, 0x0b	; 11
     c0e:	2c 96       	adiw	r28, 0x0c	; 12
     c10:	ef ac       	ldd	r14, Y+63	; 0x3f
     c12:	2c 97       	sbiw	r28, 0x0c	; 12
     c14:	2d 96       	adiw	r28, 0x0d	; 13
     c16:	ff ac       	ldd	r15, Y+63	; 0x3f
     c18:	2d 97       	sbiw	r28, 0x0d	; 13
     c1a:	2e 96       	adiw	r28, 0x0e	; 14
     c1c:	0f ad       	ldd	r16, Y+63	; 0x3f
     c1e:	2e 97       	sbiw	r28, 0x0e	; 14
     c20:	2f 96       	adiw	r28, 0x0f	; 15
     c22:	1f ad       	ldd	r17, Y+63	; 0x3f
     c24:	2f 97       	sbiw	r28, 0x0f	; 15
     c26:	60 96       	adiw	r28, 0x10	; 16
     c28:	2f ad       	ldd	r18, Y+63	; 0x3f
     c2a:	60 97       	sbiw	r28, 0x10	; 16
     c2c:	61 96       	adiw	r28, 0x11	; 17
     c2e:	3f ad       	ldd	r19, Y+63	; 0x3f
     c30:	61 97       	sbiw	r28, 0x11	; 17
     c32:	62 96       	adiw	r28, 0x12	; 18
     c34:	4f ad       	ldd	r20, Y+63	; 0x3f
     c36:	62 97       	sbiw	r28, 0x12	; 18
     c38:	63 96       	adiw	r28, 0x13	; 19
     c3a:	5f ad       	ldd	r21, Y+63	; 0x3f
     c3c:	63 97       	sbiw	r28, 0x13	; 19
     c3e:	64 96       	adiw	r28, 0x14	; 20
     c40:	6f ad       	ldd	r22, Y+63	; 0x3f
     c42:	64 97       	sbiw	r28, 0x14	; 20
     c44:	65 96       	adiw	r28, 0x15	; 21
     c46:	7f ad       	ldd	r23, Y+63	; 0x3f
     c48:	65 97       	sbiw	r28, 0x15	; 21
     c4a:	ce 01       	movw	r24, r28
     c4c:	49 96       	adiw	r24, 0x19	; 25
     c4e:	0e 94 de 0e 	call	0x1dbc	; 0x1dbc <multiply>
     c52:	8d b7       	in	r24, 0x3d	; 61
     c54:	9e b7       	in	r25, 0x3e	; 62
     c56:	0c 97       	sbiw	r24, 0x0c	; 12
     c58:	0f b6       	in	r0, 0x3f	; 63
     c5a:	f8 94       	cli
     c5c:	9e bf       	out	0x3e, r25	; 62
     c5e:	0f be       	out	0x3f, r0	; 63
     c60:	8d bf       	out	0x3d, r24	; 61
     c62:	ad b7       	in	r26, 0x3d	; 61
     c64:	be b7       	in	r27, 0x3e	; 62
     c66:	11 96       	adiw	r26, 0x01	; 1
     c68:	8c e0       	ldi	r24, 0x0C	; 12
     c6a:	fe 01       	movw	r30, r28
     c6c:	79 96       	adiw	r30, 0x19	; 25
     c6e:	01 90       	ld	r0, Z+
     c70:	0d 92       	st	X+, r0
     c72:	8a 95       	dec	r24
     c74:	e1 f7       	brne	.-8      	; 0xc6e <calcMotorPositions+0x45a>
     c76:	c0 90 85 01 	lds	r12, 0x0185	; 0x800185 <Cb>
     c7a:	d0 90 86 01 	lds	r13, 0x0186	; 0x800186 <Cb+0x1>
     c7e:	e0 90 87 01 	lds	r14, 0x0187	; 0x800187 <Cb+0x2>
     c82:	f0 90 88 01 	lds	r15, 0x0188	; 0x800188 <Cb+0x3>
     c86:	00 91 89 01 	lds	r16, 0x0189	; 0x800189 <Cb+0x4>
     c8a:	10 91 8a 01 	lds	r17, 0x018A	; 0x80018a <Cb+0x5>
     c8e:	20 91 8b 01 	lds	r18, 0x018B	; 0x80018b <Cb+0x6>
     c92:	30 91 8c 01 	lds	r19, 0x018C	; 0x80018c <Cb+0x7>
     c96:	40 91 8d 01 	lds	r20, 0x018D	; 0x80018d <Cb+0x8>
     c9a:	50 91 8e 01 	lds	r21, 0x018E	; 0x80018e <Cb+0x9>
     c9e:	60 91 8f 01 	lds	r22, 0x018F	; 0x80018f <Cb+0xa>
     ca2:	70 91 90 01 	lds	r23, 0x0190	; 0x800190 <Cb+0xb>
     ca6:	ce 01       	movw	r24, r28
     ca8:	83 59       	subi	r24, 0x93	; 147
     caa:	9f 4f       	sbci	r25, 0xFF	; 255
     cac:	0e 94 45 0f 	call	0x1e8a	; 0x1e8a <add>
     cb0:	8c e0       	ldi	r24, 0x0C	; 12
     cb2:	fe 01       	movw	r30, r28
     cb4:	e3 59       	subi	r30, 0x93	; 147
     cb6:	ff 4f       	sbci	r31, 0xFF	; 255
     cb8:	a1 ec       	ldi	r26, 0xC1	; 193
     cba:	b1 e0       	ldi	r27, 0x01	; 1
     cbc:	01 90       	ld	r0, Z+
     cbe:	0d 92       	st	X+, r0
     cc0:	8a 95       	dec	r24
     cc2:	e1 f7       	brne	.-8      	; 0xcbc <calcMotorPositions+0x4a8>
     cc4:	53 01       	movw	r10, r6
     cc6:	42 01       	movw	r8, r4
     cc8:	66 96       	adiw	r28, 0x16	; 22
     cca:	cf ac       	ldd	r12, Y+63	; 0x3f
     ccc:	66 97       	sbiw	r28, 0x16	; 22
     cce:	67 96       	adiw	r28, 0x17	; 23
     cd0:	df ac       	ldd	r13, Y+63	; 0x3f
     cd2:	67 97       	sbiw	r28, 0x17	; 23
     cd4:	68 96       	adiw	r28, 0x18	; 24
     cd6:	ef ac       	ldd	r14, Y+63	; 0x3f
     cd8:	68 97       	sbiw	r28, 0x18	; 24
     cda:	69 96       	adiw	r28, 0x19	; 25
     cdc:	ff ac       	ldd	r15, Y+63	; 0x3f
     cde:	69 97       	sbiw	r28, 0x19	; 25
     ce0:	6a 96       	adiw	r28, 0x1a	; 26
     ce2:	0f ad       	ldd	r16, Y+63	; 0x3f
     ce4:	6a 97       	sbiw	r28, 0x1a	; 26
     ce6:	6b 96       	adiw	r28, 0x1b	; 27
     ce8:	1f ad       	ldd	r17, Y+63	; 0x3f
     cea:	6b 97       	sbiw	r28, 0x1b	; 27
     cec:	6c 96       	adiw	r28, 0x1c	; 28
     cee:	2f ad       	ldd	r18, Y+63	; 0x3f
     cf0:	6c 97       	sbiw	r28, 0x1c	; 28
     cf2:	6d 96       	adiw	r28, 0x1d	; 29
     cf4:	3f ad       	ldd	r19, Y+63	; 0x3f
     cf6:	6d 97       	sbiw	r28, 0x1d	; 29
     cf8:	6e 96       	adiw	r28, 0x1e	; 30
     cfa:	4f ad       	ldd	r20, Y+63	; 0x3f
     cfc:	6e 97       	sbiw	r28, 0x1e	; 30
     cfe:	6f 96       	adiw	r28, 0x1f	; 31
     d00:	5f ad       	ldd	r21, Y+63	; 0x3f
     d02:	6f 97       	sbiw	r28, 0x1f	; 31
     d04:	a0 96       	adiw	r28, 0x20	; 32
     d06:	6f ad       	ldd	r22, Y+63	; 0x3f
     d08:	a0 97       	sbiw	r28, 0x20	; 32
     d0a:	a1 96       	adiw	r28, 0x21	; 33
     d0c:	7f ad       	ldd	r23, Y+63	; 0x3f
     d0e:	a1 97       	sbiw	r28, 0x21	; 33
     d10:	ce 01       	movw	r24, r28
     d12:	0d 96       	adiw	r24, 0x0d	; 13
     d14:	0e 94 de 0e 	call	0x1dbc	; 0x1dbc <multiply>
     d18:	8d b7       	in	r24, 0x3d	; 61
     d1a:	9e b7       	in	r25, 0x3e	; 62
     d1c:	0c 97       	sbiw	r24, 0x0c	; 12
     d1e:	0f b6       	in	r0, 0x3f	; 63
     d20:	f8 94       	cli
     d22:	9e bf       	out	0x3e, r25	; 62
     d24:	0f be       	out	0x3f, r0	; 63
     d26:	8d bf       	out	0x3d, r24	; 61
     d28:	ad b7       	in	r26, 0x3d	; 61
     d2a:	be b7       	in	r27, 0x3e	; 62
     d2c:	11 96       	adiw	r26, 0x01	; 1
     d2e:	8c e0       	ldi	r24, 0x0C	; 12
     d30:	fe 01       	movw	r30, r28
     d32:	3d 96       	adiw	r30, 0x0d	; 13
     d34:	01 90       	ld	r0, Z+
     d36:	0d 92       	st	X+, r0
     d38:	8a 95       	dec	r24
     d3a:	e1 f7       	brne	.-8      	; 0xd34 <calcMotorPositions+0x520>
     d3c:	c0 90 79 01 	lds	r12, 0x0179	; 0x800179 <Bb>
     d40:	d0 90 7a 01 	lds	r13, 0x017A	; 0x80017a <Bb+0x1>
     d44:	e0 90 7b 01 	lds	r14, 0x017B	; 0x80017b <Bb+0x2>
     d48:	f0 90 7c 01 	lds	r15, 0x017C	; 0x80017c <Bb+0x3>
     d4c:	00 91 7d 01 	lds	r16, 0x017D	; 0x80017d <Bb+0x4>
     d50:	10 91 7e 01 	lds	r17, 0x017E	; 0x80017e <Bb+0x5>
     d54:	20 91 7f 01 	lds	r18, 0x017F	; 0x80017f <Bb+0x6>
     d58:	30 91 80 01 	lds	r19, 0x0180	; 0x800180 <Bb+0x7>
     d5c:	40 91 81 01 	lds	r20, 0x0181	; 0x800181 <Bb+0x8>
     d60:	50 91 82 01 	lds	r21, 0x0182	; 0x800182 <Bb+0x9>
     d64:	60 91 83 01 	lds	r22, 0x0183	; 0x800183 <Bb+0xa>
     d68:	70 91 84 01 	lds	r23, 0x0184	; 0x800184 <Bb+0xb>
     d6c:	ce 01       	movw	r24, r28
     d6e:	83 59       	subi	r24, 0x93	; 147
     d70:	9f 4f       	sbci	r25, 0xFF	; 255
     d72:	0e 94 45 0f 	call	0x1e8a	; 0x1e8a <add>
     d76:	8c e0       	ldi	r24, 0x0C	; 12
     d78:	fe 01       	movw	r30, r28
     d7a:	e3 59       	subi	r30, 0x93	; 147
     d7c:	ff 4f       	sbci	r31, 0xFF	; 255
     d7e:	ad ec       	ldi	r26, 0xCD	; 205
     d80:	b1 e0       	ldi	r27, 0x01	; 1
     d82:	01 90       	ld	r0, Z+
     d84:	0d 92       	st	X+, r0
     d86:	8a 95       	dec	r24
     d88:	e1 f7       	brne	.-8      	; 0xd82 <calcMotorPositions+0x56e>
     d8a:	80 90 55 01 	lds	r8, 0x0155	; 0x800155 <basePositionKoeff>
     d8e:	90 90 56 01 	lds	r9, 0x0156	; 0x800156 <basePositionKoeff+0x1>
     d92:	a0 90 57 01 	lds	r10, 0x0157	; 0x800157 <basePositionKoeff+0x2>
     d96:	b0 90 58 01 	lds	r11, 0x0158	; 0x800158 <basePositionKoeff+0x3>
     d9a:	66 96       	adiw	r28, 0x16	; 22
     d9c:	cf ac       	ldd	r12, Y+63	; 0x3f
     d9e:	66 97       	sbiw	r28, 0x16	; 22
     da0:	67 96       	adiw	r28, 0x17	; 23
     da2:	df ac       	ldd	r13, Y+63	; 0x3f
     da4:	67 97       	sbiw	r28, 0x17	; 23
     da6:	68 96       	adiw	r28, 0x18	; 24
     da8:	ef ac       	ldd	r14, Y+63	; 0x3f
     daa:	68 97       	sbiw	r28, 0x18	; 24
     dac:	69 96       	adiw	r28, 0x19	; 25
     dae:	ff ac       	ldd	r15, Y+63	; 0x3f
     db0:	69 97       	sbiw	r28, 0x19	; 25
     db2:	6a 96       	adiw	r28, 0x1a	; 26
     db4:	0f ad       	ldd	r16, Y+63	; 0x3f
     db6:	6a 97       	sbiw	r28, 0x1a	; 26
     db8:	6b 96       	adiw	r28, 0x1b	; 27
     dba:	1f ad       	ldd	r17, Y+63	; 0x3f
     dbc:	6b 97       	sbiw	r28, 0x1b	; 27
     dbe:	6c 96       	adiw	r28, 0x1c	; 28
     dc0:	2f ad       	ldd	r18, Y+63	; 0x3f
     dc2:	6c 97       	sbiw	r28, 0x1c	; 28
     dc4:	6d 96       	adiw	r28, 0x1d	; 29
     dc6:	3f ad       	ldd	r19, Y+63	; 0x3f
     dc8:	6d 97       	sbiw	r28, 0x1d	; 29
     dca:	6e 96       	adiw	r28, 0x1e	; 30
     dcc:	4f ad       	ldd	r20, Y+63	; 0x3f
     dce:	6e 97       	sbiw	r28, 0x1e	; 30
     dd0:	6f 96       	adiw	r28, 0x1f	; 31
     dd2:	5f ad       	ldd	r21, Y+63	; 0x3f
     dd4:	6f 97       	sbiw	r28, 0x1f	; 31
     dd6:	a0 96       	adiw	r28, 0x20	; 32
     dd8:	6f ad       	ldd	r22, Y+63	; 0x3f
     dda:	a0 97       	sbiw	r28, 0x20	; 32
     ddc:	a1 96       	adiw	r28, 0x21	; 33
     dde:	7f ad       	ldd	r23, Y+63	; 0x3f
     de0:	a1 97       	sbiw	r28, 0x21	; 33
     de2:	ce 01       	movw	r24, r28
     de4:	01 96       	adiw	r24, 0x01	; 1
     de6:	ea d7       	rcall	.+4052   	; 0x1dbc <multiply>
     de8:	8d b7       	in	r24, 0x3d	; 61
     dea:	9e b7       	in	r25, 0x3e	; 62
     dec:	0c 97       	sbiw	r24, 0x0c	; 12
     dee:	0f b6       	in	r0, 0x3f	; 63
     df0:	f8 94       	cli
     df2:	9e bf       	out	0x3e, r25	; 62
     df4:	0f be       	out	0x3f, r0	; 63
     df6:	8d bf       	out	0x3d, r24	; 61
     df8:	ad b7       	in	r26, 0x3d	; 61
     dfa:	be b7       	in	r27, 0x3e	; 62
     dfc:	11 96       	adiw	r26, 0x01	; 1
     dfe:	8c e0       	ldi	r24, 0x0C	; 12
     e00:	fe 01       	movw	r30, r28
     e02:	31 96       	adiw	r30, 0x01	; 1
     e04:	01 90       	ld	r0, Z+
     e06:	0d 92       	st	X+, r0
     e08:	8a 95       	dec	r24
     e0a:	e1 f7       	brne	.-8      	; 0xe04 <calcMotorPositions+0x5f0>
     e0c:	c0 90 79 01 	lds	r12, 0x0179	; 0x800179 <Bb>
     e10:	d0 90 7a 01 	lds	r13, 0x017A	; 0x80017a <Bb+0x1>
     e14:	e0 90 7b 01 	lds	r14, 0x017B	; 0x80017b <Bb+0x2>
     e18:	f0 90 7c 01 	lds	r15, 0x017C	; 0x80017c <Bb+0x3>
     e1c:	00 91 7d 01 	lds	r16, 0x017D	; 0x80017d <Bb+0x4>
     e20:	10 91 7e 01 	lds	r17, 0x017E	; 0x80017e <Bb+0x5>
     e24:	20 91 7f 01 	lds	r18, 0x017F	; 0x80017f <Bb+0x6>
     e28:	30 91 80 01 	lds	r19, 0x0180	; 0x800180 <Bb+0x7>
     e2c:	40 91 81 01 	lds	r20, 0x0181	; 0x800181 <Bb+0x8>
     e30:	50 91 82 01 	lds	r21, 0x0182	; 0x800182 <Bb+0x9>
     e34:	60 91 83 01 	lds	r22, 0x0183	; 0x800183 <Bb+0xa>
     e38:	70 91 84 01 	lds	r23, 0x0184	; 0x800184 <Bb+0xb>
     e3c:	ce 01       	movw	r24, r28
     e3e:	83 59       	subi	r24, 0x93	; 147
     e40:	9f 4f       	sbci	r25, 0xFF	; 255
     e42:	0e 94 45 0f 	call	0x1e8a	; 0x1e8a <add>
     e46:	8c e0       	ldi	r24, 0x0C	; 12
     e48:	fe 01       	movw	r30, r28
     e4a:	e3 59       	subi	r30, 0x93	; 147
     e4c:	ff 4f       	sbci	r31, 0xFF	; 255
     e4e:	a9 ed       	ldi	r26, 0xD9	; 217
     e50:	b1 e0       	ldi	r27, 0x01	; 1
     e52:	01 90       	ld	r0, Z+
     e54:	0d 92       	st	X+, r0
     e56:	8a 95       	dec	r24
     e58:	e1 f7       	brne	.-8      	; 0xe52 <calcMotorPositions+0x63e>
     e5a:	0f b6       	in	r0, 0x3f	; 63
     e5c:	f8 94       	cli
     e5e:	de bf       	out	0x3e, r29	; 62
     e60:	0f be       	out	0x3f, r0	; 63
     e62:	cd bf       	out	0x3d, r28	; 61
     e64:	c8 58       	subi	r28, 0x88	; 136
     e66:	df 4f       	sbci	r29, 0xFF	; 255
     e68:	0f b6       	in	r0, 0x3f	; 63
     e6a:	f8 94       	cli
     e6c:	de bf       	out	0x3e, r29	; 62
     e6e:	0f be       	out	0x3f, r0	; 63
     e70:	cd bf       	out	0x3d, r28	; 61
     e72:	df 91       	pop	r29
     e74:	cf 91       	pop	r28
     e76:	1f 91       	pop	r17
     e78:	0f 91       	pop	r16
     e7a:	ff 90       	pop	r15
     e7c:	ef 90       	pop	r14
     e7e:	df 90       	pop	r13
     e80:	cf 90       	pop	r12
     e82:	bf 90       	pop	r11
     e84:	af 90       	pop	r10
     e86:	9f 90       	pop	r9
     e88:	8f 90       	pop	r8
     e8a:	7f 90       	pop	r7
     e8c:	6f 90       	pop	r6
     e8e:	5f 90       	pop	r5
     e90:	4f 90       	pop	r4
     e92:	08 95       	ret

00000e94 <calcTriangleCorner>:
     e94:	4f 92       	push	r4
     e96:	5f 92       	push	r5
     e98:	6f 92       	push	r6
     e9a:	7f 92       	push	r7
     e9c:	8f 92       	push	r8
     e9e:	9f 92       	push	r9
     ea0:	af 92       	push	r10
     ea2:	bf 92       	push	r11
     ea4:	cf 92       	push	r12
     ea6:	df 92       	push	r13
     ea8:	ef 92       	push	r14
     eaa:	ff 92       	push	r15
     eac:	cf 93       	push	r28
     eae:	df 93       	push	r29
     eb0:	00 d0       	rcall	.+0      	; 0xeb2 <calcTriangleCorner+0x1e>
     eb2:	00 d0       	rcall	.+0      	; 0xeb4 <calcTriangleCorner+0x20>
     eb4:	cd b7       	in	r28, 0x3d	; 61
     eb6:	de b7       	in	r29, 0x3e	; 62
     eb8:	20 e0       	ldi	r18, 0x00	; 0
     eba:	30 e0       	ldi	r19, 0x00	; 0
     ebc:	40 ec       	ldi	r20, 0xC0	; 192
     ebe:	50 e4       	ldi	r21, 0x40	; 64
     ec0:	60 91 00 01 	lds	r22, 0x0100	; 0x800100 <__data_start>
     ec4:	70 91 01 01 	lds	r23, 0x0101	; 0x800101 <__data_start+0x1>
     ec8:	80 91 02 01 	lds	r24, 0x0102	; 0x800102 <__data_start+0x2>
     ecc:	90 91 03 01 	lds	r25, 0x0103	; 0x800103 <__data_start+0x3>
     ed0:	0e 94 f7 14 	call	0x29ee	; 0x29ee <__divsf3>
     ed4:	2b 01       	movw	r4, r22
     ed6:	3c 01       	movw	r6, r24
     ed8:	80 90 75 01 	lds	r8, 0x0175	; 0x800175 <baseSideLength>
     edc:	90 90 76 01 	lds	r9, 0x0176	; 0x800176 <baseSideLength+0x1>
     ee0:	a0 90 77 01 	lds	r10, 0x0177	; 0x800177 <baseSideLength+0x2>
     ee4:	b0 90 78 01 	lds	r11, 0x0178	; 0x800178 <baseSideLength+0x3>
     ee8:	a5 01       	movw	r20, r10
     eea:	94 01       	movw	r18, r8
     eec:	0e 94 6d 16 	call	0x2cda	; 0x2cda <__mulsf3>
     ef0:	6b 01       	movw	r12, r22
     ef2:	7c 01       	movw	r14, r24
     ef4:	dc 01       	movw	r26, r24
     ef6:	cb 01       	movw	r24, r22
     ef8:	b0 58       	subi	r27, 0x80	; 128
     efa:	89 83       	std	Y+1, r24	; 0x01
     efc:	9a 83       	std	Y+2, r25	; 0x02
     efe:	ab 83       	std	Y+3, r26	; 0x03
     f00:	bc 83       	std	Y+4, r27	; 0x04
     f02:	c5 01       	movw	r24, r10
     f04:	b4 01       	movw	r22, r8
     f06:	90 58       	subi	r25, 0x80	; 128
     f08:	20 e0       	ldi	r18, 0x00	; 0
     f0a:	30 e0       	ldi	r19, 0x00	; 0
     f0c:	40 e0       	ldi	r20, 0x00	; 0
     f0e:	5f e3       	ldi	r21, 0x3F	; 63
     f10:	0e 94 6d 16 	call	0x2cda	; 0x2cda <__mulsf3>
     f14:	a1 ef       	ldi	r26, 0xF1	; 241
     f16:	b1 e0       	ldi	r27, 0x01	; 1
     f18:	6d 93       	st	X+, r22
     f1a:	7d 93       	st	X+, r23
     f1c:	8d 93       	st	X+, r24
     f1e:	9c 93       	st	X, r25
     f20:	13 97       	sbiw	r26, 0x03	; 3
     f22:	89 81       	ldd	r24, Y+1	; 0x01
     f24:	9a 81       	ldd	r25, Y+2	; 0x02
     f26:	ab 81       	ldd	r26, Y+3	; 0x03
     f28:	bc 81       	ldd	r27, Y+4	; 0x04
     f2a:	80 93 f5 01 	sts	0x01F5, r24	; 0x8001f5 <Ab+0x4>
     f2e:	90 93 f6 01 	sts	0x01F6, r25	; 0x8001f6 <Ab+0x5>
     f32:	a0 93 f7 01 	sts	0x01F7, r26	; 0x8001f7 <Ab+0x6>
     f36:	b0 93 f8 01 	sts	0x01F8, r27	; 0x8001f8 <Ab+0x7>
     f3a:	10 92 f9 01 	sts	0x01F9, r1	; 0x8001f9 <Ab+0x8>
     f3e:	10 92 fa 01 	sts	0x01FA, r1	; 0x8001fa <Ab+0x9>
     f42:	10 92 fb 01 	sts	0x01FB, r1	; 0x8001fb <Ab+0xa>
     f46:	10 92 fc 01 	sts	0x01FC, r1	; 0x8001fc <Ab+0xb>
     f4a:	20 e0       	ldi	r18, 0x00	; 0
     f4c:	30 e0       	ldi	r19, 0x00	; 0
     f4e:	40 e0       	ldi	r20, 0x00	; 0
     f50:	5f e3       	ldi	r21, 0x3F	; 63
     f52:	c5 01       	movw	r24, r10
     f54:	b4 01       	movw	r22, r8
     f56:	0e 94 6d 16 	call	0x2cda	; 0x2cda <__mulsf3>
     f5a:	a9 e7       	ldi	r26, 0x79	; 121
     f5c:	b1 e0       	ldi	r27, 0x01	; 1
     f5e:	6d 93       	st	X+, r22
     f60:	7d 93       	st	X+, r23
     f62:	8d 93       	st	X+, r24
     f64:	9c 93       	st	X, r25
     f66:	13 97       	sbiw	r26, 0x03	; 3
     f68:	89 81       	ldd	r24, Y+1	; 0x01
     f6a:	9a 81       	ldd	r25, Y+2	; 0x02
     f6c:	ab 81       	ldd	r26, Y+3	; 0x03
     f6e:	bc 81       	ldd	r27, Y+4	; 0x04
     f70:	80 93 7d 01 	sts	0x017D, r24	; 0x80017d <Bb+0x4>
     f74:	90 93 7e 01 	sts	0x017E, r25	; 0x80017e <Bb+0x5>
     f78:	a0 93 7f 01 	sts	0x017F, r26	; 0x80017f <Bb+0x6>
     f7c:	b0 93 80 01 	sts	0x0180, r27	; 0x800180 <Bb+0x7>
     f80:	10 92 81 01 	sts	0x0181, r1	; 0x800181 <Bb+0x8>
     f84:	10 92 82 01 	sts	0x0182, r1	; 0x800182 <Bb+0x9>
     f88:	10 92 83 01 	sts	0x0183, r1	; 0x800183 <Bb+0xa>
     f8c:	10 92 84 01 	sts	0x0184, r1	; 0x800184 <Bb+0xb>
     f90:	a5 e8       	ldi	r26, 0x85	; 133
     f92:	b1 e0       	ldi	r27, 0x01	; 1
     f94:	1d 92       	st	X+, r1
     f96:	1d 92       	st	X+, r1
     f98:	1d 92       	st	X+, r1
     f9a:	1c 92       	st	X, r1
     f9c:	13 97       	sbiw	r26, 0x03	; 3
     f9e:	a7 01       	movw	r20, r14
     fa0:	96 01       	movw	r18, r12
     fa2:	c7 01       	movw	r24, r14
     fa4:	b6 01       	movw	r22, r12
     fa6:	0e 94 17 14 	call	0x282e	; 0x282e <__addsf3>
     faa:	60 93 89 01 	sts	0x0189, r22	; 0x800189 <Cb+0x4>
     fae:	70 93 8a 01 	sts	0x018A, r23	; 0x80018a <Cb+0x5>
     fb2:	80 93 8b 01 	sts	0x018B, r24	; 0x80018b <Cb+0x6>
     fb6:	90 93 8c 01 	sts	0x018C, r25	; 0x80018c <Cb+0x7>
     fba:	10 92 8d 01 	sts	0x018D, r1	; 0x80018d <Cb+0x8>
     fbe:	10 92 8e 01 	sts	0x018E, r1	; 0x80018e <Cb+0x9>
     fc2:	10 92 8f 01 	sts	0x018F, r1	; 0x80018f <Cb+0xa>
     fc6:	10 92 90 01 	sts	0x0190, r1	; 0x800190 <Cb+0xb>
     fca:	c0 90 fd 01 	lds	r12, 0x01FD	; 0x8001fd <platformSideLength>
     fce:	d0 90 fe 01 	lds	r13, 0x01FE	; 0x8001fe <platformSideLength+0x1>
     fd2:	e0 90 ff 01 	lds	r14, 0x01FF	; 0x8001ff <platformSideLength+0x2>
     fd6:	f0 90 00 02 	lds	r15, 0x0200	; 0x800200 <platformSideLength+0x3>
     fda:	a7 01       	movw	r20, r14
     fdc:	96 01       	movw	r18, r12
     fde:	c3 01       	movw	r24, r6
     fe0:	b2 01       	movw	r22, r4
     fe2:	0e 94 6d 16 	call	0x2cda	; 0x2cda <__mulsf3>
     fe6:	4b 01       	movw	r8, r22
     fe8:	5c 01       	movw	r10, r24
     fea:	e1 e9       	ldi	r30, 0x91	; 145
     fec:	f1 e0       	ldi	r31, 0x01	; 1
     fee:	10 82       	st	Z, r1
     ff0:	11 82       	std	Z+1, r1	; 0x01
     ff2:	12 82       	std	Z+2, r1	; 0x02
     ff4:	13 82       	std	Z+3, r1	; 0x03
     ff6:	9b 01       	movw	r18, r22
     ff8:	ac 01       	movw	r20, r24
     ffa:	0e 94 17 14 	call	0x282e	; 0x282e <__addsf3>
     ffe:	dc 01       	movw	r26, r24
    1000:	cb 01       	movw	r24, r22
    1002:	b0 58       	subi	r27, 0x80	; 128
    1004:	80 93 95 01 	sts	0x0195, r24	; 0x800195 <Ap+0x4>
    1008:	90 93 96 01 	sts	0x0196, r25	; 0x800196 <Ap+0x5>
    100c:	a0 93 97 01 	sts	0x0197, r26	; 0x800197 <Ap+0x6>
    1010:	b0 93 98 01 	sts	0x0198, r27	; 0x800198 <Ap+0x7>
    1014:	10 92 99 01 	sts	0x0199, r1	; 0x800199 <Ap+0x8>
    1018:	10 92 9a 01 	sts	0x019A, r1	; 0x80019a <Ap+0x9>
    101c:	10 92 9b 01 	sts	0x019B, r1	; 0x80019b <Ap+0xa>
    1020:	10 92 9c 01 	sts	0x019C, r1	; 0x80019c <Ap+0xb>
    1024:	20 e0       	ldi	r18, 0x00	; 0
    1026:	30 e0       	ldi	r19, 0x00	; 0
    1028:	40 e0       	ldi	r20, 0x00	; 0
    102a:	5f e3       	ldi	r21, 0x3F	; 63
    102c:	c7 01       	movw	r24, r14
    102e:	b6 01       	movw	r22, r12
    1030:	0e 94 6d 16 	call	0x2cda	; 0x2cda <__mulsf3>
    1034:	a5 ee       	ldi	r26, 0xE5	; 229
    1036:	b1 e0       	ldi	r27, 0x01	; 1
    1038:	6d 93       	st	X+, r22
    103a:	7d 93       	st	X+, r23
    103c:	8d 93       	st	X+, r24
    103e:	9c 93       	st	X, r25
    1040:	13 97       	sbiw	r26, 0x03	; 3
    1042:	80 92 e9 01 	sts	0x01E9, r8	; 0x8001e9 <Bp+0x4>
    1046:	90 92 ea 01 	sts	0x01EA, r9	; 0x8001ea <Bp+0x5>
    104a:	a0 92 eb 01 	sts	0x01EB, r10	; 0x8001eb <Bp+0x6>
    104e:	b0 92 ec 01 	sts	0x01EC, r11	; 0x8001ec <Bp+0x7>
    1052:	10 92 ed 01 	sts	0x01ED, r1	; 0x8001ed <Bp+0x8>
    1056:	10 92 ee 01 	sts	0x01EE, r1	; 0x8001ee <Bp+0x9>
    105a:	10 92 ef 01 	sts	0x01EF, r1	; 0x8001ef <Bp+0xa>
    105e:	10 92 f0 01 	sts	0x01F0, r1	; 0x8001f0 <Bp+0xb>
    1062:	c7 01       	movw	r24, r14
    1064:	b6 01       	movw	r22, r12
    1066:	90 58       	subi	r25, 0x80	; 128
    1068:	20 e0       	ldi	r18, 0x00	; 0
    106a:	30 e0       	ldi	r19, 0x00	; 0
    106c:	40 e0       	ldi	r20, 0x00	; 0
    106e:	5f e3       	ldi	r21, 0x3F	; 63
    1070:	0e 94 6d 16 	call	0x2cda	; 0x2cda <__mulsf3>
    1074:	e1 e0       	ldi	r30, 0x01	; 1
    1076:	f2 e0       	ldi	r31, 0x02	; 2
    1078:	60 83       	st	Z, r22
    107a:	71 83       	std	Z+1, r23	; 0x01
    107c:	82 83       	std	Z+2, r24	; 0x02
    107e:	93 83       	std	Z+3, r25	; 0x03
    1080:	80 92 05 02 	sts	0x0205, r8	; 0x800205 <Cp+0x4>
    1084:	90 92 06 02 	sts	0x0206, r9	; 0x800206 <Cp+0x5>
    1088:	a0 92 07 02 	sts	0x0207, r10	; 0x800207 <Cp+0x6>
    108c:	b0 92 08 02 	sts	0x0208, r11	; 0x800208 <Cp+0x7>
    1090:	10 92 09 02 	sts	0x0209, r1	; 0x800209 <Cp+0x8>
    1094:	10 92 0a 02 	sts	0x020A, r1	; 0x80020a <Cp+0x9>
    1098:	10 92 0b 02 	sts	0x020B, r1	; 0x80020b <Cp+0xa>
    109c:	10 92 0c 02 	sts	0x020C, r1	; 0x80020c <Cp+0xb>
    10a0:	0f 90       	pop	r0
    10a2:	0f 90       	pop	r0
    10a4:	0f 90       	pop	r0
    10a6:	0f 90       	pop	r0
    10a8:	df 91       	pop	r29
    10aa:	cf 91       	pop	r28
    10ac:	ff 90       	pop	r15
    10ae:	ef 90       	pop	r14
    10b0:	df 90       	pop	r13
    10b2:	cf 90       	pop	r12
    10b4:	bf 90       	pop	r11
    10b6:	af 90       	pop	r10
    10b8:	9f 90       	pop	r9
    10ba:	8f 90       	pop	r8
    10bc:	7f 90       	pop	r7
    10be:	6f 90       	pop	r6
    10c0:	5f 90       	pop	r5
    10c2:	4f 90       	pop	r4
    10c4:	08 95       	ret

000010c6 <initialize>:
    10c6:	4f 92       	push	r4
    10c8:	5f 92       	push	r5
    10ca:	6f 92       	push	r6
    10cc:	7f 92       	push	r7
    10ce:	8f 92       	push	r8
    10d0:	9f 92       	push	r9
    10d2:	af 92       	push	r10
    10d4:	bf 92       	push	r11
    10d6:	cf 92       	push	r12
    10d8:	df 92       	push	r13
    10da:	ef 92       	push	r14
    10dc:	ff 92       	push	r15
    10de:	0f 93       	push	r16
    10e0:	1f 93       	push	r17
    10e2:	cf 93       	push	r28
    10e4:	df 93       	push	r29
    10e6:	00 d0       	rcall	.+0      	; 0x10e8 <initialize+0x22>
    10e8:	00 d0       	rcall	.+0      	; 0x10ea <initialize+0x24>
    10ea:	cd b7       	in	r28, 0x3d	; 61
    10ec:	de b7       	in	r29, 0x3e	; 62
    10ee:	6f 88       	ldd	r6, Y+23	; 0x17
    10f0:	78 8c       	ldd	r7, Y+24	; 0x18
    10f2:	89 8c       	ldd	r8, Y+25	; 0x19
    10f4:	9a 8c       	ldd	r9, Y+26	; 0x1a
    10f6:	69 82       	std	Y+1, r6	; 0x01
    10f8:	7a 82       	std	Y+2, r7	; 0x02
    10fa:	8b 82       	std	Y+3, r8	; 0x03
    10fc:	9c 82       	std	Y+4, r9	; 0x04
    10fe:	4b 8c       	ldd	r4, Y+27	; 0x1b
    1100:	5c 8c       	ldd	r5, Y+28	; 0x1c
    1102:	6d 8c       	ldd	r6, Y+29	; 0x1d
    1104:	7e 8c       	ldd	r7, Y+30	; 0x1e
    1106:	60 93 75 01 	sts	0x0175, r22	; 0x800175 <baseSideLength>
    110a:	70 93 76 01 	sts	0x0176, r23	; 0x800176 <baseSideLength+0x1>
    110e:	80 93 77 01 	sts	0x0177, r24	; 0x800177 <baseSideLength+0x2>
    1112:	90 93 78 01 	sts	0x0178, r25	; 0x800178 <baseSideLength+0x3>
    1116:	20 93 fd 01 	sts	0x01FD, r18	; 0x8001fd <platformSideLength>
    111a:	30 93 fe 01 	sts	0x01FE, r19	; 0x8001fe <platformSideLength+0x1>
    111e:	40 93 ff 01 	sts	0x01FF, r20	; 0x8001ff <platformSideLength+0x2>
    1122:	50 93 00 02 	sts	0x0200, r21	; 0x800200 <platformSideLength+0x3>
    1126:	e0 92 55 02 	sts	0x0255, r14	; 0x800255 <rodLength>
    112a:	f0 92 56 02 	sts	0x0256, r15	; 0x800256 <rodLength+0x1>
    112e:	00 93 57 02 	sts	0x0257, r16	; 0x800257 <rodLength+0x2>
    1132:	10 93 58 02 	sts	0x0258, r17	; 0x800258 <rodLength+0x3>
    1136:	a0 92 51 01 	sts	0x0151, r10	; 0x800151 <hornLength>
    113a:	b0 92 52 01 	sts	0x0152, r11	; 0x800152 <hornLength+0x1>
    113e:	c0 92 53 01 	sts	0x0153, r12	; 0x800153 <hornLength+0x2>
    1142:	d0 92 54 01 	sts	0x0154, r13	; 0x800154 <hornLength+0x3>
    1146:	89 81       	ldd	r24, Y+1	; 0x01
    1148:	9a 81       	ldd	r25, Y+2	; 0x02
    114a:	ab 81       	ldd	r26, Y+3	; 0x03
    114c:	bc 81       	ldd	r27, Y+4	; 0x04
    114e:	80 93 55 01 	sts	0x0155, r24	; 0x800155 <basePositionKoeff>
    1152:	90 93 56 01 	sts	0x0156, r25	; 0x800156 <basePositionKoeff+0x1>
    1156:	a0 93 57 01 	sts	0x0157, r26	; 0x800157 <basePositionKoeff+0x2>
    115a:	b0 93 58 01 	sts	0x0158, r27	; 0x800158 <basePositionKoeff+0x3>
    115e:	40 92 59 01 	sts	0x0159, r4	; 0x800159 <platPositionKoeff>
    1162:	50 92 5a 01 	sts	0x015A, r5	; 0x80015a <platPositionKoeff+0x1>
    1166:	60 92 5b 01 	sts	0x015B, r6	; 0x80015b <platPositionKoeff+0x2>
    116a:	70 92 5c 01 	sts	0x015C, r7	; 0x80015c <platPositionKoeff+0x3>
    116e:	92 de       	rcall	.-732    	; 0xe94 <calcTriangleCorner>
    1170:	51 db       	rcall	.-2398   	; 0x814 <calcMotorPositions>
    1172:	0f d8       	rcall	.-4066   	; 0x192 <calcAnchorPositions>
    1174:	0f 90       	pop	r0
    1176:	0f 90       	pop	r0
    1178:	0f 90       	pop	r0
    117a:	0f 90       	pop	r0
    117c:	df 91       	pop	r29
    117e:	cf 91       	pop	r28
    1180:	1f 91       	pop	r17
    1182:	0f 91       	pop	r16
    1184:	ff 90       	pop	r15
    1186:	ef 90       	pop	r14
    1188:	df 90       	pop	r13
    118a:	cf 90       	pop	r12
    118c:	bf 90       	pop	r11
    118e:	af 90       	pop	r10
    1190:	9f 90       	pop	r9
    1192:	8f 90       	pop	r8
    1194:	7f 90       	pop	r7
    1196:	6f 90       	pop	r6
    1198:	5f 90       	pop	r5
    119a:	4f 90       	pop	r4
    119c:	0c 94 9a 00 	jmp	0x134	; 0x134 <calcHornAngle>

000011a0 <fK>:
    11a0:	4f 92       	push	r4
    11a2:	5f 92       	push	r5
    11a4:	6f 92       	push	r6
    11a6:	7f 92       	push	r7
    11a8:	8f 92       	push	r8
    11aa:	9f 92       	push	r9
    11ac:	af 92       	push	r10
    11ae:	bf 92       	push	r11
    11b0:	cf 92       	push	r12
    11b2:	df 92       	push	r13
    11b4:	ef 92       	push	r14
    11b6:	ff 92       	push	r15
    11b8:	0f 93       	push	r16
    11ba:	1f 93       	push	r17
    11bc:	cf 93       	push	r28
    11be:	df 93       	push	r29
    11c0:	cd b7       	in	r28, 0x3d	; 61
    11c2:	de b7       	in	r29, 0x3e	; 62
    11c4:	2c 97       	sbiw	r28, 0x0c	; 12
    11c6:	0f b6       	in	r0, 0x3f	; 63
    11c8:	f8 94       	cli
    11ca:	de bf       	out	0x3e, r29	; 62
    11cc:	0f be       	out	0x3f, r0	; 63
    11ce:	cd bf       	out	0x3d, r28	; 61
    11d0:	2b 01       	movw	r4, r22
    11d2:	3c 01       	movw	r6, r24
    11d4:	a9 82       	std	Y+1, r10	; 0x01
    11d6:	ba 82       	std	Y+2, r11	; 0x02
    11d8:	cb 82       	std	Y+3, r12	; 0x03
    11da:	dc 82       	std	Y+4, r13	; 0x04
    11dc:	ed 82       	std	Y+5, r14	; 0x05
    11de:	fe 82       	std	Y+6, r15	; 0x06
    11e0:	0f 83       	std	Y+7, r16	; 0x07
    11e2:	18 87       	std	Y+8, r17	; 0x08
    11e4:	6f 8d       	ldd	r22, Y+31	; 0x1f
    11e6:	78 a1       	ldd	r23, Y+32	; 0x20
    11e8:	89 a1       	ldd	r24, Y+33	; 0x21
    11ea:	9a a1       	ldd	r25, Y+34	; 0x22
    11ec:	0e 94 f4 14 	call	0x29e8	; 0x29e8 <cos>
    11f0:	6b 01       	movw	r12, r22
    11f2:	7c 01       	movw	r14, r24
    11f4:	6f 8d       	ldd	r22, Y+31	; 0x1f
    11f6:	78 a1       	ldd	r23, Y+32	; 0x20
    11f8:	89 a1       	ldd	r24, Y+33	; 0x21
    11fa:	9a a1       	ldd	r25, Y+34	; 0x22
    11fc:	0e 94 d0 16 	call	0x2da0	; 0x2da0 <sin>
    1200:	4b 01       	movw	r8, r22
    1202:	5c 01       	movw	r10, r24
    1204:	29 81       	ldd	r18, Y+1	; 0x01
    1206:	3a 81       	ldd	r19, Y+2	; 0x02
    1208:	4b 81       	ldd	r20, Y+3	; 0x03
    120a:	5c 81       	ldd	r21, Y+4	; 0x04
    120c:	c7 01       	movw	r24, r14
    120e:	b6 01       	movw	r22, r12
    1210:	0e 94 6d 16 	call	0x2cda	; 0x2cda <__mulsf3>
    1214:	6b 01       	movw	r12, r22
    1216:	7c 01       	movw	r14, r24
    1218:	2d 81       	ldd	r18, Y+5	; 0x05
    121a:	3e 81       	ldd	r19, Y+6	; 0x06
    121c:	4f 81       	ldd	r20, Y+7	; 0x07
    121e:	58 85       	ldd	r21, Y+8	; 0x08
    1220:	c5 01       	movw	r24, r10
    1222:	b4 01       	movw	r22, r8
    1224:	0e 94 6d 16 	call	0x2cda	; 0x2cda <__mulsf3>
    1228:	9b 01       	movw	r18, r22
    122a:	ac 01       	movw	r20, r24
    122c:	c7 01       	movw	r24, r14
    122e:	b6 01       	movw	r22, r12
    1230:	0e 94 17 14 	call	0x282e	; 0x282e <__addsf3>
    1234:	6b 01       	movw	r12, r22
    1236:	7c 01       	movw	r14, r24
    1238:	a3 01       	movw	r20, r6
    123a:	92 01       	movw	r18, r4
    123c:	c3 01       	movw	r24, r6
    123e:	b2 01       	movw	r22, r4
    1240:	0e 94 17 14 	call	0x282e	; 0x282e <__addsf3>
    1244:	9b 01       	movw	r18, r22
    1246:	ac 01       	movw	r20, r24
    1248:	c7 01       	movw	r24, r14
    124a:	b6 01       	movw	r22, r12
    124c:	0e 94 6d 16 	call	0x2cda	; 0x2cda <__mulsf3>
    1250:	2c 96       	adiw	r28, 0x0c	; 12
    1252:	0f b6       	in	r0, 0x3f	; 63
    1254:	f8 94       	cli
    1256:	de bf       	out	0x3e, r29	; 62
    1258:	0f be       	out	0x3f, r0	; 63
    125a:	cd bf       	out	0x3d, r28	; 61
    125c:	df 91       	pop	r29
    125e:	cf 91       	pop	r28
    1260:	1f 91       	pop	r17
    1262:	0f 91       	pop	r16
    1264:	ff 90       	pop	r15
    1266:	ef 90       	pop	r14
    1268:	df 90       	pop	r13
    126a:	cf 90       	pop	r12
    126c:	bf 90       	pop	r11
    126e:	af 90       	pop	r10
    1270:	9f 90       	pop	r9
    1272:	8f 90       	pop	r8
    1274:	7f 90       	pop	r7
    1276:	6f 90       	pop	r6
    1278:	5f 90       	pop	r5
    127a:	4f 90       	pop	r4
    127c:	08 95       	ret

0000127e <gK>:
    127e:	4f 92       	push	r4
    1280:	5f 92       	push	r5
    1282:	6f 92       	push	r6
    1284:	7f 92       	push	r7
    1286:	8f 92       	push	r8
    1288:	9f 92       	push	r9
    128a:	af 92       	push	r10
    128c:	bf 92       	push	r11
    128e:	cf 92       	push	r12
    1290:	df 92       	push	r13
    1292:	ef 92       	push	r14
    1294:	ff 92       	push	r15
    1296:	0f 93       	push	r16
    1298:	1f 93       	push	r17
    129a:	cf 93       	push	r28
    129c:	df 93       	push	r29
    129e:	cd b7       	in	r28, 0x3d	; 61
    12a0:	de b7       	in	r29, 0x3e	; 62
    12a2:	2c 97       	sbiw	r28, 0x0c	; 12
    12a4:	0f b6       	in	r0, 0x3f	; 63
    12a6:	f8 94       	cli
    12a8:	de bf       	out	0x3e, r29	; 62
    12aa:	0f be       	out	0x3f, r0	; 63
    12ac:	cd bf       	out	0x3d, r28	; 61
    12ae:	2b 01       	movw	r4, r22
    12b0:	3c 01       	movw	r6, r24
    12b2:	9a 2c       	mov	r9, r10
    12b4:	a9 82       	std	Y+1, r10	; 0x01
    12b6:	ab 2c       	mov	r10, r11
    12b8:	ba 82       	std	Y+2, r11	; 0x02
    12ba:	bc 2c       	mov	r11, r12
    12bc:	cb 82       	std	Y+3, r12	; 0x03
    12be:	dc 82       	std	Y+4, r13	; 0x04
    12c0:	be 2d       	mov	r27, r14
    12c2:	ed 82       	std	Y+5, r14	; 0x05
    12c4:	af 2d       	mov	r26, r15
    12c6:	fe 82       	std	Y+6, r15	; 0x06
    12c8:	f0 2f       	mov	r31, r16
    12ca:	0f 83       	std	Y+7, r16	; 0x07
    12cc:	e1 2f       	mov	r30, r17
    12ce:	18 87       	std	Y+8, r17	; 0x08
    12d0:	62 2f       	mov	r22, r18
    12d2:	29 87       	std	Y+9, r18	; 0x09
    12d4:	73 2f       	mov	r23, r19
    12d6:	3a 87       	std	Y+10, r19	; 0x0a
    12d8:	84 2f       	mov	r24, r20
    12da:	4b 87       	std	Y+11, r20	; 0x0b
    12dc:	95 2f       	mov	r25, r21
    12de:	5c 87       	std	Y+12, r21	; 0x0c
    12e0:	e9 2c       	mov	r14, r9
    12e2:	fa 2c       	mov	r15, r10
    12e4:	0b 2d       	mov	r16, r11
    12e6:	1d 2d       	mov	r17, r13
    12e8:	2b 2f       	mov	r18, r27
    12ea:	3a 2f       	mov	r19, r26
    12ec:	4f 2f       	mov	r20, r31
    12ee:	5e 2f       	mov	r21, r30
    12f0:	96 d6       	rcall	.+3372   	; 0x201e <magnitude>
    12f2:	4b 01       	movw	r8, r22
    12f4:	5c 01       	movw	r10, r24
    12f6:	e9 80       	ldd	r14, Y+1	; 0x01
    12f8:	fa 80       	ldd	r15, Y+2	; 0x02
    12fa:	0b 81       	ldd	r16, Y+3	; 0x03
    12fc:	1c 81       	ldd	r17, Y+4	; 0x04
    12fe:	2d 81       	ldd	r18, Y+5	; 0x05
    1300:	3e 81       	ldd	r19, Y+6	; 0x06
    1302:	4f 81       	ldd	r20, Y+7	; 0x07
    1304:	58 85       	ldd	r21, Y+8	; 0x08
    1306:	69 85       	ldd	r22, Y+9	; 0x09
    1308:	7a 85       	ldd	r23, Y+10	; 0x0a
    130a:	8b 85       	ldd	r24, Y+11	; 0x0b
    130c:	9c 85       	ldd	r25, Y+12	; 0x0c
    130e:	87 d6       	rcall	.+3342   	; 0x201e <magnitude>
    1310:	9b 01       	movw	r18, r22
    1312:	ac 01       	movw	r20, r24
    1314:	c5 01       	movw	r24, r10
    1316:	b4 01       	movw	r22, r8
    1318:	0e 94 6d 16 	call	0x2cda	; 0x2cda <__mulsf3>
    131c:	6b 01       	movw	r12, r22
    131e:	7c 01       	movw	r14, r24
    1320:	2f 8d       	ldd	r18, Y+31	; 0x1f
    1322:	38 a1       	ldd	r19, Y+32	; 0x20
    1324:	49 a1       	ldd	r20, Y+33	; 0x21
    1326:	5a a1       	ldd	r21, Y+34	; 0x22
    1328:	ca 01       	movw	r24, r20
    132a:	b9 01       	movw	r22, r18
    132c:	0e 94 6d 16 	call	0x2cda	; 0x2cda <__mulsf3>
    1330:	4b 01       	movw	r8, r22
    1332:	5c 01       	movw	r10, r24
    1334:	a3 01       	movw	r20, r6
    1336:	92 01       	movw	r18, r4
    1338:	c3 01       	movw	r24, r6
    133a:	b2 01       	movw	r22, r4
    133c:	0e 94 6d 16 	call	0x2cda	; 0x2cda <__mulsf3>
    1340:	9b 01       	movw	r18, r22
    1342:	ac 01       	movw	r20, r24
    1344:	c5 01       	movw	r24, r10
    1346:	b4 01       	movw	r22, r8
    1348:	0e 94 16 14 	call	0x282c	; 0x282c <__subsf3>
    134c:	9b 01       	movw	r18, r22
    134e:	ac 01       	movw	r20, r24
    1350:	c7 01       	movw	r24, r14
    1352:	b6 01       	movw	r22, r12
    1354:	0e 94 16 14 	call	0x282c	; 0x282c <__subsf3>
    1358:	2c 96       	adiw	r28, 0x0c	; 12
    135a:	0f b6       	in	r0, 0x3f	; 63
    135c:	f8 94       	cli
    135e:	de bf       	out	0x3e, r29	; 62
    1360:	0f be       	out	0x3f, r0	; 63
    1362:	cd bf       	out	0x3d, r28	; 61
    1364:	df 91       	pop	r29
    1366:	cf 91       	pop	r28
    1368:	1f 91       	pop	r17
    136a:	0f 91       	pop	r16
    136c:	ff 90       	pop	r15
    136e:	ef 90       	pop	r14
    1370:	df 90       	pop	r13
    1372:	cf 90       	pop	r12
    1374:	bf 90       	pop	r11
    1376:	af 90       	pop	r10
    1378:	9f 90       	pop	r9
    137a:	8f 90       	pop	r8
    137c:	7f 90       	pop	r7
    137e:	6f 90       	pop	r6
    1380:	5f 90       	pop	r5
    1382:	4f 90       	pop	r4
    1384:	08 95       	ret

00001386 <alphaK>:
    1386:	4f 92       	push	r4
    1388:	5f 92       	push	r5
    138a:	6f 92       	push	r6
    138c:	7f 92       	push	r7
    138e:	8f 92       	push	r8
    1390:	9f 92       	push	r9
    1392:	af 92       	push	r10
    1394:	bf 92       	push	r11
    1396:	cf 92       	push	r12
    1398:	df 92       	push	r13
    139a:	ef 92       	push	r14
    139c:	ff 92       	push	r15
    139e:	0f 93       	push	r16
    13a0:	1f 93       	push	r17
    13a2:	cf 93       	push	r28
    13a4:	df 93       	push	r29
    13a6:	00 d0       	rcall	.+0      	; 0x13a8 <alphaK+0x22>
    13a8:	00 d0       	rcall	.+0      	; 0x13aa <alphaK+0x24>
    13aa:	cd b7       	in	r28, 0x3d	; 61
    13ac:	de b7       	in	r29, 0x3e	; 62
    13ae:	2b 01       	movw	r4, r22
    13b0:	3c 01       	movw	r6, r24
    13b2:	49 01       	movw	r8, r18
    13b4:	5a 01       	movw	r10, r20
    13b6:	e9 82       	std	Y+1, r14	; 0x01
    13b8:	fa 82       	std	Y+2, r15	; 0x02
    13ba:	0b 83       	std	Y+3, r16	; 0x03
    13bc:	1c 83       	std	Y+4, r17	; 0x04
    13be:	9b 01       	movw	r18, r22
    13c0:	ac 01       	movw	r20, r24
    13c2:	0e 94 6d 16 	call	0x2cda	; 0x2cda <__mulsf3>
    13c6:	6b 01       	movw	r12, r22
    13c8:	7c 01       	movw	r14, r24
    13ca:	a5 01       	movw	r20, r10
    13cc:	94 01       	movw	r18, r8
    13ce:	c5 01       	movw	r24, r10
    13d0:	b4 01       	movw	r22, r8
    13d2:	0e 94 6d 16 	call	0x2cda	; 0x2cda <__mulsf3>
    13d6:	9b 01       	movw	r18, r22
    13d8:	ac 01       	movw	r20, r24
    13da:	c7 01       	movw	r24, r14
    13dc:	b6 01       	movw	r22, r12
    13de:	0e 94 17 14 	call	0x282e	; 0x282e <__addsf3>
    13e2:	0e 94 da 16 	call	0x2db4	; 0x2db4 <sqrt>
    13e6:	9b 01       	movw	r18, r22
    13e8:	ac 01       	movw	r20, r24
    13ea:	69 81       	ldd	r22, Y+1	; 0x01
    13ec:	7a 81       	ldd	r23, Y+2	; 0x02
    13ee:	8b 81       	ldd	r24, Y+3	; 0x03
    13f0:	9c 81       	ldd	r25, Y+4	; 0x04
    13f2:	0e 94 f7 14 	call	0x29ee	; 0x29ee <__divsf3>
    13f6:	0e 94 7b 14 	call	0x28f6	; 0x28f6 <asin>
    13fa:	6b 01       	movw	r12, r22
    13fc:	7c 01       	movw	r14, r24
    13fe:	a3 01       	movw	r20, r6
    1400:	92 01       	movw	r18, r4
    1402:	c5 01       	movw	r24, r10
    1404:	b4 01       	movw	r22, r8
    1406:	0e 94 a1 14 	call	0x2942	; 0x2942 <atan2>
    140a:	9b 01       	movw	r18, r22
    140c:	ac 01       	movw	r20, r24
    140e:	c7 01       	movw	r24, r14
    1410:	b6 01       	movw	r22, r12
    1412:	0e 94 16 14 	call	0x282c	; 0x282c <__subsf3>
    1416:	0f 90       	pop	r0
    1418:	0f 90       	pop	r0
    141a:	0f 90       	pop	r0
    141c:	0f 90       	pop	r0
    141e:	df 91       	pop	r29
    1420:	cf 91       	pop	r28
    1422:	1f 91       	pop	r17
    1424:	0f 91       	pop	r16
    1426:	ff 90       	pop	r15
    1428:	ef 90       	pop	r14
    142a:	df 90       	pop	r13
    142c:	cf 90       	pop	r12
    142e:	bf 90       	pop	r11
    1430:	af 90       	pop	r10
    1432:	9f 90       	pop	r9
    1434:	8f 90       	pop	r8
    1436:	7f 90       	pop	r7
    1438:	6f 90       	pop	r6
    143a:	5f 90       	pop	r5
    143c:	4f 90       	pop	r4
    143e:	08 95       	ret

00001440 <angle>:
    1440:	2f 92       	push	r2
    1442:	3f 92       	push	r3
    1444:	4f 92       	push	r4
    1446:	5f 92       	push	r5
    1448:	6f 92       	push	r6
    144a:	7f 92       	push	r7
    144c:	8f 92       	push	r8
    144e:	9f 92       	push	r9
    1450:	af 92       	push	r10
    1452:	bf 92       	push	r11
    1454:	cf 92       	push	r12
    1456:	df 92       	push	r13
    1458:	ef 92       	push	r14
    145a:	ff 92       	push	r15
    145c:	0f 93       	push	r16
    145e:	1f 93       	push	r17
    1460:	cf 93       	push	r28
    1462:	df 93       	push	r29
    1464:	cd b7       	in	r28, 0x3d	; 61
    1466:	de b7       	in	r29, 0x3e	; 62
    1468:	60 97       	sbiw	r28, 0x10	; 16
    146a:	0f b6       	in	r0, 0x3f	; 63
    146c:	f8 94       	cli
    146e:	de bf       	out	0x3e, r29	; 62
    1470:	0f be       	out	0x3f, r0	; 63
    1472:	cd bf       	out	0x3d, r28	; 61
    1474:	e9 82       	std	Y+1, r14	; 0x01
    1476:	fa 82       	std	Y+2, r15	; 0x02
    1478:	0b 83       	std	Y+3, r16	; 0x03
    147a:	1c 83       	std	Y+4, r17	; 0x04
    147c:	2d 83       	std	Y+5, r18	; 0x05
    147e:	3e 83       	std	Y+6, r19	; 0x06
    1480:	4f 83       	std	Y+7, r20	; 0x07
    1482:	58 87       	std	Y+8, r21	; 0x08
    1484:	69 87       	std	Y+9, r22	; 0x09
    1486:	7a 87       	std	Y+10, r23	; 0x0a
    1488:	8b 87       	std	Y+11, r24	; 0x0b
    148a:	9c 87       	std	Y+12, r25	; 0x0c
    148c:	15 01       	movw	r2, r10
    148e:	46 01       	movw	r8, r12
    1490:	19 a5       	ldd	r17, Y+41	; 0x29
    1492:	0a a5       	ldd	r16, Y+42	; 0x2a
    1494:	fb a4       	ldd	r15, Y+43	; 0x2b
    1496:	ec a4       	ldd	r14, Y+44	; 0x2c
    1498:	2d a1       	ldd	r18, Y+37	; 0x25
    149a:	3e a1       	ldd	r19, Y+38	; 0x26
    149c:	4f a1       	ldd	r20, Y+39	; 0x27
    149e:	58 a5       	ldd	r21, Y+40	; 0x28
    14a0:	ca 01       	movw	r24, r20
    14a2:	b9 01       	movw	r22, r18
    14a4:	0e 94 17 14 	call	0x282e	; 0x282e <__addsf3>
    14a8:	29 85       	ldd	r18, Y+9	; 0x09
    14aa:	3a 85       	ldd	r19, Y+10	; 0x0a
    14ac:	4b 85       	ldd	r20, Y+11	; 0x0b
    14ae:	5c 85       	ldd	r21, Y+12	; 0x0c
    14b0:	0e 94 6d 16 	call	0x2cda	; 0x2cda <__mulsf3>
    14b4:	2b 01       	movw	r4, r22
    14b6:	3c 01       	movw	r6, r24
    14b8:	ef 92       	push	r14
    14ba:	ff 92       	push	r15
    14bc:	0f 93       	push	r16
    14be:	1f 93       	push	r17
    14c0:	a9 80       	ldd	r10, Y+1	; 0x01
    14c2:	ba 80       	ldd	r11, Y+2	; 0x02
    14c4:	cb 80       	ldd	r12, Y+3	; 0x03
    14c6:	dc 80       	ldd	r13, Y+4	; 0x04
    14c8:	ed 80       	ldd	r14, Y+5	; 0x05
    14ca:	fe 80       	ldd	r15, Y+6	; 0x06
    14cc:	0f 81       	ldd	r16, Y+7	; 0x07
    14ce:	18 85       	ldd	r17, Y+8	; 0x08
    14d0:	29 85       	ldd	r18, Y+9	; 0x09
    14d2:	3a 85       	ldd	r19, Y+10	; 0x0a
    14d4:	4b 85       	ldd	r20, Y+11	; 0x0b
    14d6:	5c 85       	ldd	r21, Y+12	; 0x0c
    14d8:	6d a1       	ldd	r22, Y+37	; 0x25
    14da:	7e a1       	ldd	r23, Y+38	; 0x26
    14dc:	8f a1       	ldd	r24, Y+39	; 0x27
    14de:	98 a5       	ldd	r25, Y+40	; 0x28
    14e0:	5f de       	rcall	.-834    	; 0x11a0 <fK>
    14e2:	0f 90       	pop	r0
    14e4:	0f 90       	pop	r0
    14e6:	0f 90       	pop	r0
    14e8:	0f 90       	pop	r0
    14ea:	6d 87       	std	Y+13, r22	; 0x0d
    14ec:	7e 87       	std	Y+14, r23	; 0x0e
    14ee:	8f 87       	std	Y+15, r24	; 0x0f
    14f0:	98 8b       	std	Y+16, r25	; 0x10
    14f2:	9f 92       	push	r9
    14f4:	8f 92       	push	r8
    14f6:	3f 92       	push	r3
    14f8:	2f 92       	push	r2
    14fa:	a9 80       	ldd	r10, Y+1	; 0x01
    14fc:	ba 80       	ldd	r11, Y+2	; 0x02
    14fe:	cb 80       	ldd	r12, Y+3	; 0x03
    1500:	dc 80       	ldd	r13, Y+4	; 0x04
    1502:	ed 80       	ldd	r14, Y+5	; 0x05
    1504:	fe 80       	ldd	r15, Y+6	; 0x06
    1506:	0f 81       	ldd	r16, Y+7	; 0x07
    1508:	18 85       	ldd	r17, Y+8	; 0x08
    150a:	29 85       	ldd	r18, Y+9	; 0x09
    150c:	3a 85       	ldd	r19, Y+10	; 0x0a
    150e:	4b 85       	ldd	r20, Y+11	; 0x0b
    1510:	5c 85       	ldd	r21, Y+12	; 0x0c
    1512:	6d a1       	ldd	r22, Y+37	; 0x25
    1514:	7e a1       	ldd	r23, Y+38	; 0x26
    1516:	8f a1       	ldd	r24, Y+39	; 0x27
    1518:	98 a5       	ldd	r25, Y+40	; 0x28
    151a:	b1 de       	rcall	.-670    	; 0x127e <gK>
    151c:	7b 01       	movw	r14, r22
    151e:	8c 01       	movw	r16, r24
    1520:	2d 85       	ldd	r18, Y+13	; 0x0d
    1522:	3e 85       	ldd	r19, Y+14	; 0x0e
    1524:	4f 85       	ldd	r20, Y+15	; 0x0f
    1526:	58 89       	ldd	r21, Y+16	; 0x10
    1528:	c3 01       	movw	r24, r6
    152a:	b2 01       	movw	r22, r4
    152c:	2c df       	rcall	.-424    	; 0x1386 <alphaK>
    152e:	0f 90       	pop	r0
    1530:	0f 90       	pop	r0
    1532:	0f 90       	pop	r0
    1534:	0f 90       	pop	r0
    1536:	60 96       	adiw	r28, 0x10	; 16
    1538:	0f b6       	in	r0, 0x3f	; 63
    153a:	f8 94       	cli
    153c:	de bf       	out	0x3e, r29	; 62
    153e:	0f be       	out	0x3f, r0	; 63
    1540:	cd bf       	out	0x3d, r28	; 61
    1542:	df 91       	pop	r29
    1544:	cf 91       	pop	r28
    1546:	1f 91       	pop	r17
    1548:	0f 91       	pop	r16
    154a:	ff 90       	pop	r15
    154c:	ef 90       	pop	r14
    154e:	df 90       	pop	r13
    1550:	cf 90       	pop	r12
    1552:	bf 90       	pop	r11
    1554:	af 90       	pop	r10
    1556:	9f 90       	pop	r9
    1558:	8f 90       	pop	r8
    155a:	7f 90       	pop	r7
    155c:	6f 90       	pop	r6
    155e:	5f 90       	pop	r5
    1560:	4f 90       	pop	r4
    1562:	3f 90       	pop	r3
    1564:	2f 90       	pop	r2
    1566:	08 95       	ret

00001568 <calcEffectiveRodLength>:
    1568:	af 92       	push	r10
    156a:	bf 92       	push	r11
    156c:	cf 92       	push	r12
    156e:	df 92       	push	r13
    1570:	ef 92       	push	r14
    1572:	ff 92       	push	r15
    1574:	0f 93       	push	r16
    1576:	1f 93       	push	r17
    1578:	cf 93       	push	r28
    157a:	df 93       	push	r29
    157c:	cd b7       	in	r28, 0x3d	; 61
    157e:	de b7       	in	r29, 0x3e	; 62
    1580:	a4 97       	sbiw	r28, 0x24	; 36
    1582:	0f b6       	in	r0, 0x3f	; 63
    1584:	f8 94       	cli
    1586:	de bf       	out	0x3e, r29	; 62
    1588:	0f be       	out	0x3f, r0	; 63
    158a:	cd bf       	out	0x3d, r28	; 61
    158c:	5c 01       	movw	r10, r24
    158e:	c9 8e       	std	Y+25, r12	; 0x19
    1590:	da 8e       	std	Y+26, r13	; 0x1a
    1592:	eb 8e       	std	Y+27, r14	; 0x1b
    1594:	fc 8e       	std	Y+28, r15	; 0x1c
    1596:	0d 8f       	std	Y+29, r16	; 0x1d
    1598:	1e 8f       	std	Y+30, r17	; 0x1e
    159a:	2f 8f       	std	Y+31, r18	; 0x1f
    159c:	38 a3       	std	Y+32, r19	; 0x20
    159e:	49 a3       	std	Y+33, r20	; 0x21
    15a0:	5a a3       	std	Y+34, r21	; 0x22
    15a2:	6b a3       	std	Y+35, r22	; 0x23
    15a4:	7c a3       	std	Y+36, r23	; 0x24
    15a6:	8d b7       	in	r24, 0x3d	; 61
    15a8:	9e b7       	in	r25, 0x3e	; 62
    15aa:	40 97       	sbiw	r24, 0x10	; 16
    15ac:	0f b6       	in	r0, 0x3f	; 63
    15ae:	f8 94       	cli
    15b0:	9e bf       	out	0x3e, r25	; 62
    15b2:	0f be       	out	0x3f, r0	; 63
    15b4:	8d bf       	out	0x3d, r24	; 61
    15b6:	ad b7       	in	r26, 0x3d	; 61
    15b8:	be b7       	in	r27, 0x3e	; 62
    15ba:	11 96       	adiw	r26, 0x01	; 1
    15bc:	80 e1       	ldi	r24, 0x10	; 16
    15be:	fe 01       	movw	r30, r28
    15c0:	f1 96       	adiw	r30, 0x31	; 49
    15c2:	01 90       	ld	r0, Z+
    15c4:	0d 92       	st	X+, r0
    15c6:	8a 95       	dec	r24
    15c8:	e1 f7       	brne	.-8      	; 0x15c2 <calcEffectiveRodLength+0x5a>
    15ca:	2e 96       	adiw	r28, 0x0e	; 14
    15cc:	cf ac       	ldd	r12, Y+63	; 0x3f
    15ce:	2e 97       	sbiw	r28, 0x0e	; 14
    15d0:	2f 96       	adiw	r28, 0x0f	; 15
    15d2:	df ac       	ldd	r13, Y+63	; 0x3f
    15d4:	2f 97       	sbiw	r28, 0x0f	; 15
    15d6:	60 96       	adiw	r28, 0x10	; 16
    15d8:	ef ac       	ldd	r14, Y+63	; 0x3f
    15da:	60 97       	sbiw	r28, 0x10	; 16
    15dc:	61 96       	adiw	r28, 0x11	; 17
    15de:	ff ac       	ldd	r15, Y+63	; 0x3f
    15e0:	61 97       	sbiw	r28, 0x11	; 17
    15e2:	62 96       	adiw	r28, 0x12	; 18
    15e4:	0f ad       	ldd	r16, Y+63	; 0x3f
    15e6:	62 97       	sbiw	r28, 0x12	; 18
    15e8:	63 96       	adiw	r28, 0x13	; 19
    15ea:	1f ad       	ldd	r17, Y+63	; 0x3f
    15ec:	63 97       	sbiw	r28, 0x13	; 19
    15ee:	64 96       	adiw	r28, 0x14	; 20
    15f0:	2f ad       	ldd	r18, Y+63	; 0x3f
    15f2:	64 97       	sbiw	r28, 0x14	; 20
    15f4:	65 96       	adiw	r28, 0x15	; 21
    15f6:	3f ad       	ldd	r19, Y+63	; 0x3f
    15f8:	65 97       	sbiw	r28, 0x15	; 21
    15fa:	66 96       	adiw	r28, 0x16	; 22
    15fc:	4f ad       	ldd	r20, Y+63	; 0x3f
    15fe:	66 97       	sbiw	r28, 0x16	; 22
    1600:	67 96       	adiw	r28, 0x17	; 23
    1602:	5f ad       	ldd	r21, Y+63	; 0x3f
    1604:	67 97       	sbiw	r28, 0x17	; 23
    1606:	68 96       	adiw	r28, 0x18	; 24
    1608:	6f ad       	ldd	r22, Y+63	; 0x3f
    160a:	68 97       	sbiw	r28, 0x18	; 24
    160c:	69 96       	adiw	r28, 0x19	; 25
    160e:	7f ad       	ldd	r23, Y+63	; 0x3f
    1610:	69 97       	sbiw	r28, 0x19	; 25
    1612:	ce 01       	movw	r24, r28
    1614:	0d 96       	adiw	r24, 0x0d	; 13
    1616:	65 d5       	rcall	.+2762   	; 0x20e2 <rotate>
    1618:	8d b7       	in	r24, 0x3d	; 61
    161a:	9e b7       	in	r25, 0x3e	; 62
    161c:	0c 97       	sbiw	r24, 0x0c	; 12
    161e:	0f b6       	in	r0, 0x3f	; 63
    1620:	f8 94       	cli
    1622:	9e bf       	out	0x3e, r25	; 62
    1624:	0f be       	out	0x3f, r0	; 63
    1626:	8d bf       	out	0x3d, r24	; 61
    1628:	ad b7       	in	r26, 0x3d	; 61
    162a:	be b7       	in	r27, 0x3e	; 62
    162c:	11 96       	adiw	r26, 0x01	; 1
    162e:	8c e0       	ldi	r24, 0x0C	; 12
    1630:	fe 01       	movw	r30, r28
    1632:	3d 96       	adiw	r30, 0x0d	; 13
    1634:	01 90       	ld	r0, Z+
    1636:	0d 92       	st	X+, r0
    1638:	8a 95       	dec	r24
    163a:	e1 f7       	brne	.-8      	; 0x1634 <calcEffectiveRodLength+0xcc>
    163c:	c9 8c       	ldd	r12, Y+25	; 0x19
    163e:	da 8c       	ldd	r13, Y+26	; 0x1a
    1640:	eb 8c       	ldd	r14, Y+27	; 0x1b
    1642:	fc 8c       	ldd	r15, Y+28	; 0x1c
    1644:	0d 8d       	ldd	r16, Y+29	; 0x1d
    1646:	1e 8d       	ldd	r17, Y+30	; 0x1e
    1648:	2f 8d       	ldd	r18, Y+31	; 0x1f
    164a:	38 a1       	ldd	r19, Y+32	; 0x20
    164c:	49 a1       	ldd	r20, Y+33	; 0x21
    164e:	5a a1       	ldd	r21, Y+34	; 0x22
    1650:	6b a1       	ldd	r22, Y+35	; 0x23
    1652:	7c a1       	ldd	r23, Y+36	; 0x24
    1654:	ce 01       	movw	r24, r28
    1656:	01 96       	adiw	r24, 0x01	; 1
    1658:	18 d4       	rcall	.+2096   	; 0x1e8a <add>
    165a:	8d b7       	in	r24, 0x3d	; 61
    165c:	9e b7       	in	r25, 0x3e	; 62
    165e:	0c 97       	sbiw	r24, 0x0c	; 12
    1660:	0f b6       	in	r0, 0x3f	; 63
    1662:	f8 94       	cli
    1664:	9e bf       	out	0x3e, r25	; 62
    1666:	0f be       	out	0x3f, r0	; 63
    1668:	8d bf       	out	0x3d, r24	; 61
    166a:	ad b7       	in	r26, 0x3d	; 61
    166c:	be b7       	in	r27, 0x3e	; 62
    166e:	11 96       	adiw	r26, 0x01	; 1
    1670:	8c e0       	ldi	r24, 0x0C	; 12
    1672:	fe 01       	movw	r30, r28
    1674:	ef 5b       	subi	r30, 0xBF	; 191
    1676:	ff 4f       	sbci	r31, 0xFF	; 255
    1678:	01 90       	ld	r0, Z+
    167a:	0d 92       	st	X+, r0
    167c:	8a 95       	dec	r24
    167e:	e1 f7       	brne	.-8      	; 0x1678 <calcEffectiveRodLength+0x110>
    1680:	c9 80       	ldd	r12, Y+1	; 0x01
    1682:	da 80       	ldd	r13, Y+2	; 0x02
    1684:	eb 80       	ldd	r14, Y+3	; 0x03
    1686:	fc 80       	ldd	r15, Y+4	; 0x04
    1688:	0d 81       	ldd	r16, Y+5	; 0x05
    168a:	1e 81       	ldd	r17, Y+6	; 0x06
    168c:	2f 81       	ldd	r18, Y+7	; 0x07
    168e:	38 85       	ldd	r19, Y+8	; 0x08
    1690:	49 85       	ldd	r20, Y+9	; 0x09
    1692:	5a 85       	ldd	r21, Y+10	; 0x0a
    1694:	6b 85       	ldd	r22, Y+11	; 0x0b
    1696:	7c 85       	ldd	r23, Y+12	; 0x0c
    1698:	c5 01       	movw	r24, r10
    169a:	5c d4       	rcall	.+2232   	; 0x1f54 <subtract>
    169c:	0f b6       	in	r0, 0x3f	; 63
    169e:	f8 94       	cli
    16a0:	de bf       	out	0x3e, r29	; 62
    16a2:	0f be       	out	0x3f, r0	; 63
    16a4:	cd bf       	out	0x3d, r28	; 61
    16a6:	c5 01       	movw	r24, r10
    16a8:	a4 96       	adiw	r28, 0x24	; 36
    16aa:	0f b6       	in	r0, 0x3f	; 63
    16ac:	f8 94       	cli
    16ae:	de bf       	out	0x3e, r29	; 62
    16b0:	0f be       	out	0x3f, r0	; 63
    16b2:	cd bf       	out	0x3d, r28	; 61
    16b4:	df 91       	pop	r29
    16b6:	cf 91       	pop	r28
    16b8:	1f 91       	pop	r17
    16ba:	0f 91       	pop	r16
    16bc:	ff 90       	pop	r15
    16be:	ef 90       	pop	r14
    16c0:	df 90       	pop	r13
    16c2:	cf 90       	pop	r12
    16c4:	bf 90       	pop	r11
    16c6:	af 90       	pop	r10
    16c8:	08 95       	ret

000016ca <calcMotorAngles>:
    16ca:	3f 92       	push	r3
    16cc:	4f 92       	push	r4
    16ce:	5f 92       	push	r5
    16d0:	6f 92       	push	r6
    16d2:	7f 92       	push	r7
    16d4:	8f 92       	push	r8
    16d6:	9f 92       	push	r9
    16d8:	af 92       	push	r10
    16da:	bf 92       	push	r11
    16dc:	cf 92       	push	r12
    16de:	df 92       	push	r13
    16e0:	ef 92       	push	r14
    16e2:	ff 92       	push	r15
    16e4:	0f 93       	push	r16
    16e6:	1f 93       	push	r17
    16e8:	cf 93       	push	r28
    16ea:	df 93       	push	r29
    16ec:	cd b7       	in	r28, 0x3d	; 61
    16ee:	de b7       	in	r29, 0x3e	; 62
    16f0:	68 97       	sbiw	r28, 0x18	; 24
    16f2:	0f b6       	in	r0, 0x3f	; 63
    16f4:	f8 94       	cli
    16f6:	de bf       	out	0x3e, r29	; 62
    16f8:	0f be       	out	0x3f, r0	; 63
    16fa:	cd bf       	out	0x3d, r28	; 61
    16fc:	ed 86       	std	Y+13, r14	; 0x0d
    16fe:	fe 86       	std	Y+14, r15	; 0x0e
    1700:	0f 87       	std	Y+15, r16	; 0x0f
    1702:	18 8b       	std	Y+16, r17	; 0x10
    1704:	29 8b       	std	Y+17, r18	; 0x11
    1706:	3a 8b       	std	Y+18, r19	; 0x12
    1708:	4b 8b       	std	Y+19, r20	; 0x13
    170a:	5c 8b       	std	Y+20, r21	; 0x14
    170c:	6d 8b       	std	Y+21, r22	; 0x15
    170e:	7e 8b       	std	Y+22, r23	; 0x16
    1710:	8f 8b       	std	Y+23, r24	; 0x17
    1712:	98 8f       	std	Y+24, r25	; 0x18
    1714:	8d e5       	ldi	r24, 0x5D	; 93
    1716:	88 2e       	mov	r8, r24
    1718:	81 e0       	ldi	r24, 0x01	; 1
    171a:	98 2e       	mov	r9, r24
    171c:	90 e1       	ldi	r25, 0x10	; 16
    171e:	49 2e       	mov	r4, r25
    1720:	91 e0       	ldi	r25, 0x01	; 1
    1722:	59 2e       	mov	r5, r25
    1724:	61 2c       	mov	r6, r1
    1726:	71 2c       	mov	r7, r1
    1728:	2c e0       	ldi	r18, 0x0C	; 12
    172a:	32 2e       	mov	r3, r18
    172c:	36 9c       	mul	r3, r6
    172e:	c0 01       	movw	r24, r0
    1730:	37 9c       	mul	r3, r7
    1732:	90 0d       	add	r25, r0
    1734:	11 24       	eor	r1, r1
    1736:	fc 01       	movw	r30, r24
    1738:	e3 5f       	subi	r30, 0xF3	; 243
    173a:	fd 4f       	sbci	r31, 0xFD	; 253
    173c:	2d b7       	in	r18, 0x3d	; 61
    173e:	3e b7       	in	r19, 0x3e	; 62
    1740:	2c 50       	subi	r18, 0x0C	; 12
    1742:	31 09       	sbc	r19, r1
    1744:	0f b6       	in	r0, 0x3f	; 63
    1746:	f8 94       	cli
    1748:	3e bf       	out	0x3e, r19	; 62
    174a:	0f be       	out	0x3f, r0	; 63
    174c:	2d bf       	out	0x3d, r18	; 61
    174e:	ad b7       	in	r26, 0x3d	; 61
    1750:	be b7       	in	r27, 0x3e	; 62
    1752:	11 96       	adiw	r26, 0x01	; 1
    1754:	23 2d       	mov	r18, r3
    1756:	01 90       	ld	r0, Z+
    1758:	0d 92       	st	X+, r0
    175a:	2a 95       	dec	r18
    175c:	e1 f7       	brne	.-8      	; 0x1756 <calcMotorAngles+0x8c>
    175e:	fc 01       	movw	r30, r24
    1760:	e3 56       	subi	r30, 0x63	; 99
    1762:	fe 4f       	sbci	r31, 0xFE	; 254
    1764:	4d b7       	in	r20, 0x3d	; 61
    1766:	5e b7       	in	r21, 0x3e	; 62
    1768:	4c 50       	subi	r20, 0x0C	; 12
    176a:	51 09       	sbc	r21, r1
    176c:	0f b6       	in	r0, 0x3f	; 63
    176e:	f8 94       	cli
    1770:	5e bf       	out	0x3e, r21	; 62
    1772:	0f be       	out	0x3f, r0	; 63
    1774:	4d bf       	out	0x3d, r20	; 61
    1776:	ad b7       	in	r26, 0x3d	; 61
    1778:	be b7       	in	r27, 0x3e	; 62
    177a:	11 96       	adiw	r26, 0x01	; 1
    177c:	83 2d       	mov	r24, r3
    177e:	01 90       	ld	r0, Z+
    1780:	0d 92       	st	X+, r0
    1782:	8a 95       	dec	r24
    1784:	e1 f7       	brne	.-8      	; 0x177e <calcMotorAngles+0xb4>
    1786:	8d b7       	in	r24, 0x3d	; 61
    1788:	9e b7       	in	r25, 0x3e	; 62
    178a:	40 97       	sbiw	r24, 0x10	; 16
    178c:	0f b6       	in	r0, 0x3f	; 63
    178e:	f8 94       	cli
    1790:	9e bf       	out	0x3e, r25	; 62
    1792:	0f be       	out	0x3f, r0	; 63
    1794:	8d bf       	out	0x3d, r24	; 61
    1796:	ad b7       	in	r26, 0x3d	; 61
    1798:	be b7       	in	r27, 0x3e	; 62
    179a:	11 96       	adiw	r26, 0x01	; 1
    179c:	80 e1       	ldi	r24, 0x10	; 16
    179e:	fe 01       	movw	r30, r28
    17a0:	bc 96       	adiw	r30, 0x2c	; 44
    17a2:	01 90       	ld	r0, Z+
    17a4:	0d 92       	st	X+, r0
    17a6:	8a 95       	dec	r24
    17a8:	e1 f7       	brne	.-8      	; 0x17a2 <calcMotorAngles+0xd8>
    17aa:	cd 84       	ldd	r12, Y+13	; 0x0d
    17ac:	de 84       	ldd	r13, Y+14	; 0x0e
    17ae:	ef 84       	ldd	r14, Y+15	; 0x0f
    17b0:	f8 88       	ldd	r15, Y+16	; 0x10
    17b2:	09 89       	ldd	r16, Y+17	; 0x11
    17b4:	1a 89       	ldd	r17, Y+18	; 0x12
    17b6:	2b 89       	ldd	r18, Y+19	; 0x13
    17b8:	3c 89       	ldd	r19, Y+20	; 0x14
    17ba:	4d 89       	ldd	r20, Y+21	; 0x15
    17bc:	5e 89       	ldd	r21, Y+22	; 0x16
    17be:	6f 89       	ldd	r22, Y+23	; 0x17
    17c0:	78 8d       	ldd	r23, Y+24	; 0x18
    17c2:	ce 01       	movw	r24, r28
    17c4:	01 96       	adiw	r24, 0x01	; 1
    17c6:	d0 de       	rcall	.-608    	; 0x1568 <calcEffectiveRodLength>
    17c8:	f4 01       	movw	r30, r8
    17ca:	80 81       	ld	r24, Z
    17cc:	91 81       	ldd	r25, Z+1	; 0x01
    17ce:	22 81       	ldd	r18, Z+2	; 0x02
    17d0:	33 81       	ldd	r19, Z+3	; 0x03
    17d2:	f4 e0       	ldi	r31, 0x04	; 4
    17d4:	8f 0e       	add	r8, r31
    17d6:	91 1c       	adc	r9, r1
    17d8:	0f b6       	in	r0, 0x3f	; 63
    17da:	f8 94       	cli
    17dc:	de bf       	out	0x3e, r29	; 62
    17de:	0f be       	out	0x3f, r0	; 63
    17e0:	cd bf       	out	0x3d, r28	; 61
    17e2:	a0 90 55 02 	lds	r10, 0x0255	; 0x800255 <rodLength>
    17e6:	b0 90 56 02 	lds	r11, 0x0256	; 0x800256 <rodLength+0x1>
    17ea:	c0 90 57 02 	lds	r12, 0x0257	; 0x800257 <rodLength+0x2>
    17ee:	d0 90 58 02 	lds	r13, 0x0258	; 0x800258 <rodLength+0x3>
    17f2:	3f 93       	push	r19
    17f4:	2f 93       	push	r18
    17f6:	9f 93       	push	r25
    17f8:	8f 93       	push	r24
    17fa:	80 91 54 01 	lds	r24, 0x0154	; 0x800154 <hornLength+0x3>
    17fe:	8f 93       	push	r24
    1800:	80 91 53 01 	lds	r24, 0x0153	; 0x800153 <hornLength+0x2>
    1804:	8f 93       	push	r24
    1806:	80 91 52 01 	lds	r24, 0x0152	; 0x800152 <hornLength+0x1>
    180a:	8f 93       	push	r24
    180c:	80 91 51 01 	lds	r24, 0x0151	; 0x800151 <hornLength>
    1810:	8f 93       	push	r24
    1812:	e9 80       	ldd	r14, Y+1	; 0x01
    1814:	fa 80       	ldd	r15, Y+2	; 0x02
    1816:	0b 81       	ldd	r16, Y+3	; 0x03
    1818:	1c 81       	ldd	r17, Y+4	; 0x04
    181a:	2d 81       	ldd	r18, Y+5	; 0x05
    181c:	3e 81       	ldd	r19, Y+6	; 0x06
    181e:	4f 81       	ldd	r20, Y+7	; 0x07
    1820:	58 85       	ldd	r21, Y+8	; 0x08
    1822:	69 85       	ldd	r22, Y+9	; 0x09
    1824:	7a 85       	ldd	r23, Y+10	; 0x0a
    1826:	8b 85       	ldd	r24, Y+11	; 0x0b
    1828:	9c 85       	ldd	r25, Y+12	; 0x0c
    182a:	0a de       	rcall	.-1004   	; 0x1440 <angle>
    182c:	f2 01       	movw	r30, r4
    182e:	61 93       	st	Z+, r22
    1830:	71 93       	st	Z+, r23
    1832:	81 93       	st	Z+, r24
    1834:	91 93       	st	Z+, r25
    1836:	2f 01       	movw	r4, r30
    1838:	ff ef       	ldi	r31, 0xFF	; 255
    183a:	6f 1a       	sub	r6, r31
    183c:	7f 0a       	sbc	r7, r31
    183e:	0f b6       	in	r0, 0x3f	; 63
    1840:	f8 94       	cli
    1842:	de bf       	out	0x3e, r29	; 62
    1844:	0f be       	out	0x3f, r0	; 63
    1846:	cd bf       	out	0x3d, r28	; 61
    1848:	36 e0       	ldi	r19, 0x06	; 6
    184a:	63 16       	cp	r6, r19
    184c:	71 04       	cpc	r7, r1
    184e:	09 f0       	breq	.+2      	; 0x1852 <calcMotorAngles+0x188>
    1850:	6d cf       	rjmp	.-294    	; 0x172c <calcMotorAngles+0x62>
    1852:	80 e1       	ldi	r24, 0x10	; 16
    1854:	91 e0       	ldi	r25, 0x01	; 1
    1856:	68 96       	adiw	r28, 0x18	; 24
    1858:	0f b6       	in	r0, 0x3f	; 63
    185a:	f8 94       	cli
    185c:	de bf       	out	0x3e, r29	; 62
    185e:	0f be       	out	0x3f, r0	; 63
    1860:	cd bf       	out	0x3d, r28	; 61
    1862:	df 91       	pop	r29
    1864:	cf 91       	pop	r28
    1866:	1f 91       	pop	r17
    1868:	0f 91       	pop	r16
    186a:	ff 90       	pop	r15
    186c:	ef 90       	pop	r14
    186e:	df 90       	pop	r13
    1870:	cf 90       	pop	r12
    1872:	bf 90       	pop	r11
    1874:	af 90       	pop	r10
    1876:	9f 90       	pop	r9
    1878:	8f 90       	pop	r8
    187a:	7f 90       	pop	r7
    187c:	6f 90       	pop	r6
    187e:	5f 90       	pop	r5
    1880:	4f 90       	pop	r4
    1882:	3f 90       	pop	r3
    1884:	08 95       	ret

00001886 <convVecToQuat>:
    1886:	cf 92       	push	r12
    1888:	df 92       	push	r13
    188a:	ef 92       	push	r14
    188c:	ff 92       	push	r15
    188e:	0f 93       	push	r16
    1890:	1f 93       	push	r17
    1892:	cf 93       	push	r28
    1894:	df 93       	push	r29
    1896:	cd b7       	in	r28, 0x3d	; 61
    1898:	de b7       	in	r29, 0x3e	; 62
    189a:	2c 97       	sbiw	r28, 0x0c	; 12
    189c:	0f b6       	in	r0, 0x3f	; 63
    189e:	f8 94       	cli
    18a0:	de bf       	out	0x3e, r29	; 62
    18a2:	0f be       	out	0x3f, r0	; 63
    18a4:	cd bf       	out	0x3d, r28	; 61
    18a6:	c9 82       	std	Y+1, r12	; 0x01
    18a8:	da 82       	std	Y+2, r13	; 0x02
    18aa:	eb 82       	std	Y+3, r14	; 0x03
    18ac:	fc 82       	std	Y+4, r15	; 0x04
    18ae:	0d 83       	std	Y+5, r16	; 0x05
    18b0:	1e 83       	std	Y+6, r17	; 0x06
    18b2:	2f 83       	std	Y+7, r18	; 0x07
    18b4:	38 87       	std	Y+8, r19	; 0x08
    18b6:	49 87       	std	Y+9, r20	; 0x09
    18b8:	5a 87       	std	Y+10, r21	; 0x0a
    18ba:	6b 87       	std	Y+11, r22	; 0x0b
    18bc:	7c 87       	std	Y+12, r23	; 0x0c
    18be:	c9 80       	ldd	r12, Y+1	; 0x01
    18c0:	da 80       	ldd	r13, Y+2	; 0x02
    18c2:	eb 80       	ldd	r14, Y+3	; 0x03
    18c4:	fc 80       	ldd	r15, Y+4	; 0x04
    18c6:	0d 81       	ldd	r16, Y+5	; 0x05
    18c8:	1e 81       	ldd	r17, Y+6	; 0x06
    18ca:	2f 81       	ldd	r18, Y+7	; 0x07
    18cc:	38 85       	ldd	r19, Y+8	; 0x08
    18ce:	49 85       	ldd	r20, Y+9	; 0x09
    18d0:	5a 85       	ldd	r21, Y+10	; 0x0a
    18d2:	6b 85       	ldd	r22, Y+11	; 0x0b
    18d4:	7c 85       	ldd	r23, Y+12	; 0x0c
    18d6:	fc 01       	movw	r30, r24
    18d8:	10 82       	st	Z, r1
    18da:	11 82       	std	Z+1, r1	; 0x01
    18dc:	12 82       	std	Z+2, r1	; 0x02
    18de:	13 82       	std	Z+3, r1	; 0x03
    18e0:	c4 82       	std	Z+4, r12	; 0x04
    18e2:	d5 82       	std	Z+5, r13	; 0x05
    18e4:	e6 82       	std	Z+6, r14	; 0x06
    18e6:	f7 82       	std	Z+7, r15	; 0x07
    18e8:	00 87       	std	Z+8, r16	; 0x08
    18ea:	11 87       	std	Z+9, r17	; 0x09
    18ec:	22 87       	std	Z+10, r18	; 0x0a
    18ee:	33 87       	std	Z+11, r19	; 0x0b
    18f0:	44 87       	std	Z+12, r20	; 0x0c
    18f2:	55 87       	std	Z+13, r21	; 0x0d
    18f4:	66 87       	std	Z+14, r22	; 0x0e
    18f6:	77 87       	std	Z+15, r23	; 0x0f
    18f8:	2c 96       	adiw	r28, 0x0c	; 12
    18fa:	0f b6       	in	r0, 0x3f	; 63
    18fc:	f8 94       	cli
    18fe:	de bf       	out	0x3e, r29	; 62
    1900:	0f be       	out	0x3f, r0	; 63
    1902:	cd bf       	out	0x3d, r28	; 61
    1904:	df 91       	pop	r29
    1906:	cf 91       	pop	r28
    1908:	1f 91       	pop	r17
    190a:	0f 91       	pop	r16
    190c:	ff 90       	pop	r15
    190e:	ef 90       	pop	r14
    1910:	df 90       	pop	r13
    1912:	cf 90       	pop	r12
    1914:	08 95       	ret

00001916 <conjugate>:
    1916:	8f 92       	push	r8
    1918:	9f 92       	push	r9
    191a:	af 92       	push	r10
    191c:	bf 92       	push	r11
    191e:	cf 92       	push	r12
    1920:	df 92       	push	r13
    1922:	ef 92       	push	r14
    1924:	ff 92       	push	r15
    1926:	0f 93       	push	r16
    1928:	1f 93       	push	r17
    192a:	cf 93       	push	r28
    192c:	df 93       	push	r29
    192e:	cd b7       	in	r28, 0x3d	; 61
    1930:	de b7       	in	r29, 0x3e	; 62
    1932:	60 97       	sbiw	r28, 0x10	; 16
    1934:	0f b6       	in	r0, 0x3f	; 63
    1936:	f8 94       	cli
    1938:	de bf       	out	0x3e, r29	; 62
    193a:	0f be       	out	0x3f, r0	; 63
    193c:	cd bf       	out	0x3d, r28	; 61
    193e:	89 82       	std	Y+1, r8	; 0x01
    1940:	9a 82       	std	Y+2, r9	; 0x02
    1942:	ab 82       	std	Y+3, r10	; 0x03
    1944:	bc 82       	std	Y+4, r11	; 0x04
    1946:	cd 82       	std	Y+5, r12	; 0x05
    1948:	de 82       	std	Y+6, r13	; 0x06
    194a:	ef 82       	std	Y+7, r14	; 0x07
    194c:	f8 86       	std	Y+8, r15	; 0x08
    194e:	09 87       	std	Y+9, r16	; 0x09
    1950:	1a 87       	std	Y+10, r17	; 0x0a
    1952:	2b 87       	std	Y+11, r18	; 0x0b
    1954:	3c 87       	std	Y+12, r19	; 0x0c
    1956:	4d 87       	std	Y+13, r20	; 0x0d
    1958:	5e 87       	std	Y+14, r21	; 0x0e
    195a:	6f 87       	std	Y+15, r22	; 0x0f
    195c:	78 8b       	std	Y+16, r23	; 0x10
    195e:	cd 80       	ldd	r12, Y+5	; 0x05
    1960:	de 80       	ldd	r13, Y+6	; 0x06
    1962:	ef 80       	ldd	r14, Y+7	; 0x07
    1964:	f8 84       	ldd	r15, Y+8	; 0x08
    1966:	f7 fa       	bst	r15, 7
    1968:	f0 94       	com	r15
    196a:	f7 f8       	bld	r15, 7
    196c:	f0 94       	com	r15
    196e:	09 85       	ldd	r16, Y+9	; 0x09
    1970:	1a 85       	ldd	r17, Y+10	; 0x0a
    1972:	2b 85       	ldd	r18, Y+11	; 0x0b
    1974:	3c 85       	ldd	r19, Y+12	; 0x0c
    1976:	30 58       	subi	r19, 0x80	; 128
    1978:	4d 85       	ldd	r20, Y+13	; 0x0d
    197a:	5e 85       	ldd	r21, Y+14	; 0x0e
    197c:	6f 85       	ldd	r22, Y+15	; 0x0f
    197e:	78 89       	ldd	r23, Y+16	; 0x10
    1980:	70 58       	subi	r23, 0x80	; 128
    1982:	89 80       	ldd	r8, Y+1	; 0x01
    1984:	9a 80       	ldd	r9, Y+2	; 0x02
    1986:	ab 80       	ldd	r10, Y+3	; 0x03
    1988:	bc 80       	ldd	r11, Y+4	; 0x04
    198a:	fc 01       	movw	r30, r24
    198c:	80 82       	st	Z, r8
    198e:	91 82       	std	Z+1, r9	; 0x01
    1990:	a2 82       	std	Z+2, r10	; 0x02
    1992:	b3 82       	std	Z+3, r11	; 0x03
    1994:	c4 82       	std	Z+4, r12	; 0x04
    1996:	d5 82       	std	Z+5, r13	; 0x05
    1998:	e6 82       	std	Z+6, r14	; 0x06
    199a:	f7 82       	std	Z+7, r15	; 0x07
    199c:	00 87       	std	Z+8, r16	; 0x08
    199e:	11 87       	std	Z+9, r17	; 0x09
    19a0:	22 87       	std	Z+10, r18	; 0x0a
    19a2:	33 87       	std	Z+11, r19	; 0x0b
    19a4:	44 87       	std	Z+12, r20	; 0x0c
    19a6:	55 87       	std	Z+13, r21	; 0x0d
    19a8:	66 87       	std	Z+14, r22	; 0x0e
    19aa:	77 87       	std	Z+15, r23	; 0x0f
    19ac:	60 96       	adiw	r28, 0x10	; 16
    19ae:	0f b6       	in	r0, 0x3f	; 63
    19b0:	f8 94       	cli
    19b2:	de bf       	out	0x3e, r29	; 62
    19b4:	0f be       	out	0x3f, r0	; 63
    19b6:	cd bf       	out	0x3d, r28	; 61
    19b8:	df 91       	pop	r29
    19ba:	cf 91       	pop	r28
    19bc:	1f 91       	pop	r17
    19be:	0f 91       	pop	r16
    19c0:	ff 90       	pop	r15
    19c2:	ef 90       	pop	r14
    19c4:	df 90       	pop	r13
    19c6:	cf 90       	pop	r12
    19c8:	bf 90       	pop	r11
    19ca:	af 90       	pop	r10
    19cc:	9f 90       	pop	r9
    19ce:	8f 90       	pop	r8
    19d0:	08 95       	ret

000019d2 <hamiltonP>:
    19d2:	2f 92       	push	r2
    19d4:	3f 92       	push	r3
    19d6:	4f 92       	push	r4
    19d8:	5f 92       	push	r5
    19da:	6f 92       	push	r6
    19dc:	7f 92       	push	r7
    19de:	8f 92       	push	r8
    19e0:	9f 92       	push	r9
    19e2:	af 92       	push	r10
    19e4:	bf 92       	push	r11
    19e6:	cf 92       	push	r12
    19e8:	df 92       	push	r13
    19ea:	ef 92       	push	r14
    19ec:	ff 92       	push	r15
    19ee:	0f 93       	push	r16
    19f0:	1f 93       	push	r17
    19f2:	cf 93       	push	r28
    19f4:	df 93       	push	r29
    19f6:	cd b7       	in	r28, 0x3d	; 61
    19f8:	de b7       	in	r29, 0x3e	; 62
    19fa:	a8 97       	sbiw	r28, 0x28	; 40
    19fc:	0f b6       	in	r0, 0x3f	; 63
    19fe:	f8 94       	cli
    1a00:	de bf       	out	0x3e, r29	; 62
    1a02:	0f be       	out	0x3f, r0	; 63
    1a04:	cd bf       	out	0x3d, r28	; 61
    1a06:	1c 01       	movw	r2, r24
    1a08:	89 82       	std	Y+1, r8	; 0x01
    1a0a:	9a 82       	std	Y+2, r9	; 0x02
    1a0c:	ab 82       	std	Y+3, r10	; 0x03
    1a0e:	bc 82       	std	Y+4, r11	; 0x04
    1a10:	cd 82       	std	Y+5, r12	; 0x05
    1a12:	de 82       	std	Y+6, r13	; 0x06
    1a14:	ef 82       	std	Y+7, r14	; 0x07
    1a16:	f8 86       	std	Y+8, r15	; 0x08
    1a18:	09 87       	std	Y+9, r16	; 0x09
    1a1a:	1a 87       	std	Y+10, r17	; 0x0a
    1a1c:	2b 87       	std	Y+11, r18	; 0x0b
    1a1e:	3c 87       	std	Y+12, r19	; 0x0c
    1a20:	4d 87       	std	Y+13, r20	; 0x0d
    1a22:	5e 87       	std	Y+14, r21	; 0x0e
    1a24:	6f 87       	std	Y+15, r22	; 0x0f
    1a26:	78 8b       	std	Y+16, r23	; 0x10
    1a28:	89 81       	ldd	r24, Y+1	; 0x01
    1a2a:	9a 81       	ldd	r25, Y+2	; 0x02
    1a2c:	ab 81       	ldd	r26, Y+3	; 0x03
    1a2e:	bc 81       	ldd	r27, Y+4	; 0x04
    1a30:	8d a3       	std	Y+37, r24	; 0x25
    1a32:	9e a3       	std	Y+38, r25	; 0x26
    1a34:	af a3       	std	Y+39, r26	; 0x27
    1a36:	b8 a7       	std	Y+40, r27	; 0x28
    1a38:	8d 81       	ldd	r24, Y+5	; 0x05
    1a3a:	9e 81       	ldd	r25, Y+6	; 0x06
    1a3c:	af 81       	ldd	r26, Y+7	; 0x07
    1a3e:	b8 85       	ldd	r27, Y+8	; 0x08
    1a40:	89 a3       	std	Y+33, r24	; 0x21
    1a42:	9a a3       	std	Y+34, r25	; 0x22
    1a44:	ab a3       	std	Y+35, r26	; 0x23
    1a46:	bc a3       	std	Y+36, r27	; 0x24
    1a48:	89 85       	ldd	r24, Y+9	; 0x09
    1a4a:	9a 85       	ldd	r25, Y+10	; 0x0a
    1a4c:	ab 85       	ldd	r26, Y+11	; 0x0b
    1a4e:	bc 85       	ldd	r27, Y+12	; 0x0c
    1a50:	8d 8f       	std	Y+29, r24	; 0x1d
    1a52:	9e 8f       	std	Y+30, r25	; 0x1e
    1a54:	af 8f       	std	Y+31, r26	; 0x1f
    1a56:	b8 a3       	std	Y+32, r27	; 0x20
    1a58:	8d 85       	ldd	r24, Y+13	; 0x0d
    1a5a:	9e 85       	ldd	r25, Y+14	; 0x0e
    1a5c:	af 85       	ldd	r26, Y+15	; 0x0f
    1a5e:	b8 89       	ldd	r27, Y+16	; 0x10
    1a60:	89 8f       	std	Y+25, r24	; 0x19
    1a62:	9a 8f       	std	Y+26, r25	; 0x1a
    1a64:	ab 8f       	std	Y+27, r26	; 0x1b
    1a66:	bc 8f       	std	Y+28, r27	; 0x1c
    1a68:	21 96       	adiw	r28, 0x01	; 1
    1a6a:	8c ad       	ldd	r24, Y+60	; 0x3c
    1a6c:	9d ad       	ldd	r25, Y+61	; 0x3d
    1a6e:	ae ad       	ldd	r26, Y+62	; 0x3e
    1a70:	bf ad       	ldd	r27, Y+63	; 0x3f
    1a72:	21 97       	sbiw	r28, 0x01	; 1
    1a74:	8d 8b       	std	Y+21, r24	; 0x15
    1a76:	9e 8b       	std	Y+22, r25	; 0x16
    1a78:	af 8b       	std	Y+23, r26	; 0x17
    1a7a:	b8 8f       	std	Y+24, r27	; 0x18
    1a7c:	25 96       	adiw	r28, 0x05	; 5
    1a7e:	8c ad       	ldd	r24, Y+60	; 0x3c
    1a80:	9d ad       	ldd	r25, Y+61	; 0x3d
    1a82:	ae ad       	ldd	r26, Y+62	; 0x3e
    1a84:	bf ad       	ldd	r27, Y+63	; 0x3f
    1a86:	25 97       	sbiw	r28, 0x05	; 5
    1a88:	89 8b       	std	Y+17, r24	; 0x11
    1a8a:	9a 8b       	std	Y+18, r25	; 0x12
    1a8c:	ab 8b       	std	Y+19, r26	; 0x13
    1a8e:	bc 8b       	std	Y+20, r27	; 0x14
    1a90:	29 96       	adiw	r28, 0x09	; 9
    1a92:	cc ac       	ldd	r12, Y+60	; 0x3c
    1a94:	dd ac       	ldd	r13, Y+61	; 0x3d
    1a96:	ee ac       	ldd	r14, Y+62	; 0x3e
    1a98:	ff ac       	ldd	r15, Y+63	; 0x3f
    1a9a:	29 97       	sbiw	r28, 0x09	; 9
    1a9c:	2d 96       	adiw	r28, 0x0d	; 13
    1a9e:	8c ac       	ldd	r8, Y+60	; 0x3c
    1aa0:	9d ac       	ldd	r9, Y+61	; 0x3d
    1aa2:	ae ac       	ldd	r10, Y+62	; 0x3e
    1aa4:	bf ac       	ldd	r11, Y+63	; 0x3f
    1aa6:	2d 97       	sbiw	r28, 0x0d	; 13
    1aa8:	2d a1       	ldd	r18, Y+37	; 0x25
    1aaa:	3e a1       	ldd	r19, Y+38	; 0x26
    1aac:	4f a1       	ldd	r20, Y+39	; 0x27
    1aae:	58 a5       	ldd	r21, Y+40	; 0x28
    1ab0:	6d 89       	ldd	r22, Y+21	; 0x15
    1ab2:	7e 89       	ldd	r23, Y+22	; 0x16
    1ab4:	8f 89       	ldd	r24, Y+23	; 0x17
    1ab6:	98 8d       	ldd	r25, Y+24	; 0x18
    1ab8:	0e 94 6d 16 	call	0x2cda	; 0x2cda <__mulsf3>
    1abc:	2b 01       	movw	r4, r22
    1abe:	3c 01       	movw	r6, r24
    1ac0:	29 a1       	ldd	r18, Y+33	; 0x21
    1ac2:	3a a1       	ldd	r19, Y+34	; 0x22
    1ac4:	4b a1       	ldd	r20, Y+35	; 0x23
    1ac6:	5c a1       	ldd	r21, Y+36	; 0x24
    1ac8:	69 89       	ldd	r22, Y+17	; 0x11
    1aca:	7a 89       	ldd	r23, Y+18	; 0x12
    1acc:	8b 89       	ldd	r24, Y+19	; 0x13
    1ace:	9c 89       	ldd	r25, Y+20	; 0x14
    1ad0:	0e 94 6d 16 	call	0x2cda	; 0x2cda <__mulsf3>
    1ad4:	9b 01       	movw	r18, r22
    1ad6:	ac 01       	movw	r20, r24
    1ad8:	c3 01       	movw	r24, r6
    1ada:	b2 01       	movw	r22, r4
    1adc:	a7 d6       	rcall	.+3406   	; 0x282c <__subsf3>
    1ade:	2b 01       	movw	r4, r22
    1ae0:	3c 01       	movw	r6, r24
    1ae2:	a7 01       	movw	r20, r14
    1ae4:	96 01       	movw	r18, r12
    1ae6:	6d 8d       	ldd	r22, Y+29	; 0x1d
    1ae8:	7e 8d       	ldd	r23, Y+30	; 0x1e
    1aea:	8f 8d       	ldd	r24, Y+31	; 0x1f
    1aec:	98 a1       	ldd	r25, Y+32	; 0x20
    1aee:	0e 94 6d 16 	call	0x2cda	; 0x2cda <__mulsf3>
    1af2:	9b 01       	movw	r18, r22
    1af4:	ac 01       	movw	r20, r24
    1af6:	c3 01       	movw	r24, r6
    1af8:	b2 01       	movw	r22, r4
    1afa:	98 d6       	rcall	.+3376   	; 0x282c <__subsf3>
    1afc:	2b 01       	movw	r4, r22
    1afe:	3c 01       	movw	r6, r24
    1b00:	a5 01       	movw	r20, r10
    1b02:	94 01       	movw	r18, r8
    1b04:	69 8d       	ldd	r22, Y+25	; 0x19
    1b06:	7a 8d       	ldd	r23, Y+26	; 0x1a
    1b08:	8b 8d       	ldd	r24, Y+27	; 0x1b
    1b0a:	9c 8d       	ldd	r25, Y+28	; 0x1c
    1b0c:	0e 94 6d 16 	call	0x2cda	; 0x2cda <__mulsf3>
    1b10:	9b 01       	movw	r18, r22
    1b12:	ac 01       	movw	r20, r24
    1b14:	c3 01       	movw	r24, r6
    1b16:	b2 01       	movw	r22, r4
    1b18:	89 d6       	rcall	.+3346   	; 0x282c <__subsf3>
    1b1a:	d1 01       	movw	r26, r2
    1b1c:	6d 93       	st	X+, r22
    1b1e:	7d 93       	st	X+, r23
    1b20:	8d 93       	st	X+, r24
    1b22:	9c 93       	st	X, r25
    1b24:	13 97       	sbiw	r26, 0x03	; 3
    1b26:	2d a1       	ldd	r18, Y+37	; 0x25
    1b28:	3e a1       	ldd	r19, Y+38	; 0x26
    1b2a:	4f a1       	ldd	r20, Y+39	; 0x27
    1b2c:	58 a5       	ldd	r21, Y+40	; 0x28
    1b2e:	69 89       	ldd	r22, Y+17	; 0x11
    1b30:	7a 89       	ldd	r23, Y+18	; 0x12
    1b32:	8b 89       	ldd	r24, Y+19	; 0x13
    1b34:	9c 89       	ldd	r25, Y+20	; 0x14
    1b36:	0e 94 6d 16 	call	0x2cda	; 0x2cda <__mulsf3>
    1b3a:	2b 01       	movw	r4, r22
    1b3c:	3c 01       	movw	r6, r24
    1b3e:	29 a1       	ldd	r18, Y+33	; 0x21
    1b40:	3a a1       	ldd	r19, Y+34	; 0x22
    1b42:	4b a1       	ldd	r20, Y+35	; 0x23
    1b44:	5c a1       	ldd	r21, Y+36	; 0x24
    1b46:	6d 89       	ldd	r22, Y+21	; 0x15
    1b48:	7e 89       	ldd	r23, Y+22	; 0x16
    1b4a:	8f 89       	ldd	r24, Y+23	; 0x17
    1b4c:	98 8d       	ldd	r25, Y+24	; 0x18
    1b4e:	0e 94 6d 16 	call	0x2cda	; 0x2cda <__mulsf3>
    1b52:	9b 01       	movw	r18, r22
    1b54:	ac 01       	movw	r20, r24
    1b56:	c3 01       	movw	r24, r6
    1b58:	b2 01       	movw	r22, r4
    1b5a:	69 d6       	rcall	.+3282   	; 0x282e <__addsf3>
    1b5c:	2b 01       	movw	r4, r22
    1b5e:	3c 01       	movw	r6, r24
    1b60:	a5 01       	movw	r20, r10
    1b62:	94 01       	movw	r18, r8
    1b64:	6d 8d       	ldd	r22, Y+29	; 0x1d
    1b66:	7e 8d       	ldd	r23, Y+30	; 0x1e
    1b68:	8f 8d       	ldd	r24, Y+31	; 0x1f
    1b6a:	98 a1       	ldd	r25, Y+32	; 0x20
    1b6c:	0e 94 6d 16 	call	0x2cda	; 0x2cda <__mulsf3>
    1b70:	9b 01       	movw	r18, r22
    1b72:	ac 01       	movw	r20, r24
    1b74:	c3 01       	movw	r24, r6
    1b76:	b2 01       	movw	r22, r4
    1b78:	5a d6       	rcall	.+3252   	; 0x282e <__addsf3>
    1b7a:	2b 01       	movw	r4, r22
    1b7c:	3c 01       	movw	r6, r24
    1b7e:	a7 01       	movw	r20, r14
    1b80:	96 01       	movw	r18, r12
    1b82:	69 8d       	ldd	r22, Y+25	; 0x19
    1b84:	7a 8d       	ldd	r23, Y+26	; 0x1a
    1b86:	8b 8d       	ldd	r24, Y+27	; 0x1b
    1b88:	9c 8d       	ldd	r25, Y+28	; 0x1c
    1b8a:	0e 94 6d 16 	call	0x2cda	; 0x2cda <__mulsf3>
    1b8e:	9b 01       	movw	r18, r22
    1b90:	ac 01       	movw	r20, r24
    1b92:	c3 01       	movw	r24, r6
    1b94:	b2 01       	movw	r22, r4
    1b96:	4a d6       	rcall	.+3220   	; 0x282c <__subsf3>
    1b98:	f1 01       	movw	r30, r2
    1b9a:	64 83       	std	Z+4, r22	; 0x04
    1b9c:	75 83       	std	Z+5, r23	; 0x05
    1b9e:	86 83       	std	Z+6, r24	; 0x06
    1ba0:	97 83       	std	Z+7, r25	; 0x07
    1ba2:	a7 01       	movw	r20, r14
    1ba4:	96 01       	movw	r18, r12
    1ba6:	6d a1       	ldd	r22, Y+37	; 0x25
    1ba8:	7e a1       	ldd	r23, Y+38	; 0x26
    1baa:	8f a1       	ldd	r24, Y+39	; 0x27
    1bac:	98 a5       	ldd	r25, Y+40	; 0x28
    1bae:	0e 94 6d 16 	call	0x2cda	; 0x2cda <__mulsf3>
    1bb2:	2b 01       	movw	r4, r22
    1bb4:	3c 01       	movw	r6, r24
    1bb6:	a5 01       	movw	r20, r10
    1bb8:	94 01       	movw	r18, r8
    1bba:	69 a1       	ldd	r22, Y+33	; 0x21
    1bbc:	7a a1       	ldd	r23, Y+34	; 0x22
    1bbe:	8b a1       	ldd	r24, Y+35	; 0x23
    1bc0:	9c a1       	ldd	r25, Y+36	; 0x24
    1bc2:	0e 94 6d 16 	call	0x2cda	; 0x2cda <__mulsf3>
    1bc6:	9b 01       	movw	r18, r22
    1bc8:	ac 01       	movw	r20, r24
    1bca:	c3 01       	movw	r24, r6
    1bcc:	b2 01       	movw	r22, r4
    1bce:	2e d6       	rcall	.+3164   	; 0x282c <__subsf3>
    1bd0:	2b 01       	movw	r4, r22
    1bd2:	3c 01       	movw	r6, r24
    1bd4:	2d 8d       	ldd	r18, Y+29	; 0x1d
    1bd6:	3e 8d       	ldd	r19, Y+30	; 0x1e
    1bd8:	4f 8d       	ldd	r20, Y+31	; 0x1f
    1bda:	58 a1       	ldd	r21, Y+32	; 0x20
    1bdc:	6d 89       	ldd	r22, Y+21	; 0x15
    1bde:	7e 89       	ldd	r23, Y+22	; 0x16
    1be0:	8f 89       	ldd	r24, Y+23	; 0x17
    1be2:	98 8d       	ldd	r25, Y+24	; 0x18
    1be4:	0e 94 6d 16 	call	0x2cda	; 0x2cda <__mulsf3>
    1be8:	9b 01       	movw	r18, r22
    1bea:	ac 01       	movw	r20, r24
    1bec:	c3 01       	movw	r24, r6
    1bee:	b2 01       	movw	r22, r4
    1bf0:	1e d6       	rcall	.+3132   	; 0x282e <__addsf3>
    1bf2:	2b 01       	movw	r4, r22
    1bf4:	3c 01       	movw	r6, r24
    1bf6:	29 8d       	ldd	r18, Y+25	; 0x19
    1bf8:	3a 8d       	ldd	r19, Y+26	; 0x1a
    1bfa:	4b 8d       	ldd	r20, Y+27	; 0x1b
    1bfc:	5c 8d       	ldd	r21, Y+28	; 0x1c
    1bfe:	69 89       	ldd	r22, Y+17	; 0x11
    1c00:	7a 89       	ldd	r23, Y+18	; 0x12
    1c02:	8b 89       	ldd	r24, Y+19	; 0x13
    1c04:	9c 89       	ldd	r25, Y+20	; 0x14
    1c06:	0e 94 6d 16 	call	0x2cda	; 0x2cda <__mulsf3>
    1c0a:	9b 01       	movw	r18, r22
    1c0c:	ac 01       	movw	r20, r24
    1c0e:	c3 01       	movw	r24, r6
    1c10:	b2 01       	movw	r22, r4
    1c12:	0d d6       	rcall	.+3098   	; 0x282e <__addsf3>
    1c14:	d1 01       	movw	r26, r2
    1c16:	18 96       	adiw	r26, 0x08	; 8
    1c18:	6d 93       	st	X+, r22
    1c1a:	7d 93       	st	X+, r23
    1c1c:	8d 93       	st	X+, r24
    1c1e:	9c 93       	st	X, r25
    1c20:	1b 97       	sbiw	r26, 0x0b	; 11
    1c22:	a5 01       	movw	r20, r10
    1c24:	94 01       	movw	r18, r8
    1c26:	6d a1       	ldd	r22, Y+37	; 0x25
    1c28:	7e a1       	ldd	r23, Y+38	; 0x26
    1c2a:	8f a1       	ldd	r24, Y+39	; 0x27
    1c2c:	98 a5       	ldd	r25, Y+40	; 0x28
    1c2e:	0e 94 6d 16 	call	0x2cda	; 0x2cda <__mulsf3>
    1c32:	4b 01       	movw	r8, r22
    1c34:	5c 01       	movw	r10, r24
    1c36:	a7 01       	movw	r20, r14
    1c38:	96 01       	movw	r18, r12
    1c3a:	69 a1       	ldd	r22, Y+33	; 0x21
    1c3c:	7a a1       	ldd	r23, Y+34	; 0x22
    1c3e:	8b a1       	ldd	r24, Y+35	; 0x23
    1c40:	9c a1       	ldd	r25, Y+36	; 0x24
    1c42:	0e 94 6d 16 	call	0x2cda	; 0x2cda <__mulsf3>
    1c46:	9b 01       	movw	r18, r22
    1c48:	ac 01       	movw	r20, r24
    1c4a:	c5 01       	movw	r24, r10
    1c4c:	b4 01       	movw	r22, r8
    1c4e:	ef d5       	rcall	.+3038   	; 0x282e <__addsf3>
    1c50:	6b 01       	movw	r12, r22
    1c52:	7c 01       	movw	r14, r24
    1c54:	2d 8d       	ldd	r18, Y+29	; 0x1d
    1c56:	3e 8d       	ldd	r19, Y+30	; 0x1e
    1c58:	4f 8d       	ldd	r20, Y+31	; 0x1f
    1c5a:	58 a1       	ldd	r21, Y+32	; 0x20
    1c5c:	69 89       	ldd	r22, Y+17	; 0x11
    1c5e:	7a 89       	ldd	r23, Y+18	; 0x12
    1c60:	8b 89       	ldd	r24, Y+19	; 0x13
    1c62:	9c 89       	ldd	r25, Y+20	; 0x14
    1c64:	0e 94 6d 16 	call	0x2cda	; 0x2cda <__mulsf3>
    1c68:	9b 01       	movw	r18, r22
    1c6a:	ac 01       	movw	r20, r24
    1c6c:	c7 01       	movw	r24, r14
    1c6e:	b6 01       	movw	r22, r12
    1c70:	dd d5       	rcall	.+3002   	; 0x282c <__subsf3>
    1c72:	6b 01       	movw	r12, r22
    1c74:	7c 01       	movw	r14, r24
    1c76:	29 8d       	ldd	r18, Y+25	; 0x19
    1c78:	3a 8d       	ldd	r19, Y+26	; 0x1a
    1c7a:	4b 8d       	ldd	r20, Y+27	; 0x1b
    1c7c:	5c 8d       	ldd	r21, Y+28	; 0x1c
    1c7e:	6d 89       	ldd	r22, Y+21	; 0x15
    1c80:	7e 89       	ldd	r23, Y+22	; 0x16
    1c82:	8f 89       	ldd	r24, Y+23	; 0x17
    1c84:	98 8d       	ldd	r25, Y+24	; 0x18
    1c86:	0e 94 6d 16 	call	0x2cda	; 0x2cda <__mulsf3>
    1c8a:	9b 01       	movw	r18, r22
    1c8c:	ac 01       	movw	r20, r24
    1c8e:	c7 01       	movw	r24, r14
    1c90:	b6 01       	movw	r22, r12
    1c92:	cd d5       	rcall	.+2970   	; 0x282e <__addsf3>
    1c94:	f1 01       	movw	r30, r2
    1c96:	64 87       	std	Z+12, r22	; 0x0c
    1c98:	75 87       	std	Z+13, r23	; 0x0d
    1c9a:	86 87       	std	Z+14, r24	; 0x0e
    1c9c:	97 87       	std	Z+15, r25	; 0x0f
    1c9e:	c1 01       	movw	r24, r2
    1ca0:	a8 96       	adiw	r28, 0x28	; 40
    1ca2:	0f b6       	in	r0, 0x3f	; 63
    1ca4:	f8 94       	cli
    1ca6:	de bf       	out	0x3e, r29	; 62
    1ca8:	0f be       	out	0x3f, r0	; 63
    1caa:	cd bf       	out	0x3d, r28	; 61
    1cac:	df 91       	pop	r29
    1cae:	cf 91       	pop	r28
    1cb0:	1f 91       	pop	r17
    1cb2:	0f 91       	pop	r16
    1cb4:	ff 90       	pop	r15
    1cb6:	ef 90       	pop	r14
    1cb8:	df 90       	pop	r13
    1cba:	cf 90       	pop	r12
    1cbc:	bf 90       	pop	r11
    1cbe:	af 90       	pop	r10
    1cc0:	9f 90       	pop	r9
    1cc2:	8f 90       	pop	r8
    1cc4:	7f 90       	pop	r7
    1cc6:	6f 90       	pop	r6
    1cc8:	5f 90       	pop	r5
    1cca:	4f 90       	pop	r4
    1ccc:	3f 90       	pop	r3
    1cce:	2f 90       	pop	r2
    1cd0:	08 95       	ret

00001cd2 <quicksort>:
    1cd2:	cf 93       	push	r28
    1cd4:	df 93       	push	r29
    1cd6:	ec 01       	movw	r28, r24
    1cd8:	64 17       	cp	r22, r20
    1cda:	08 f4       	brcc	.+2      	; 0x1cde <quicksort+0xc>
    1cdc:	04 d0       	rcall	.+8      	; 0x1ce6 <quicksort.part.0>
    1cde:	ce 01       	movw	r24, r28
    1ce0:	df 91       	pop	r29
    1ce2:	cf 91       	pop	r28
    1ce4:	08 95       	ret

00001ce6 <quicksort.part.0>:
    1ce6:	cf 92       	push	r12
    1ce8:	df 92       	push	r13
    1cea:	ef 92       	push	r14
    1cec:	ff 92       	push	r15
    1cee:	0f 93       	push	r16
    1cf0:	1f 93       	push	r17
    1cf2:	cf 93       	push	r28
    1cf4:	df 93       	push	r29
    1cf6:	18 2f       	mov	r17, r24
    1cf8:	d9 2f       	mov	r29, r25
    1cfa:	04 2f       	mov	r16, r20
    1cfc:	c8 2e       	mov	r12, r24
    1cfe:	d9 2e       	mov	r13, r25
    1d00:	c6 0e       	add	r12, r22
    1d02:	d1 1c       	adc	r13, r1
    1d04:	c6 0e       	add	r12, r22
    1d06:	d1 1c       	adc	r13, r1
    1d08:	c4 2f       	mov	r28, r20
    1d0a:	26 2f       	mov	r18, r22
    1d0c:	2c 17       	cp	r18, r28
    1d0e:	40 f5       	brcc	.+80     	; 0x1d60 <quicksort.part.0+0x7a>
    1d10:	d6 01       	movw	r26, r12
    1d12:	3c 91       	ld	r19, X
    1d14:	81 2f       	mov	r24, r17
    1d16:	9d 2f       	mov	r25, r29
    1d18:	82 0f       	add	r24, r18
    1d1a:	91 1d       	adc	r25, r1
    1d1c:	82 0f       	add	r24, r18
    1d1e:	91 1d       	adc	r25, r1
    1d20:	dc 01       	movw	r26, r24
    1d22:	4c 91       	ld	r20, X
    1d24:	34 17       	cp	r19, r20
    1d26:	20 f0       	brcs	.+8      	; 0x1d30 <quicksort.part.0+0x4a>
    1d28:	20 17       	cp	r18, r16
    1d2a:	10 f4       	brcc	.+4      	; 0x1d30 <quicksort.part.0+0x4a>
    1d2c:	2f 5f       	subi	r18, 0xFF	; 255
    1d2e:	f2 cf       	rjmp	.-28     	; 0x1d14 <quicksort.part.0+0x2e>
    1d30:	a1 2f       	mov	r26, r17
    1d32:	bd 2f       	mov	r27, r29
    1d34:	ac 0f       	add	r26, r28
    1d36:	b1 1d       	adc	r27, r1
    1d38:	ac 0f       	add	r26, r28
    1d3a:	b1 1d       	adc	r27, r1
    1d3c:	5c 91       	ld	r21, X
    1d3e:	35 17       	cp	r19, r21
    1d40:	10 f4       	brcc	.+4      	; 0x1d46 <quicksort.part.0+0x60>
    1d42:	c1 50       	subi	r28, 0x01	; 1
    1d44:	f5 cf       	rjmp	.-22     	; 0x1d30 <quicksort.part.0+0x4a>
    1d46:	2c 17       	cp	r18, r28
    1d48:	08 f7       	brcc	.-62     	; 0x1d0c <quicksort.part.0+0x26>
    1d4a:	fc 01       	movw	r30, r24
    1d4c:	31 81       	ldd	r19, Z+1	; 0x01
    1d4e:	ed 90       	ld	r14, X+
    1d50:	fc 90       	ld	r15, X
    1d52:	11 97       	sbiw	r26, 0x01	; 1
    1d54:	f1 82       	std	Z+1, r15	; 0x01
    1d56:	e0 82       	st	Z, r14
    1d58:	4c 93       	st	X, r20
    1d5a:	11 96       	adiw	r26, 0x01	; 1
    1d5c:	3c 93       	st	X, r19
    1d5e:	d6 cf       	rjmp	.-84     	; 0x1d0c <quicksort.part.0+0x26>
    1d60:	f6 01       	movw	r30, r12
    1d62:	90 81       	ld	r25, Z
    1d64:	81 81       	ldd	r24, Z+1	; 0x01
    1d66:	a1 2f       	mov	r26, r17
    1d68:	bd 2f       	mov	r27, r29
    1d6a:	ac 0f       	add	r26, r28
    1d6c:	b1 1d       	adc	r27, r1
    1d6e:	ac 0f       	add	r26, r28
    1d70:	b1 1d       	adc	r27, r1
    1d72:	2d 91       	ld	r18, X+
    1d74:	3c 91       	ld	r19, X
    1d76:	11 97       	sbiw	r26, 0x01	; 1
    1d78:	31 83       	std	Z+1, r19	; 0x01
    1d7a:	20 83       	st	Z, r18
    1d7c:	9c 93       	st	X, r25
    1d7e:	11 96       	adiw	r26, 0x01	; 1
    1d80:	8c 93       	st	X, r24
    1d82:	4f ef       	ldi	r20, 0xFF	; 255
    1d84:	4c 0f       	add	r20, r28
    1d86:	81 2f       	mov	r24, r17
    1d88:	9d 2f       	mov	r25, r29
    1d8a:	a3 df       	rcall	.-186    	; 0x1cd2 <quicksort>
    1d8c:	61 e0       	ldi	r22, 0x01	; 1
    1d8e:	6c 0f       	add	r22, r28
    1d90:	40 2f       	mov	r20, r16
    1d92:	81 2f       	mov	r24, r17
    1d94:	9d 2f       	mov	r25, r29
    1d96:	df 91       	pop	r29
    1d98:	cf 91       	pop	r28
    1d9a:	1f 91       	pop	r17
    1d9c:	0f 91       	pop	r16
    1d9e:	ff 90       	pop	r15
    1da0:	ef 90       	pop	r14
    1da2:	df 90       	pop	r13
    1da4:	cf 90       	pop	r12
    1da6:	95 cf       	rjmp	.-214    	; 0x1cd2 <quicksort>

00001da8 <sort>:
    1da8:	cf 93       	push	r28
    1daa:	df 93       	push	r29
    1dac:	ec 01       	movw	r28, r24
    1dae:	45 e0       	ldi	r20, 0x05	; 5
    1db0:	60 e0       	ldi	r22, 0x00	; 0
    1db2:	99 df       	rcall	.-206    	; 0x1ce6 <quicksort.part.0>
    1db4:	ce 01       	movw	r24, r28
    1db6:	df 91       	pop	r29
    1db8:	cf 91       	pop	r28
    1dba:	08 95       	ret

00001dbc <multiply>:
    1dbc:	2f 92       	push	r2
    1dbe:	3f 92       	push	r3
    1dc0:	4f 92       	push	r4
    1dc2:	5f 92       	push	r5
    1dc4:	6f 92       	push	r6
    1dc6:	7f 92       	push	r7
    1dc8:	8f 92       	push	r8
    1dca:	9f 92       	push	r9
    1dcc:	af 92       	push	r10
    1dce:	bf 92       	push	r11
    1dd0:	cf 92       	push	r12
    1dd2:	df 92       	push	r13
    1dd4:	ef 92       	push	r14
    1dd6:	ff 92       	push	r15
    1dd8:	0f 93       	push	r16
    1dda:	1f 93       	push	r17
    1ddc:	cf 93       	push	r28
    1dde:	df 93       	push	r29
    1de0:	cd b7       	in	r28, 0x3d	; 61
    1de2:	de b7       	in	r29, 0x3e	; 62
    1de4:	2c 97       	sbiw	r28, 0x0c	; 12
    1de6:	0f b6       	in	r0, 0x3f	; 63
    1de8:	f8 94       	cli
    1dea:	de bf       	out	0x3e, r29	; 62
    1dec:	0f be       	out	0x3f, r0	; 63
    1dee:	cd bf       	out	0x3d, r28	; 61
    1df0:	3c 01       	movw	r6, r24
    1df2:	c9 82       	std	Y+1, r12	; 0x01
    1df4:	da 82       	std	Y+2, r13	; 0x02
    1df6:	eb 82       	std	Y+3, r14	; 0x03
    1df8:	fc 82       	std	Y+4, r15	; 0x04
    1dfa:	0d 83       	std	Y+5, r16	; 0x05
    1dfc:	1e 83       	std	Y+6, r17	; 0x06
    1dfe:	2f 83       	std	Y+7, r18	; 0x07
    1e00:	38 87       	std	Y+8, r19	; 0x08
    1e02:	49 87       	std	Y+9, r20	; 0x09
    1e04:	5a 87       	std	Y+10, r21	; 0x0a
    1e06:	6b 87       	std	Y+11, r22	; 0x0b
    1e08:	7c 87       	std	Y+12, r23	; 0x0c
    1e0a:	2d 81       	ldd	r18, Y+5	; 0x05
    1e0c:	3e 81       	ldd	r19, Y+6	; 0x06
    1e0e:	4f 81       	ldd	r20, Y+7	; 0x07
    1e10:	58 85       	ldd	r21, Y+8	; 0x08
    1e12:	c5 01       	movw	r24, r10
    1e14:	b4 01       	movw	r22, r8
    1e16:	61 d7       	rcall	.+3778   	; 0x2cda <__mulsf3>
    1e18:	1b 01       	movw	r2, r22
    1e1a:	2c 01       	movw	r4, r24
    1e1c:	29 85       	ldd	r18, Y+9	; 0x09
    1e1e:	3a 85       	ldd	r19, Y+10	; 0x0a
    1e20:	4b 85       	ldd	r20, Y+11	; 0x0b
    1e22:	5c 85       	ldd	r21, Y+12	; 0x0c
    1e24:	c5 01       	movw	r24, r10
    1e26:	b4 01       	movw	r22, r8
    1e28:	58 d7       	rcall	.+3760   	; 0x2cda <__mulsf3>
    1e2a:	6b 01       	movw	r12, r22
    1e2c:	7c 01       	movw	r14, r24
    1e2e:	a5 01       	movw	r20, r10
    1e30:	94 01       	movw	r18, r8
    1e32:	69 81       	ldd	r22, Y+1	; 0x01
    1e34:	7a 81       	ldd	r23, Y+2	; 0x02
    1e36:	8b 81       	ldd	r24, Y+3	; 0x03
    1e38:	9c 81       	ldd	r25, Y+4	; 0x04
    1e3a:	4f d7       	rcall	.+3742   	; 0x2cda <__mulsf3>
    1e3c:	f3 01       	movw	r30, r6
    1e3e:	60 83       	st	Z, r22
    1e40:	71 83       	std	Z+1, r23	; 0x01
    1e42:	82 83       	std	Z+2, r24	; 0x02
    1e44:	93 83       	std	Z+3, r25	; 0x03
    1e46:	24 82       	std	Z+4, r2	; 0x04
    1e48:	35 82       	std	Z+5, r3	; 0x05
    1e4a:	46 82       	std	Z+6, r4	; 0x06
    1e4c:	57 82       	std	Z+7, r5	; 0x07
    1e4e:	c0 86       	std	Z+8, r12	; 0x08
    1e50:	d1 86       	std	Z+9, r13	; 0x09
    1e52:	e2 86       	std	Z+10, r14	; 0x0a
    1e54:	f3 86       	std	Z+11, r15	; 0x0b
    1e56:	c3 01       	movw	r24, r6
    1e58:	2c 96       	adiw	r28, 0x0c	; 12
    1e5a:	0f b6       	in	r0, 0x3f	; 63
    1e5c:	f8 94       	cli
    1e5e:	de bf       	out	0x3e, r29	; 62
    1e60:	0f be       	out	0x3f, r0	; 63
    1e62:	cd bf       	out	0x3d, r28	; 61
    1e64:	df 91       	pop	r29
    1e66:	cf 91       	pop	r28
    1e68:	1f 91       	pop	r17
    1e6a:	0f 91       	pop	r16
    1e6c:	ff 90       	pop	r15
    1e6e:	ef 90       	pop	r14
    1e70:	df 90       	pop	r13
    1e72:	cf 90       	pop	r12
    1e74:	bf 90       	pop	r11
    1e76:	af 90       	pop	r10
    1e78:	9f 90       	pop	r9
    1e7a:	8f 90       	pop	r8
    1e7c:	7f 90       	pop	r7
    1e7e:	6f 90       	pop	r6
    1e80:	5f 90       	pop	r5
    1e82:	4f 90       	pop	r4
    1e84:	3f 90       	pop	r3
    1e86:	2f 90       	pop	r2
    1e88:	08 95       	ret

00001e8a <add>:
    1e8a:	4f 92       	push	r4
    1e8c:	5f 92       	push	r5
    1e8e:	6f 92       	push	r6
    1e90:	7f 92       	push	r7
    1e92:	af 92       	push	r10
    1e94:	bf 92       	push	r11
    1e96:	cf 92       	push	r12
    1e98:	df 92       	push	r13
    1e9a:	ef 92       	push	r14
    1e9c:	ff 92       	push	r15
    1e9e:	0f 93       	push	r16
    1ea0:	1f 93       	push	r17
    1ea2:	cf 93       	push	r28
    1ea4:	df 93       	push	r29
    1ea6:	cd b7       	in	r28, 0x3d	; 61
    1ea8:	de b7       	in	r29, 0x3e	; 62
    1eaa:	2c 97       	sbiw	r28, 0x0c	; 12
    1eac:	0f b6       	in	r0, 0x3f	; 63
    1eae:	f8 94       	cli
    1eb0:	de bf       	out	0x3e, r29	; 62
    1eb2:	0f be       	out	0x3f, r0	; 63
    1eb4:	cd bf       	out	0x3d, r28	; 61
    1eb6:	5c 01       	movw	r10, r24
    1eb8:	c9 82       	std	Y+1, r12	; 0x01
    1eba:	da 82       	std	Y+2, r13	; 0x02
    1ebc:	eb 82       	std	Y+3, r14	; 0x03
    1ebe:	fc 82       	std	Y+4, r15	; 0x04
    1ec0:	0d 83       	std	Y+5, r16	; 0x05
    1ec2:	1e 83       	std	Y+6, r17	; 0x06
    1ec4:	2f 83       	std	Y+7, r18	; 0x07
    1ec6:	38 87       	std	Y+8, r19	; 0x08
    1ec8:	49 87       	std	Y+9, r20	; 0x09
    1eca:	5a 87       	std	Y+10, r21	; 0x0a
    1ecc:	6b 87       	std	Y+11, r22	; 0x0b
    1ece:	7c 87       	std	Y+12, r23	; 0x0c
    1ed0:	29 a1       	ldd	r18, Y+33	; 0x21
    1ed2:	3a a1       	ldd	r19, Y+34	; 0x22
    1ed4:	4b a1       	ldd	r20, Y+35	; 0x23
    1ed6:	5c a1       	ldd	r21, Y+36	; 0x24
    1ed8:	6d 81       	ldd	r22, Y+5	; 0x05
    1eda:	7e 81       	ldd	r23, Y+6	; 0x06
    1edc:	8f 81       	ldd	r24, Y+7	; 0x07
    1ede:	98 85       	ldd	r25, Y+8	; 0x08
    1ee0:	a6 d4       	rcall	.+2380   	; 0x282e <__addsf3>
    1ee2:	2b 01       	movw	r4, r22
    1ee4:	3c 01       	movw	r6, r24
    1ee6:	2d a1       	ldd	r18, Y+37	; 0x25
    1ee8:	3e a1       	ldd	r19, Y+38	; 0x26
    1eea:	4f a1       	ldd	r20, Y+39	; 0x27
    1eec:	58 a5       	ldd	r21, Y+40	; 0x28
    1eee:	69 85       	ldd	r22, Y+9	; 0x09
    1ef0:	7a 85       	ldd	r23, Y+10	; 0x0a
    1ef2:	8b 85       	ldd	r24, Y+11	; 0x0b
    1ef4:	9c 85       	ldd	r25, Y+12	; 0x0c
    1ef6:	9b d4       	rcall	.+2358   	; 0x282e <__addsf3>
    1ef8:	6b 01       	movw	r12, r22
    1efa:	7c 01       	movw	r14, r24
    1efc:	2d 8d       	ldd	r18, Y+29	; 0x1d
    1efe:	3e 8d       	ldd	r19, Y+30	; 0x1e
    1f00:	4f 8d       	ldd	r20, Y+31	; 0x1f
    1f02:	58 a1       	ldd	r21, Y+32	; 0x20
    1f04:	69 81       	ldd	r22, Y+1	; 0x01
    1f06:	7a 81       	ldd	r23, Y+2	; 0x02
    1f08:	8b 81       	ldd	r24, Y+3	; 0x03
    1f0a:	9c 81       	ldd	r25, Y+4	; 0x04
    1f0c:	90 d4       	rcall	.+2336   	; 0x282e <__addsf3>
    1f0e:	f5 01       	movw	r30, r10
    1f10:	60 83       	st	Z, r22
    1f12:	71 83       	std	Z+1, r23	; 0x01
    1f14:	82 83       	std	Z+2, r24	; 0x02
    1f16:	93 83       	std	Z+3, r25	; 0x03
    1f18:	44 82       	std	Z+4, r4	; 0x04
    1f1a:	55 82       	std	Z+5, r5	; 0x05
    1f1c:	66 82       	std	Z+6, r6	; 0x06
    1f1e:	77 82       	std	Z+7, r7	; 0x07
    1f20:	c0 86       	std	Z+8, r12	; 0x08
    1f22:	d1 86       	std	Z+9, r13	; 0x09
    1f24:	e2 86       	std	Z+10, r14	; 0x0a
    1f26:	f3 86       	std	Z+11, r15	; 0x0b
    1f28:	c5 01       	movw	r24, r10
    1f2a:	2c 96       	adiw	r28, 0x0c	; 12
    1f2c:	0f b6       	in	r0, 0x3f	; 63
    1f2e:	f8 94       	cli
    1f30:	de bf       	out	0x3e, r29	; 62
    1f32:	0f be       	out	0x3f, r0	; 63
    1f34:	cd bf       	out	0x3d, r28	; 61
    1f36:	df 91       	pop	r29
    1f38:	cf 91       	pop	r28
    1f3a:	1f 91       	pop	r17
    1f3c:	0f 91       	pop	r16
    1f3e:	ff 90       	pop	r15
    1f40:	ef 90       	pop	r14
    1f42:	df 90       	pop	r13
    1f44:	cf 90       	pop	r12
    1f46:	bf 90       	pop	r11
    1f48:	af 90       	pop	r10
    1f4a:	7f 90       	pop	r7
    1f4c:	6f 90       	pop	r6
    1f4e:	5f 90       	pop	r5
    1f50:	4f 90       	pop	r4
    1f52:	08 95       	ret

00001f54 <subtract>:
    1f54:	4f 92       	push	r4
    1f56:	5f 92       	push	r5
    1f58:	6f 92       	push	r6
    1f5a:	7f 92       	push	r7
    1f5c:	af 92       	push	r10
    1f5e:	bf 92       	push	r11
    1f60:	cf 92       	push	r12
    1f62:	df 92       	push	r13
    1f64:	ef 92       	push	r14
    1f66:	ff 92       	push	r15
    1f68:	0f 93       	push	r16
    1f6a:	1f 93       	push	r17
    1f6c:	cf 93       	push	r28
    1f6e:	df 93       	push	r29
    1f70:	cd b7       	in	r28, 0x3d	; 61
    1f72:	de b7       	in	r29, 0x3e	; 62
    1f74:	2c 97       	sbiw	r28, 0x0c	; 12
    1f76:	0f b6       	in	r0, 0x3f	; 63
    1f78:	f8 94       	cli
    1f7a:	de bf       	out	0x3e, r29	; 62
    1f7c:	0f be       	out	0x3f, r0	; 63
    1f7e:	cd bf       	out	0x3d, r28	; 61
    1f80:	5c 01       	movw	r10, r24
    1f82:	c9 82       	std	Y+1, r12	; 0x01
    1f84:	da 82       	std	Y+2, r13	; 0x02
    1f86:	eb 82       	std	Y+3, r14	; 0x03
    1f88:	fc 82       	std	Y+4, r15	; 0x04
    1f8a:	0d 83       	std	Y+5, r16	; 0x05
    1f8c:	1e 83       	std	Y+6, r17	; 0x06
    1f8e:	2f 83       	std	Y+7, r18	; 0x07
    1f90:	38 87       	std	Y+8, r19	; 0x08
    1f92:	49 87       	std	Y+9, r20	; 0x09
    1f94:	5a 87       	std	Y+10, r21	; 0x0a
    1f96:	6b 87       	std	Y+11, r22	; 0x0b
    1f98:	7c 87       	std	Y+12, r23	; 0x0c
    1f9a:	29 a1       	ldd	r18, Y+33	; 0x21
    1f9c:	3a a1       	ldd	r19, Y+34	; 0x22
    1f9e:	4b a1       	ldd	r20, Y+35	; 0x23
    1fa0:	5c a1       	ldd	r21, Y+36	; 0x24
    1fa2:	6d 81       	ldd	r22, Y+5	; 0x05
    1fa4:	7e 81       	ldd	r23, Y+6	; 0x06
    1fa6:	8f 81       	ldd	r24, Y+7	; 0x07
    1fa8:	98 85       	ldd	r25, Y+8	; 0x08
    1faa:	40 d4       	rcall	.+2176   	; 0x282c <__subsf3>
    1fac:	2b 01       	movw	r4, r22
    1fae:	3c 01       	movw	r6, r24
    1fb0:	2d a1       	ldd	r18, Y+37	; 0x25
    1fb2:	3e a1       	ldd	r19, Y+38	; 0x26
    1fb4:	4f a1       	ldd	r20, Y+39	; 0x27
    1fb6:	58 a5       	ldd	r21, Y+40	; 0x28
    1fb8:	69 85       	ldd	r22, Y+9	; 0x09
    1fba:	7a 85       	ldd	r23, Y+10	; 0x0a
    1fbc:	8b 85       	ldd	r24, Y+11	; 0x0b
    1fbe:	9c 85       	ldd	r25, Y+12	; 0x0c
    1fc0:	35 d4       	rcall	.+2154   	; 0x282c <__subsf3>
    1fc2:	6b 01       	movw	r12, r22
    1fc4:	7c 01       	movw	r14, r24
    1fc6:	2d 8d       	ldd	r18, Y+29	; 0x1d
    1fc8:	3e 8d       	ldd	r19, Y+30	; 0x1e
    1fca:	4f 8d       	ldd	r20, Y+31	; 0x1f
    1fcc:	58 a1       	ldd	r21, Y+32	; 0x20
    1fce:	69 81       	ldd	r22, Y+1	; 0x01
    1fd0:	7a 81       	ldd	r23, Y+2	; 0x02
    1fd2:	8b 81       	ldd	r24, Y+3	; 0x03
    1fd4:	9c 81       	ldd	r25, Y+4	; 0x04
    1fd6:	2a d4       	rcall	.+2132   	; 0x282c <__subsf3>
    1fd8:	f5 01       	movw	r30, r10
    1fda:	60 83       	st	Z, r22
    1fdc:	71 83       	std	Z+1, r23	; 0x01
    1fde:	82 83       	std	Z+2, r24	; 0x02
    1fe0:	93 83       	std	Z+3, r25	; 0x03
    1fe2:	44 82       	std	Z+4, r4	; 0x04
    1fe4:	55 82       	std	Z+5, r5	; 0x05
    1fe6:	66 82       	std	Z+6, r6	; 0x06
    1fe8:	77 82       	std	Z+7, r7	; 0x07
    1fea:	c0 86       	std	Z+8, r12	; 0x08
    1fec:	d1 86       	std	Z+9, r13	; 0x09
    1fee:	e2 86       	std	Z+10, r14	; 0x0a
    1ff0:	f3 86       	std	Z+11, r15	; 0x0b
    1ff2:	c5 01       	movw	r24, r10
    1ff4:	2c 96       	adiw	r28, 0x0c	; 12
    1ff6:	0f b6       	in	r0, 0x3f	; 63
    1ff8:	f8 94       	cli
    1ffa:	de bf       	out	0x3e, r29	; 62
    1ffc:	0f be       	out	0x3f, r0	; 63
    1ffe:	cd bf       	out	0x3d, r28	; 61
    2000:	df 91       	pop	r29
    2002:	cf 91       	pop	r28
    2004:	1f 91       	pop	r17
    2006:	0f 91       	pop	r16
    2008:	ff 90       	pop	r15
    200a:	ef 90       	pop	r14
    200c:	df 90       	pop	r13
    200e:	cf 90       	pop	r12
    2010:	bf 90       	pop	r11
    2012:	af 90       	pop	r10
    2014:	7f 90       	pop	r7
    2016:	6f 90       	pop	r6
    2018:	5f 90       	pop	r5
    201a:	4f 90       	pop	r4
    201c:	08 95       	ret

0000201e <magnitude>:
    201e:	4f 92       	push	r4
    2020:	5f 92       	push	r5
    2022:	6f 92       	push	r6
    2024:	7f 92       	push	r7
    2026:	8f 92       	push	r8
    2028:	9f 92       	push	r9
    202a:	af 92       	push	r10
    202c:	bf 92       	push	r11
    202e:	cf 92       	push	r12
    2030:	df 92       	push	r13
    2032:	ef 92       	push	r14
    2034:	ff 92       	push	r15
    2036:	0f 93       	push	r16
    2038:	1f 93       	push	r17
    203a:	cf 93       	push	r28
    203c:	df 93       	push	r29
    203e:	cd b7       	in	r28, 0x3d	; 61
    2040:	de b7       	in	r29, 0x3e	; 62
    2042:	2c 97       	sbiw	r28, 0x0c	; 12
    2044:	0f b6       	in	r0, 0x3f	; 63
    2046:	f8 94       	cli
    2048:	de bf       	out	0x3e, r29	; 62
    204a:	0f be       	out	0x3f, r0	; 63
    204c:	cd bf       	out	0x3d, r28	; 61
    204e:	e9 82       	std	Y+1, r14	; 0x01
    2050:	fa 82       	std	Y+2, r15	; 0x02
    2052:	0b 83       	std	Y+3, r16	; 0x03
    2054:	1c 83       	std	Y+4, r17	; 0x04
    2056:	2d 83       	std	Y+5, r18	; 0x05
    2058:	3e 83       	std	Y+6, r19	; 0x06
    205a:	4f 83       	std	Y+7, r20	; 0x07
    205c:	58 87       	std	Y+8, r21	; 0x08
    205e:	69 87       	std	Y+9, r22	; 0x09
    2060:	7a 87       	std	Y+10, r23	; 0x0a
    2062:	8b 87       	std	Y+11, r24	; 0x0b
    2064:	9c 87       	std	Y+12, r25	; 0x0c
    2066:	69 81       	ldd	r22, Y+1	; 0x01
    2068:	7a 81       	ldd	r23, Y+2	; 0x02
    206a:	8b 81       	ldd	r24, Y+3	; 0x03
    206c:	9c 81       	ldd	r25, Y+4	; 0x04
    206e:	8d 80       	ldd	r8, Y+5	; 0x05
    2070:	9e 80       	ldd	r9, Y+6	; 0x06
    2072:	af 80       	ldd	r10, Y+7	; 0x07
    2074:	b8 84       	ldd	r11, Y+8	; 0x08
    2076:	c9 84       	ldd	r12, Y+9	; 0x09
    2078:	da 84       	ldd	r13, Y+10	; 0x0a
    207a:	eb 84       	ldd	r14, Y+11	; 0x0b
    207c:	fc 84       	ldd	r15, Y+12	; 0x0c
    207e:	9b 01       	movw	r18, r22
    2080:	ac 01       	movw	r20, r24
    2082:	2b d6       	rcall	.+3158   	; 0x2cda <__mulsf3>
    2084:	2b 01       	movw	r4, r22
    2086:	3c 01       	movw	r6, r24
    2088:	a5 01       	movw	r20, r10
    208a:	94 01       	movw	r18, r8
    208c:	c5 01       	movw	r24, r10
    208e:	b4 01       	movw	r22, r8
    2090:	24 d6       	rcall	.+3144   	; 0x2cda <__mulsf3>
    2092:	9b 01       	movw	r18, r22
    2094:	ac 01       	movw	r20, r24
    2096:	c3 01       	movw	r24, r6
    2098:	b2 01       	movw	r22, r4
    209a:	c9 d3       	rcall	.+1938   	; 0x282e <__addsf3>
    209c:	4b 01       	movw	r8, r22
    209e:	5c 01       	movw	r10, r24
    20a0:	a7 01       	movw	r20, r14
    20a2:	96 01       	movw	r18, r12
    20a4:	c7 01       	movw	r24, r14
    20a6:	b6 01       	movw	r22, r12
    20a8:	18 d6       	rcall	.+3120   	; 0x2cda <__mulsf3>
    20aa:	9b 01       	movw	r18, r22
    20ac:	ac 01       	movw	r20, r24
    20ae:	c5 01       	movw	r24, r10
    20b0:	b4 01       	movw	r22, r8
    20b2:	bd d3       	rcall	.+1914   	; 0x282e <__addsf3>
    20b4:	2c 96       	adiw	r28, 0x0c	; 12
    20b6:	0f b6       	in	r0, 0x3f	; 63
    20b8:	f8 94       	cli
    20ba:	de bf       	out	0x3e, r29	; 62
    20bc:	0f be       	out	0x3f, r0	; 63
    20be:	cd bf       	out	0x3d, r28	; 61
    20c0:	df 91       	pop	r29
    20c2:	cf 91       	pop	r28
    20c4:	1f 91       	pop	r17
    20c6:	0f 91       	pop	r16
    20c8:	ff 90       	pop	r15
    20ca:	ef 90       	pop	r14
    20cc:	df 90       	pop	r13
    20ce:	cf 90       	pop	r12
    20d0:	bf 90       	pop	r11
    20d2:	af 90       	pop	r10
    20d4:	9f 90       	pop	r9
    20d6:	8f 90       	pop	r8
    20d8:	7f 90       	pop	r7
    20da:	6f 90       	pop	r6
    20dc:	5f 90       	pop	r5
    20de:	4f 90       	pop	r4
    20e0:	69 c6       	rjmp	.+3282   	; 0x2db4 <sqrt>

000020e2 <rotate>:
    20e2:	4f 92       	push	r4
    20e4:	5f 92       	push	r5
    20e6:	6f 92       	push	r6
    20e8:	7f 92       	push	r7
    20ea:	8f 92       	push	r8
    20ec:	9f 92       	push	r9
    20ee:	af 92       	push	r10
    20f0:	bf 92       	push	r11
    20f2:	cf 92       	push	r12
    20f4:	df 92       	push	r13
    20f6:	ef 92       	push	r14
    20f8:	ff 92       	push	r15
    20fa:	0f 93       	push	r16
    20fc:	1f 93       	push	r17
    20fe:	cf 93       	push	r28
    2100:	df 93       	push	r29
    2102:	cd b7       	in	r28, 0x3d	; 61
    2104:	de b7       	in	r29, 0x3e	; 62
    2106:	cc 54       	subi	r28, 0x4C	; 76
    2108:	d1 09       	sbc	r29, r1
    210a:	0f b6       	in	r0, 0x3f	; 63
    210c:	f8 94       	cli
    210e:	de bf       	out	0x3e, r29	; 62
    2110:	0f be       	out	0x3f, r0	; 63
    2112:	cd bf       	out	0x3d, r28	; 61
    2114:	3c 01       	movw	r6, r24
    2116:	4c 2c       	mov	r4, r12
    2118:	22 96       	adiw	r28, 0x02	; 2
    211a:	cf ae       	std	Y+63, r12	; 0x3f
    211c:	22 97       	sbiw	r28, 0x02	; 2
    211e:	5d 2c       	mov	r5, r13
    2120:	23 96       	adiw	r28, 0x03	; 3
    2122:	df ae       	std	Y+63, r13	; 0x3f
    2124:	23 97       	sbiw	r28, 0x03	; 3
    2126:	8e 2c       	mov	r8, r14
    2128:	24 96       	adiw	r28, 0x04	; 4
    212a:	ef ae       	std	Y+63, r14	; 0x3f
    212c:	24 97       	sbiw	r28, 0x04	; 4
    212e:	9f 2c       	mov	r9, r15
    2130:	25 96       	adiw	r28, 0x05	; 5
    2132:	ff ae       	std	Y+63, r15	; 0x3f
    2134:	25 97       	sbiw	r28, 0x05	; 5
    2136:	a0 2e       	mov	r10, r16
    2138:	26 96       	adiw	r28, 0x06	; 6
    213a:	0f af       	std	Y+63, r16	; 0x3f
    213c:	26 97       	sbiw	r28, 0x06	; 6
    213e:	b1 2e       	mov	r11, r17
    2140:	27 96       	adiw	r28, 0x07	; 7
    2142:	1f af       	std	Y+63, r17	; 0x3f
    2144:	27 97       	sbiw	r28, 0x07	; 7
    2146:	28 96       	adiw	r28, 0x08	; 8
    2148:	2f af       	std	Y+63, r18	; 0x3f
    214a:	28 97       	sbiw	r28, 0x08	; 8
    214c:	29 96       	adiw	r28, 0x09	; 9
    214e:	3f af       	std	Y+63, r19	; 0x3f
    2150:	29 97       	sbiw	r28, 0x09	; 9
    2152:	2a 96       	adiw	r28, 0x0a	; 10
    2154:	4f af       	std	Y+63, r20	; 0x3f
    2156:	2a 97       	sbiw	r28, 0x0a	; 10
    2158:	2b 96       	adiw	r28, 0x0b	; 11
    215a:	5f af       	std	Y+63, r21	; 0x3f
    215c:	2b 97       	sbiw	r28, 0x0b	; 11
    215e:	2c 96       	adiw	r28, 0x0c	; 12
    2160:	6f af       	std	Y+63, r22	; 0x3f
    2162:	2c 97       	sbiw	r28, 0x0c	; 12
    2164:	2d 96       	adiw	r28, 0x0d	; 13
    2166:	7f af       	std	Y+63, r23	; 0x3f
    2168:	2d 97       	sbiw	r28, 0x0d	; 13
    216a:	62 01       	movw	r12, r4
    216c:	74 01       	movw	r14, r8
    216e:	85 01       	movw	r16, r10
    2170:	ce 01       	movw	r24, r28
    2172:	c1 96       	adiw	r24, 0x31	; 49
    2174:	88 db       	rcall	.-2288   	; 0x1886 <convVecToQuat>
    2176:	a0 96       	adiw	r28, 0x20	; 32
    2178:	8f ac       	ldd	r8, Y+63	; 0x3f
    217a:	a0 97       	sbiw	r28, 0x20	; 32
    217c:	a1 96       	adiw	r28, 0x21	; 33
    217e:	9f ac       	ldd	r9, Y+63	; 0x3f
    2180:	a1 97       	sbiw	r28, 0x21	; 33
    2182:	a2 96       	adiw	r28, 0x22	; 34
    2184:	af ac       	ldd	r10, Y+63	; 0x3f
    2186:	a2 97       	sbiw	r28, 0x22	; 34
    2188:	a3 96       	adiw	r28, 0x23	; 35
    218a:	bf ac       	ldd	r11, Y+63	; 0x3f
    218c:	a3 97       	sbiw	r28, 0x23	; 35
    218e:	a4 96       	adiw	r28, 0x24	; 36
    2190:	cf ac       	ldd	r12, Y+63	; 0x3f
    2192:	a4 97       	sbiw	r28, 0x24	; 36
    2194:	a5 96       	adiw	r28, 0x25	; 37
    2196:	df ac       	ldd	r13, Y+63	; 0x3f
    2198:	a5 97       	sbiw	r28, 0x25	; 37
    219a:	a6 96       	adiw	r28, 0x26	; 38
    219c:	ef ac       	ldd	r14, Y+63	; 0x3f
    219e:	a6 97       	sbiw	r28, 0x26	; 38
    21a0:	a7 96       	adiw	r28, 0x27	; 39
    21a2:	ff ac       	ldd	r15, Y+63	; 0x3f
    21a4:	a7 97       	sbiw	r28, 0x27	; 39
    21a6:	a8 96       	adiw	r28, 0x28	; 40
    21a8:	0f ad       	ldd	r16, Y+63	; 0x3f
    21aa:	a8 97       	sbiw	r28, 0x28	; 40
    21ac:	a9 96       	adiw	r28, 0x29	; 41
    21ae:	1f ad       	ldd	r17, Y+63	; 0x3f
    21b0:	a9 97       	sbiw	r28, 0x29	; 41
    21b2:	aa 96       	adiw	r28, 0x2a	; 42
    21b4:	2f ad       	ldd	r18, Y+63	; 0x3f
    21b6:	aa 97       	sbiw	r28, 0x2a	; 42
    21b8:	ab 96       	adiw	r28, 0x2b	; 43
    21ba:	3f ad       	ldd	r19, Y+63	; 0x3f
    21bc:	ab 97       	sbiw	r28, 0x2b	; 43
    21be:	ac 96       	adiw	r28, 0x2c	; 44
    21c0:	4f ad       	ldd	r20, Y+63	; 0x3f
    21c2:	ac 97       	sbiw	r28, 0x2c	; 44
    21c4:	ad 96       	adiw	r28, 0x2d	; 45
    21c6:	5f ad       	ldd	r21, Y+63	; 0x3f
    21c8:	ad 97       	sbiw	r28, 0x2d	; 45
    21ca:	ae 96       	adiw	r28, 0x2e	; 46
    21cc:	6f ad       	ldd	r22, Y+63	; 0x3f
    21ce:	ae 97       	sbiw	r28, 0x2e	; 46
    21d0:	af 96       	adiw	r28, 0x2f	; 47
    21d2:	7f ad       	ldd	r23, Y+63	; 0x3f
    21d4:	af 97       	sbiw	r28, 0x2f	; 47
    21d6:	ce 01       	movw	r24, r28
    21d8:	41 96       	adiw	r24, 0x11	; 17
    21da:	9d db       	rcall	.-2246   	; 0x1916 <conjugate>
    21dc:	8d b7       	in	r24, 0x3d	; 61
    21de:	9e b7       	in	r25, 0x3e	; 62
    21e0:	40 97       	sbiw	r24, 0x10	; 16
    21e2:	0f b6       	in	r0, 0x3f	; 63
    21e4:	f8 94       	cli
    21e6:	9e bf       	out	0x3e, r25	; 62
    21e8:	0f be       	out	0x3f, r0	; 63
    21ea:	8d bf       	out	0x3d, r24	; 61
    21ec:	ad b7       	in	r26, 0x3d	; 61
    21ee:	be b7       	in	r27, 0x3e	; 62
    21f0:	11 96       	adiw	r26, 0x01	; 1
    21f2:	80 e1       	ldi	r24, 0x10	; 16
    21f4:	fe 01       	movw	r30, r28
    21f6:	f1 96       	adiw	r30, 0x31	; 49
    21f8:	01 90       	ld	r0, Z+
    21fa:	0d 92       	st	X+, r0
    21fc:	8a 95       	dec	r24
    21fe:	e1 f7       	brne	.-8      	; 0x21f8 <rotate+0x116>
    2200:	a0 96       	adiw	r28, 0x20	; 32
    2202:	8f ac       	ldd	r8, Y+63	; 0x3f
    2204:	a0 97       	sbiw	r28, 0x20	; 32
    2206:	a1 96       	adiw	r28, 0x21	; 33
    2208:	9f ac       	ldd	r9, Y+63	; 0x3f
    220a:	a1 97       	sbiw	r28, 0x21	; 33
    220c:	a2 96       	adiw	r28, 0x22	; 34
    220e:	af ac       	ldd	r10, Y+63	; 0x3f
    2210:	a2 97       	sbiw	r28, 0x22	; 34
    2212:	a3 96       	adiw	r28, 0x23	; 35
    2214:	bf ac       	ldd	r11, Y+63	; 0x3f
    2216:	a3 97       	sbiw	r28, 0x23	; 35
    2218:	a4 96       	adiw	r28, 0x24	; 36
    221a:	cf ac       	ldd	r12, Y+63	; 0x3f
    221c:	a4 97       	sbiw	r28, 0x24	; 36
    221e:	a5 96       	adiw	r28, 0x25	; 37
    2220:	df ac       	ldd	r13, Y+63	; 0x3f
    2222:	a5 97       	sbiw	r28, 0x25	; 37
    2224:	a6 96       	adiw	r28, 0x26	; 38
    2226:	ef ac       	ldd	r14, Y+63	; 0x3f
    2228:	a6 97       	sbiw	r28, 0x26	; 38
    222a:	a7 96       	adiw	r28, 0x27	; 39
    222c:	ff ac       	ldd	r15, Y+63	; 0x3f
    222e:	a7 97       	sbiw	r28, 0x27	; 39
    2230:	a8 96       	adiw	r28, 0x28	; 40
    2232:	0f ad       	ldd	r16, Y+63	; 0x3f
    2234:	a8 97       	sbiw	r28, 0x28	; 40
    2236:	a9 96       	adiw	r28, 0x29	; 41
    2238:	1f ad       	ldd	r17, Y+63	; 0x3f
    223a:	a9 97       	sbiw	r28, 0x29	; 41
    223c:	aa 96       	adiw	r28, 0x2a	; 42
    223e:	2f ad       	ldd	r18, Y+63	; 0x3f
    2240:	aa 97       	sbiw	r28, 0x2a	; 42
    2242:	ab 96       	adiw	r28, 0x2b	; 43
    2244:	3f ad       	ldd	r19, Y+63	; 0x3f
    2246:	ab 97       	sbiw	r28, 0x2b	; 43
    2248:	ac 96       	adiw	r28, 0x2c	; 44
    224a:	4f ad       	ldd	r20, Y+63	; 0x3f
    224c:	ac 97       	sbiw	r28, 0x2c	; 44
    224e:	ad 96       	adiw	r28, 0x2d	; 45
    2250:	5f ad       	ldd	r21, Y+63	; 0x3f
    2252:	ad 97       	sbiw	r28, 0x2d	; 45
    2254:	ae 96       	adiw	r28, 0x2e	; 46
    2256:	6f ad       	ldd	r22, Y+63	; 0x3f
    2258:	ae 97       	sbiw	r28, 0x2e	; 46
    225a:	af 96       	adiw	r28, 0x2f	; 47
    225c:	7f ad       	ldd	r23, Y+63	; 0x3f
    225e:	af 97       	sbiw	r28, 0x2f	; 47
    2260:	ce 01       	movw	r24, r28
    2262:	01 96       	adiw	r24, 0x01	; 1
    2264:	b6 db       	rcall	.-2196   	; 0x19d2 <hamiltonP>
    2266:	ed b7       	in	r30, 0x3d	; 61
    2268:	fe b7       	in	r31, 0x3e	; 62
    226a:	70 97       	sbiw	r30, 0x10	; 16
    226c:	0f b6       	in	r0, 0x3f	; 63
    226e:	f8 94       	cli
    2270:	fe bf       	out	0x3e, r31	; 62
    2272:	0f be       	out	0x3f, r0	; 63
    2274:	ed bf       	out	0x3d, r30	; 61
    2276:	ad b7       	in	r26, 0x3d	; 61
    2278:	be b7       	in	r27, 0x3e	; 62
    227a:	11 96       	adiw	r26, 0x01	; 1
    227c:	80 e1       	ldi	r24, 0x10	; 16
    227e:	fe 01       	movw	r30, r28
    2280:	71 96       	adiw	r30, 0x11	; 17
    2282:	01 90       	ld	r0, Z+
    2284:	0d 92       	st	X+, r0
    2286:	8a 95       	dec	r24
    2288:	e1 f7       	brne	.-8      	; 0x2282 <rotate+0x1a0>
    228a:	89 80       	ldd	r8, Y+1	; 0x01
    228c:	9a 80       	ldd	r9, Y+2	; 0x02
    228e:	ab 80       	ldd	r10, Y+3	; 0x03
    2290:	bc 80       	ldd	r11, Y+4	; 0x04
    2292:	cd 80       	ldd	r12, Y+5	; 0x05
    2294:	de 80       	ldd	r13, Y+6	; 0x06
    2296:	ef 80       	ldd	r14, Y+7	; 0x07
    2298:	f8 84       	ldd	r15, Y+8	; 0x08
    229a:	09 85       	ldd	r16, Y+9	; 0x09
    229c:	1a 85       	ldd	r17, Y+10	; 0x0a
    229e:	2b 85       	ldd	r18, Y+11	; 0x0b
    22a0:	3c 85       	ldd	r19, Y+12	; 0x0c
    22a2:	4d 85       	ldd	r20, Y+13	; 0x0d
    22a4:	5e 85       	ldd	r21, Y+14	; 0x0e
    22a6:	6f 85       	ldd	r22, Y+15	; 0x0f
    22a8:	78 89       	ldd	r23, Y+16	; 0x10
    22aa:	ce 01       	movw	r24, r28
    22ac:	81 96       	adiw	r24, 0x21	; 33
    22ae:	91 db       	rcall	.-2270   	; 0x19d2 <hamiltonP>
    22b0:	49 a5       	ldd	r20, Y+41	; 0x29
    22b2:	5a a5       	ldd	r21, Y+42	; 0x2a
    22b4:	6b a5       	ldd	r22, Y+43	; 0x2b
    22b6:	7c a5       	ldd	r23, Y+44	; 0x2c
    22b8:	8d a5       	ldd	r24, Y+45	; 0x2d
    22ba:	9e a5       	ldd	r25, Y+46	; 0x2e
    22bc:	af a5       	ldd	r26, Y+47	; 0x2f
    22be:	b8 a9       	ldd	r27, Y+48	; 0x30
    22c0:	0d a1       	ldd	r16, Y+37	; 0x25
    22c2:	1e a1       	ldd	r17, Y+38	; 0x26
    22c4:	2f a1       	ldd	r18, Y+39	; 0x27
    22c6:	38 a5       	ldd	r19, Y+40	; 0x28
    22c8:	f3 01       	movw	r30, r6
    22ca:	00 83       	st	Z, r16
    22cc:	11 83       	std	Z+1, r17	; 0x01
    22ce:	22 83       	std	Z+2, r18	; 0x02
    22d0:	33 83       	std	Z+3, r19	; 0x03
    22d2:	44 83       	std	Z+4, r20	; 0x04
    22d4:	55 83       	std	Z+5, r21	; 0x05
    22d6:	66 83       	std	Z+6, r22	; 0x06
    22d8:	77 83       	std	Z+7, r23	; 0x07
    22da:	80 87       	std	Z+8, r24	; 0x08
    22dc:	91 87       	std	Z+9, r25	; 0x09
    22de:	a2 87       	std	Z+10, r26	; 0x0a
    22e0:	b3 87       	std	Z+11, r27	; 0x0b
    22e2:	0f b6       	in	r0, 0x3f	; 63
    22e4:	f8 94       	cli
    22e6:	de bf       	out	0x3e, r29	; 62
    22e8:	0f be       	out	0x3f, r0	; 63
    22ea:	cd bf       	out	0x3d, r28	; 61
    22ec:	c3 01       	movw	r24, r6
    22ee:	c4 5b       	subi	r28, 0xB4	; 180
    22f0:	df 4f       	sbci	r29, 0xFF	; 255
    22f2:	0f b6       	in	r0, 0x3f	; 63
    22f4:	f8 94       	cli
    22f6:	de bf       	out	0x3e, r29	; 62
    22f8:	0f be       	out	0x3f, r0	; 63
    22fa:	cd bf       	out	0x3d, r28	; 61
    22fc:	df 91       	pop	r29
    22fe:	cf 91       	pop	r28
    2300:	1f 91       	pop	r17
    2302:	0f 91       	pop	r16
    2304:	ff 90       	pop	r15
    2306:	ef 90       	pop	r14
    2308:	df 90       	pop	r13
    230a:	cf 90       	pop	r12
    230c:	bf 90       	pop	r11
    230e:	af 90       	pop	r10
    2310:	9f 90       	pop	r9
    2312:	8f 90       	pop	r8
    2314:	7f 90       	pop	r7
    2316:	6f 90       	pop	r6
    2318:	5f 90       	pop	r5
    231a:	4f 90       	pop	r4
    231c:	08 95       	ret

0000231e <__vector_9>:
    231e:	1f 92       	push	r1
    2320:	0f 92       	push	r0
    2322:	0f b6       	in	r0, 0x3f	; 63
    2324:	0f 92       	push	r0
    2326:	11 24       	eor	r1, r1
    2328:	2f 93       	push	r18
    232a:	8f 93       	push	r24
    232c:	9f 93       	push	r25
    232e:	80 91 4d 01 	lds	r24, 0x014D	; 0x80014d <turnOnCounter>
    2332:	90 91 4e 01 	lds	r25, 0x014E	; 0x80014e <turnOnCounter+0x1>
    2336:	01 96       	adiw	r24, 0x01	; 1
    2338:	90 93 4e 01 	sts	0x014E, r25	; 0x80014e <turnOnCounter+0x1>
    233c:	80 93 4d 01 	sts	0x014D, r24	; 0x80014d <turnOnCounter>
    2340:	8f ef       	ldi	r24, 0xFF	; 255
    2342:	80 93 b3 00 	sts	0x00B3, r24	; 0x8000b3 <__DATA_REGION_ORIGIN__+0x53>
    2346:	80 91 4d 01 	lds	r24, 0x014D	; 0x80014d <turnOnCounter>
    234a:	90 91 4e 01 	lds	r25, 0x014E	; 0x80014e <turnOnCounter+0x1>
    234e:	85 33       	cpi	r24, 0x35	; 53
    2350:	9c 40       	sbci	r25, 0x0C	; 12
    2352:	48 f0       	brcs	.+18     	; 0x2366 <__vector_9+0x48>
    2354:	85 b5       	in	r24, 0x25	; 37
    2356:	81 60       	ori	r24, 0x01	; 1
    2358:	85 bd       	out	0x25, r24	; 37
    235a:	10 92 4e 01 	sts	0x014E, r1	; 0x80014e <turnOnCounter+0x1>
    235e:	10 92 4d 01 	sts	0x014D, r1	; 0x80014d <turnOnCounter>
    2362:	8f e3       	ldi	r24, 0x3F	; 63
    2364:	82 b9       	out	0x02, r24	; 2
    2366:	9f 91       	pop	r25
    2368:	8f 91       	pop	r24
    236a:	2f 91       	pop	r18
    236c:	0f 90       	pop	r0
    236e:	0f be       	out	0x3f, r0	; 63
    2370:	0f 90       	pop	r0
    2372:	1f 90       	pop	r1
    2374:	18 95       	reti

00002376 <__vector_16>:
    2376:	1f 92       	push	r1
    2378:	0f 92       	push	r0
    237a:	0f b6       	in	r0, 0x3f	; 63
    237c:	0f 92       	push	r0
    237e:	11 24       	eor	r1, r1
    2380:	2f 93       	push	r18
    2382:	3f 93       	push	r19
    2384:	4f 93       	push	r20
    2386:	5f 93       	push	r21
    2388:	6f 93       	push	r22
    238a:	7f 93       	push	r23
    238c:	8f 93       	push	r24
    238e:	9f 93       	push	r25
    2390:	ef 93       	push	r30
    2392:	ff 93       	push	r31
    2394:	80 91 4f 01 	lds	r24, 0x014F	; 0x80014f <turnOffCounter>
    2398:	90 91 50 01 	lds	r25, 0x0150	; 0x800150 <turnOffCounter+0x1>
    239c:	01 96       	adiw	r24, 0x01	; 1
    239e:	90 93 50 01 	sts	0x0150, r25	; 0x800150 <turnOffCounter+0x1>
    23a2:	80 93 4f 01 	sts	0x014F, r24	; 0x80014f <turnOffCounter>
    23a6:	8f ef       	ldi	r24, 0xFF	; 255
    23a8:	87 bd       	out	0x27, r24	; 39
    23aa:	e0 91 4c 01 	lds	r30, 0x014C	; 0x80014c <pinCounter>
    23ae:	64 e0       	ldi	r22, 0x04	; 4
    23b0:	e6 9f       	mul	r30, r22
    23b2:	f0 01       	movw	r30, r0
    23b4:	11 24       	eor	r1, r1
    23b6:	e7 5a       	subi	r30, 0xA7	; 167
    23b8:	fd 4f       	sbci	r31, 0xFD	; 253
    23ba:	20 81       	ld	r18, Z
    23bc:	31 81       	ldd	r19, Z+1	; 0x01
    23be:	80 91 4f 01 	lds	r24, 0x014F	; 0x80014f <turnOffCounter>
    23c2:	90 91 50 01 	lds	r25, 0x0150	; 0x800150 <turnOffCounter+0x1>
    23c6:	28 17       	cp	r18, r24
    23c8:	39 07       	cpc	r19, r25
    23ca:	08 f0       	brcs	.+2      	; 0x23ce <__vector_16+0x58>
    23cc:	68 c0       	rjmp	.+208    	; 0x249e <__vector_16+0x128>
    23ce:	e0 91 4c 01 	lds	r30, 0x014C	; 0x80014c <pinCounter>
    23d2:	74 e0       	ldi	r23, 0x04	; 4
    23d4:	e7 9f       	mul	r30, r23
    23d6:	f0 01       	movw	r30, r0
    23d8:	11 24       	eor	r1, r1
    23da:	e7 5a       	subi	r30, 0xA7	; 167
    23dc:	fd 4f       	sbci	r31, 0xFD	; 253
    23de:	82 81       	ldd	r24, Z+2	; 0x02
    23e0:	87 bd       	out	0x27, r24	; 39
    23e2:	e0 91 4c 01 	lds	r30, 0x014C	; 0x80014c <pinCounter>
    23e6:	84 e0       	ldi	r24, 0x04	; 4
    23e8:	e8 9f       	mul	r30, r24
    23ea:	f0 01       	movw	r30, r0
    23ec:	11 24       	eor	r1, r1
    23ee:	e7 5a       	subi	r30, 0xA7	; 167
    23f0:	fd 4f       	sbci	r31, 0xFD	; 253
    23f2:	33 81       	ldd	r19, Z+3	; 0x03
    23f4:	22 b1       	in	r18, 0x02	; 2
    23f6:	81 e0       	ldi	r24, 0x01	; 1
    23f8:	90 e0       	ldi	r25, 0x00	; 0
    23fa:	02 c0       	rjmp	.+4      	; 0x2400 <__vector_16+0x8a>
    23fc:	88 0f       	add	r24, r24
    23fe:	99 1f       	adc	r25, r25
    2400:	3a 95       	dec	r19
    2402:	e2 f7       	brpl	.-8      	; 0x23fc <__vector_16+0x86>
    2404:	80 95       	com	r24
    2406:	90 95       	com	r25
    2408:	82 23       	and	r24, r18
    240a:	82 b9       	out	0x02, r24	; 2
    240c:	10 92 50 01 	sts	0x0150, r1	; 0x800150 <turnOffCounter+0x1>
    2410:	10 92 4f 01 	sts	0x014F, r1	; 0x80014f <turnOffCounter>
    2414:	21 e0       	ldi	r18, 0x01	; 1
    2416:	30 e0       	ldi	r19, 0x00	; 0
    2418:	e0 91 4c 01 	lds	r30, 0x014C	; 0x80014c <pinCounter>
    241c:	74 e0       	ldi	r23, 0x04	; 4
    241e:	e7 9f       	mul	r30, r23
    2420:	f0 01       	movw	r30, r0
    2422:	11 24       	eor	r1, r1
    2424:	e7 5a       	subi	r30, 0xA7	; 167
    2426:	fd 4f       	sbci	r31, 0xFD	; 253
    2428:	40 81       	ld	r20, Z
    242a:	51 81       	ldd	r21, Z+1	; 0x01
    242c:	e0 91 4c 01 	lds	r30, 0x014C	; 0x80014c <pinCounter>
    2430:	84 e0       	ldi	r24, 0x04	; 4
    2432:	e8 9f       	mul	r30, r24
    2434:	f0 01       	movw	r30, r0
    2436:	11 24       	eor	r1, r1
    2438:	e3 5a       	subi	r30, 0xA3	; 163
    243a:	fd 4f       	sbci	r31, 0xFD	; 253
    243c:	80 81       	ld	r24, Z
    243e:	91 81       	ldd	r25, Z+1	; 0x01
    2440:	48 17       	cp	r20, r24
    2442:	59 07       	cpc	r21, r25
    2444:	f9 f4       	brne	.+62     	; 0x2484 <__vector_16+0x10e>
    2446:	80 91 4c 01 	lds	r24, 0x014C	; 0x80014c <pinCounter>
    244a:	85 30       	cpi	r24, 0x05	; 5
    244c:	d8 f4       	brcc	.+54     	; 0x2484 <__vector_16+0x10e>
    244e:	e0 91 4c 01 	lds	r30, 0x014C	; 0x80014c <pinCounter>
    2452:	64 e0       	ldi	r22, 0x04	; 4
    2454:	e6 9f       	mul	r30, r22
    2456:	f0 01       	movw	r30, r0
    2458:	11 24       	eor	r1, r1
    245a:	e3 5a       	subi	r30, 0xA3	; 163
    245c:	fd 4f       	sbci	r31, 0xFD	; 253
    245e:	83 81       	ldd	r24, Z+3	; 0x03
    2460:	42 b1       	in	r20, 0x02	; 2
    2462:	b9 01       	movw	r22, r18
    2464:	02 c0       	rjmp	.+4      	; 0x246a <__vector_16+0xf4>
    2466:	66 0f       	add	r22, r22
    2468:	77 1f       	adc	r23, r23
    246a:	8a 95       	dec	r24
    246c:	e2 f7       	brpl	.-8      	; 0x2466 <__vector_16+0xf0>
    246e:	cb 01       	movw	r24, r22
    2470:	80 95       	com	r24
    2472:	90 95       	com	r25
    2474:	84 23       	and	r24, r20
    2476:	82 b9       	out	0x02, r24	; 2
    2478:	80 91 4c 01 	lds	r24, 0x014C	; 0x80014c <pinCounter>
    247c:	8f 5f       	subi	r24, 0xFF	; 255
    247e:	80 93 4c 01 	sts	0x014C, r24	; 0x80014c <pinCounter>
    2482:	ca cf       	rjmp	.-108    	; 0x2418 <__vector_16+0xa2>
    2484:	80 91 4c 01 	lds	r24, 0x014C	; 0x80014c <pinCounter>
    2488:	8f 5f       	subi	r24, 0xFF	; 255
    248a:	80 93 4c 01 	sts	0x014C, r24	; 0x80014c <pinCounter>
    248e:	80 91 4c 01 	lds	r24, 0x014C	; 0x80014c <pinCounter>
    2492:	86 30       	cpi	r24, 0x06	; 6
    2494:	21 f4       	brne	.+8      	; 0x249e <__vector_16+0x128>
    2496:	10 92 4c 01 	sts	0x014C, r1	; 0x80014c <pinCounter>
    249a:	12 b8       	out	0x02, r1	; 2
    249c:	15 bc       	out	0x25, r1	; 37
    249e:	ff 91       	pop	r31
    24a0:	ef 91       	pop	r30
    24a2:	9f 91       	pop	r25
    24a4:	8f 91       	pop	r24
    24a6:	7f 91       	pop	r23
    24a8:	6f 91       	pop	r22
    24aa:	5f 91       	pop	r21
    24ac:	4f 91       	pop	r20
    24ae:	3f 91       	pop	r19
    24b0:	2f 91       	pop	r18
    24b2:	0f 90       	pop	r0
    24b4:	0f be       	out	0x3f, r0	; 63
    24b6:	0f 90       	pop	r0
    24b8:	1f 90       	pop	r1
    24ba:	18 95       	reti

000024bc <calculatePwm>:
    24bc:	26 2f       	mov	r18, r22
    24be:	34 e6       	ldi	r19, 0x64	; 100
    24c0:	83 9f       	mul	r24, r19
    24c2:	c0 01       	movw	r24, r0
    24c4:	11 24       	eor	r1, r1
    24c6:	6f ef       	ldi	r22, 0xFF	; 255
    24c8:	70 e0       	ldi	r23, 0x00	; 0
    24ca:	ca d4       	rcall	.+2452   	; 0x2e60 <__divmodhi4>
    24cc:	22 23       	and	r18, r18
    24ce:	11 f0       	breq	.+4      	; 0x24d4 <calculatePwm+0x18>
    24d0:	6c 59       	subi	r22, 0x9C	; 156
    24d2:	7f 4f       	sbci	r23, 0xFF	; 255
    24d4:	20 ea       	ldi	r18, 0xA0	; 160
    24d6:	26 9f       	mul	r18, r22
    24d8:	c0 01       	movw	r24, r0
    24da:	27 9f       	mul	r18, r23
    24dc:	90 0d       	add	r25, r0
    24de:	11 24       	eor	r1, r1
    24e0:	79 2f       	mov	r23, r25
    24e2:	77 0f       	add	r23, r23
    24e4:	77 0b       	sbc	r23, r23
    24e6:	69 2f       	mov	r22, r25
    24e8:	08 95       	ret

000024ea <loadTimerValues>:
    24ea:	af 92       	push	r10
    24ec:	bf 92       	push	r11
    24ee:	cf 92       	push	r12
    24f0:	df 92       	push	r13
    24f2:	ef 92       	push	r14
    24f4:	ff 92       	push	r15
    24f6:	0f 93       	push	r16
    24f8:	1f 93       	push	r17
    24fa:	cf 93       	push	r28
    24fc:	df 93       	push	r29
    24fe:	cd b7       	in	r28, 0x3d	; 61
    2500:	de b7       	in	r29, 0x3e	; 62
    2502:	60 97       	sbiw	r28, 0x10	; 16
    2504:	0f b6       	in	r0, 0x3f	; 63
    2506:	f8 94       	cli
    2508:	de bf       	out	0x3e, r29	; 62
    250a:	0f be       	out	0x3f, r0	; 63
    250c:	cd bf       	out	0x3d, r28	; 61
    250e:	80 e0       	ldi	r24, 0x00	; 0
    2510:	90 e0       	ldi	r25, 0x00	; 0
    2512:	a0 e8       	ldi	r26, 0x80	; 128
    2514:	bf e3       	ldi	r27, 0x3F	; 63
    2516:	89 83       	std	Y+1, r24	; 0x01
    2518:	9a 83       	std	Y+2, r25	; 0x02
    251a:	ab 83       	std	Y+3, r26	; 0x03
    251c:	bc 83       	std	Y+4, r27	; 0x04
    251e:	1d 82       	std	Y+5, r1	; 0x05
    2520:	1e 82       	std	Y+6, r1	; 0x06
    2522:	1f 82       	std	Y+7, r1	; 0x07
    2524:	18 86       	std	Y+8, r1	; 0x08
    2526:	19 86       	std	Y+9, r1	; 0x09
    2528:	1a 86       	std	Y+10, r1	; 0x0a
    252a:	1b 86       	std	Y+11, r1	; 0x0b
    252c:	1c 86       	std	Y+12, r1	; 0x0c
    252e:	1d 86       	std	Y+13, r1	; 0x0d
    2530:	1e 86       	std	Y+14, r1	; 0x0e
    2532:	1f 86       	std	Y+15, r1	; 0x0f
    2534:	18 8a       	std	Y+16, r1	; 0x10
    2536:	8d b7       	in	r24, 0x3d	; 61
    2538:	9e b7       	in	r25, 0x3e	; 62
    253a:	40 97       	sbiw	r24, 0x10	; 16
    253c:	0f b6       	in	r0, 0x3f	; 63
    253e:	f8 94       	cli
    2540:	9e bf       	out	0x3e, r25	; 62
    2542:	0f be       	out	0x3f, r0	; 63
    2544:	8d bf       	out	0x3d, r24	; 61
    2546:	ad b7       	in	r26, 0x3d	; 61
    2548:	be b7       	in	r27, 0x3e	; 62
    254a:	11 96       	adiw	r26, 0x01	; 1
    254c:	80 e1       	ldi	r24, 0x10	; 16
    254e:	fe 01       	movw	r30, r28
    2550:	31 96       	adiw	r30, 0x01	; 1
    2552:	01 90       	ld	r0, Z+
    2554:	0d 92       	st	X+, r0
    2556:	8a 95       	dec	r24
    2558:	e1 f7       	brne	.-8      	; 0x2552 <loadTimerValues+0x68>
    255a:	e0 90 04 01 	lds	r14, 0x0104	; 0x800104 <trans>
    255e:	f0 90 05 01 	lds	r15, 0x0105	; 0x800105 <trans+0x1>
    2562:	00 91 06 01 	lds	r16, 0x0106	; 0x800106 <trans+0x2>
    2566:	10 91 07 01 	lds	r17, 0x0107	; 0x800107 <trans+0x3>
    256a:	20 91 08 01 	lds	r18, 0x0108	; 0x800108 <trans+0x4>
    256e:	30 91 09 01 	lds	r19, 0x0109	; 0x800109 <trans+0x5>
    2572:	40 91 0a 01 	lds	r20, 0x010A	; 0x80010a <trans+0x6>
    2576:	50 91 0b 01 	lds	r21, 0x010B	; 0x80010b <trans+0x7>
    257a:	60 91 0c 01 	lds	r22, 0x010C	; 0x80010c <trans+0x8>
    257e:	70 91 0d 01 	lds	r23, 0x010D	; 0x80010d <trans+0x9>
    2582:	80 91 0e 01 	lds	r24, 0x010E	; 0x80010e <trans+0xa>
    2586:	90 91 0f 01 	lds	r25, 0x010F	; 0x80010f <trans+0xb>
    258a:	9f d8       	rcall	.-3778   	; 0x16ca <calcMotorAngles>
    258c:	5c 01       	movw	r10, r24
    258e:	30 e4       	ldi	r19, 0x40	; 64
    2590:	c3 2e       	mov	r12, r19
    2592:	31 e0       	ldi	r19, 0x01	; 1
    2594:	d3 2e       	mov	r13, r19
    2596:	0f b6       	in	r0, 0x3f	; 63
    2598:	f8 94       	cli
    259a:	de bf       	out	0x3e, r29	; 62
    259c:	0f be       	out	0x3f, r0	; 63
    259e:	cd bf       	out	0x3d, r28	; 61
    25a0:	76 01       	movw	r14, r12
    25a2:	10 e0       	ldi	r17, 0x00	; 0
    25a4:	f5 01       	movw	r30, r10
    25a6:	61 91       	ld	r22, Z+
    25a8:	71 91       	ld	r23, Z+
    25aa:	81 91       	ld	r24, Z+
    25ac:	91 91       	ld	r25, Z+
    25ae:	5f 01       	movw	r10, r30
    25b0:	2b ed       	ldi	r18, 0xDB	; 219
    25b2:	3f e0       	ldi	r19, 0x0F	; 15
    25b4:	49 e4       	ldi	r20, 0x49	; 73
    25b6:	50 e4       	ldi	r21, 0x40	; 64
    25b8:	3a d1       	rcall	.+628    	; 0x282e <__addsf3>
    25ba:	2b ed       	ldi	r18, 0xDB	; 219
    25bc:	3f e0       	ldi	r19, 0x0F	; 15
    25be:	49 ec       	ldi	r20, 0xC9	; 201
    25c0:	50 e4       	ldi	r21, 0x40	; 64
    25c2:	15 d2       	rcall	.+1066   	; 0x29ee <__divsf3>
    25c4:	20 e0       	ldi	r18, 0x00	; 0
    25c6:	30 e0       	ldi	r19, 0x00	; 0
    25c8:	4f e7       	ldi	r20, 0x7F	; 127
    25ca:	53 e4       	ldi	r21, 0x43	; 67
    25cc:	86 d3       	rcall	.+1804   	; 0x2cda <__mulsf3>
    25ce:	77 d2       	rcall	.+1262   	; 0x2abe <__fixunssfsi>
    25d0:	d7 01       	movw	r26, r14
    25d2:	6c 93       	st	X, r22
    25d4:	11 96       	adiw	r26, 0x01	; 1
    25d6:	1c 93       	st	X, r17
    25d8:	1f 5f       	subi	r17, 0xFF	; 255
    25da:	b2 e0       	ldi	r27, 0x02	; 2
    25dc:	eb 0e       	add	r14, r27
    25de:	f1 1c       	adc	r15, r1
    25e0:	16 30       	cpi	r17, 0x06	; 6
    25e2:	01 f7       	brne	.-64     	; 0x25a4 <loadTimerValues+0xba>
    25e4:	80 91 42 01 	lds	r24, 0x0142	; 0x800142 <pwmlengths.2183+0x2>
    25e8:	80 95       	com	r24
    25ea:	80 93 42 01 	sts	0x0142, r24	; 0x800142 <pwmlengths.2183+0x2>
    25ee:	80 91 46 01 	lds	r24, 0x0146	; 0x800146 <pwmlengths.2183+0x6>
    25f2:	80 95       	com	r24
    25f4:	80 93 46 01 	sts	0x0146, r24	; 0x800146 <pwmlengths.2183+0x6>
    25f8:	80 91 4a 01 	lds	r24, 0x014A	; 0x80014a <pwmlengths.2183+0xa>
    25fc:	80 95       	com	r24
    25fe:	80 93 4a 01 	sts	0x014A, r24	; 0x80014a <pwmlengths.2183+0xa>
    2602:	80 e4       	ldi	r24, 0x40	; 64
    2604:	91 e0       	ldi	r25, 0x01	; 1
    2606:	d0 db       	rcall	.-2144   	; 0x1da8 <sort>
    2608:	e0 e4       	ldi	r30, 0x40	; 64
    260a:	f1 e0       	ldi	r31, 0x01	; 1
    260c:	dc 01       	movw	r26, r24
    260e:	2d 91       	ld	r18, X+
    2610:	3d 91       	ld	r19, X+
    2612:	cd 01       	movw	r24, r26
    2614:	21 93       	st	Z+, r18
    2616:	31 93       	st	Z+, r19
    2618:	b1 e0       	ldi	r27, 0x01	; 1
    261a:	ec 34       	cpi	r30, 0x4C	; 76
    261c:	fb 07       	cpc	r31, r27
    261e:	b1 f7       	brne	.-20     	; 0x260c <loadTimerValues+0x122>
    2620:	28 e2       	ldi	r18, 0x28	; 40
    2622:	a2 2e       	mov	r10, r18
    2624:	21 e0       	ldi	r18, 0x01	; 1
    2626:	b2 2e       	mov	r11, r18
    2628:	e1 2c       	mov	r14, r1
    262a:	f1 2c       	mov	r15, r1
    262c:	f6 01       	movw	r30, r12
    262e:	80 81       	ld	r24, Z
    2630:	97 01       	movw	r18, r14
    2632:	22 0f       	add	r18, r18
    2634:	33 1f       	adc	r19, r19
    2636:	22 0f       	add	r18, r18
    2638:	33 1f       	adc	r19, r19
    263a:	89 01       	movw	r16, r18
    263c:	08 5d       	subi	r16, 0xD8	; 216
    263e:	1e 4f       	sbci	r17, 0xFE	; 254
    2640:	ee 20       	and	r14, r14
    2642:	51 f0       	breq	.+20     	; 0x2658 <loadTimerValues+0x16e>
    2644:	32 97       	sbiw	r30, 0x02	; 2
    2646:	90 81       	ld	r25, Z
    2648:	60 e0       	ldi	r22, 0x00	; 0
    264a:	89 1b       	sub	r24, r25
    264c:	37 df       	rcall	.-402    	; 0x24bc <calculatePwm>
    264e:	d8 01       	movw	r26, r16
    2650:	6d 93       	st	X+, r22
    2652:	7d 93       	st	X+, r23
    2654:	8c 93       	st	X, r24
    2656:	06 c0       	rjmp	.+12     	; 0x2664 <loadTimerValues+0x17a>
    2658:	61 e0       	ldi	r22, 0x01	; 1
    265a:	30 df       	rcall	.-416    	; 0x24bc <calculatePwm>
    265c:	f8 01       	movw	r30, r16
    265e:	60 83       	st	Z, r22
    2660:	71 83       	std	Z+1, r23	; 0x01
    2662:	82 83       	std	Z+2, r24	; 0x02
    2664:	d6 01       	movw	r26, r12
    2666:	11 96       	adiw	r26, 0x01	; 1
    2668:	8c 91       	ld	r24, X
    266a:	f5 01       	movw	r30, r10
    266c:	83 83       	std	Z+3, r24	; 0x03
    266e:	ff ef       	ldi	r31, 0xFF	; 255
    2670:	ef 1a       	sub	r14, r31
    2672:	ff 0a       	sbc	r15, r31
    2674:	22 e0       	ldi	r18, 0x02	; 2
    2676:	c2 0e       	add	r12, r18
    2678:	d1 1c       	adc	r13, r1
    267a:	84 e0       	ldi	r24, 0x04	; 4
    267c:	a8 0e       	add	r10, r24
    267e:	b1 1c       	adc	r11, r1
    2680:	96 e0       	ldi	r25, 0x06	; 6
    2682:	e9 16       	cp	r14, r25
    2684:	f1 04       	cpc	r15, r1
    2686:	91 f6       	brne	.-92     	; 0x262c <loadTimerValues+0x142>
    2688:	88 e2       	ldi	r24, 0x28	; 40
    268a:	91 e0       	ldi	r25, 0x01	; 1
    268c:	60 96       	adiw	r28, 0x10	; 16
    268e:	0f b6       	in	r0, 0x3f	; 63
    2690:	f8 94       	cli
    2692:	de bf       	out	0x3e, r29	; 62
    2694:	0f be       	out	0x3f, r0	; 63
    2696:	cd bf       	out	0x3d, r28	; 61
    2698:	df 91       	pop	r29
    269a:	cf 91       	pop	r28
    269c:	1f 91       	pop	r17
    269e:	0f 91       	pop	r16
    26a0:	ff 90       	pop	r15
    26a2:	ef 90       	pop	r14
    26a4:	df 90       	pop	r13
    26a6:	cf 90       	pop	r12
    26a8:	bf 90       	pop	r11
    26aa:	af 90       	pop	r10
    26ac:	08 95       	ret

000026ae <main>:
    26ae:	8f ef       	ldi	r24, 0xFF	; 255
    26b0:	81 b9       	out	0x01, r24	; 1
    26b2:	82 b9       	out	0x02, r24	; 2
    26b4:	22 e0       	ldi	r18, 0x02	; 2
    26b6:	20 93 b0 00 	sts	0x00B0, r18	; 0x8000b0 <__DATA_REGION_ORIGIN__+0x50>
    26ba:	91 e0       	ldi	r25, 0x01	; 1
    26bc:	90 93 b1 00 	sts	0x00B1, r25	; 0x8000b1 <__DATA_REGION_ORIGIN__+0x51>
    26c0:	90 91 70 00 	lds	r25, 0x0070	; 0x800070 <__DATA_REGION_ORIGIN__+0x10>
    26c4:	92 60       	ori	r25, 0x02	; 2
    26c6:	90 93 70 00 	sts	0x0070, r25	; 0x800070 <__DATA_REGION_ORIGIN__+0x10>
    26ca:	80 93 b3 00 	sts	0x00B3, r24	; 0x8000b3 <__DATA_REGION_ORIGIN__+0x53>
    26ce:	24 bd       	out	0x24, r18	; 36
    26d0:	15 bc       	out	0x25, r1	; 37
    26d2:	90 91 6e 00 	lds	r25, 0x006E	; 0x80006e <__DATA_REGION_ORIGIN__+0xe>
    26d6:	92 60       	ori	r25, 0x02	; 2
    26d8:	90 93 6e 00 	sts	0x006E, r25	; 0x80006e <__DATA_REGION_ORIGIN__+0xe>
    26dc:	87 bd       	out	0x27, r24	; 39
    26de:	78 94       	sei
    26e0:	8e e3       	ldi	r24, 0x3E	; 62
    26e2:	8f 93       	push	r24
    26e4:	97 ec       	ldi	r25, 0xC7	; 199
    26e6:	9f 93       	push	r25
    26e8:	9e ea       	ldi	r25, 0xAE	; 174
    26ea:	9f 93       	push	r25
    26ec:	94 e1       	ldi	r25, 0x14	; 20
    26ee:	9f 93       	push	r25
    26f0:	8f 93       	push	r24
    26f2:	89 ed       	ldi	r24, 0xD9	; 217
    26f4:	8f 93       	push	r24
    26f6:	89 e9       	ldi	r24, 0x99	; 153
    26f8:	8f 93       	push	r24
    26fa:	8a e9       	ldi	r24, 0x9A	; 154
    26fc:	8f 93       	push	r24
    26fe:	bf e8       	ldi	r27, 0x8F	; 143
    2700:	ab 2e       	mov	r10, r27
    2702:	b2 ec       	ldi	r27, 0xC2	; 194
    2704:	bb 2e       	mov	r11, r27
    2706:	b5 e7       	ldi	r27, 0x75	; 117
    2708:	cb 2e       	mov	r12, r27
    270a:	bc e3       	ldi	r27, 0x3C	; 60
    270c:	db 2e       	mov	r13, r27
    270e:	1d ec       	ldi	r17, 0xCD	; 205
    2710:	e1 2e       	mov	r14, r17
    2712:	1c ec       	ldi	r17, 0xCC	; 204
    2714:	f1 2e       	mov	r15, r17
    2716:	0c ec       	ldi	r16, 0xCC	; 204
    2718:	1d e3       	ldi	r17, 0x3D	; 61
    271a:	2f e1       	ldi	r18, 0x1F	; 31
    271c:	35 e8       	ldi	r19, 0x85	; 133
    271e:	4b e6       	ldi	r20, 0x6B	; 107
    2720:	5e e3       	ldi	r21, 0x3E	; 62
    2722:	60 e0       	ldi	r22, 0x00	; 0
    2724:	70 e0       	ldi	r23, 0x00	; 0
    2726:	80 e8       	ldi	r24, 0x80	; 128
    2728:	9e e3       	ldi	r25, 0x3E	; 62
    272a:	0e 94 63 08 	call	0x10c6	; 0x10c6 <initialize>
    272e:	dd de       	rcall	.-582    	; 0x24ea <loadTimerValues>
    2730:	2d b7       	in	r18, 0x3d	; 61
    2732:	3e b7       	in	r19, 0x3e	; 62
    2734:	28 5f       	subi	r18, 0xF8	; 248
    2736:	3f 4f       	sbci	r19, 0xFF	; 255
    2738:	0f b6       	in	r0, 0x3f	; 63
    273a:	f8 94       	cli
    273c:	3e bf       	out	0x3e, r19	; 62
    273e:	0f be       	out	0x3f, r0	; 63
    2740:	2d bf       	out	0x3d, r18	; 61
    2742:	20 e0       	ldi	r18, 0x00	; 0
    2744:	30 e0       	ldi	r19, 0x00	; 0
    2746:	f9 01       	movw	r30, r18
    2748:	ee 0f       	add	r30, r30
    274a:	ff 1f       	adc	r31, r31
    274c:	ee 0f       	add	r30, r30
    274e:	ff 1f       	adc	r31, r31
    2750:	e7 5a       	subi	r30, 0xA7	; 167
    2752:	fd 4f       	sbci	r31, 0xFD	; 253
    2754:	dc 01       	movw	r26, r24
    2756:	4d 91       	ld	r20, X+
    2758:	5d 91       	ld	r21, X+
    275a:	6d 91       	ld	r22, X+
    275c:	7d 91       	ld	r23, X+
    275e:	cd 01       	movw	r24, r26
    2760:	40 83       	st	Z, r20
    2762:	51 83       	std	Z+1, r21	; 0x01
    2764:	62 83       	std	Z+2, r22	; 0x02
    2766:	73 83       	std	Z+3, r23	; 0x03
    2768:	2f 5f       	subi	r18, 0xFF	; 255
    276a:	3f 4f       	sbci	r19, 0xFF	; 255
    276c:	26 30       	cpi	r18, 0x06	; 6
    276e:	31 05       	cpc	r19, r1
    2770:	51 f7       	brne	.-44     	; 0x2746 <main+0x98>
    2772:	00 e0       	ldi	r16, 0x00	; 0
    2774:	10 e0       	ldi	r17, 0x00	; 0
    2776:	c0 e0       	ldi	r28, 0x00	; 0
    2778:	d0 e0       	ldi	r29, 0x00	; 0
    277a:	52 e3       	ldi	r21, 0x32	; 50
    277c:	45 2e       	mov	r4, r21
    277e:	51 2c       	mov	r5, r1
    2780:	63 e0       	ldi	r22, 0x03	; 3
    2782:	66 2e       	mov	r6, r22
    2784:	71 2c       	mov	r7, r1
    2786:	7f e8       	ldi	r23, 0x8F	; 143
    2788:	c7 2e       	mov	r12, r23
    278a:	72 ec       	ldi	r23, 0xC2	; 194
    278c:	d7 2e       	mov	r13, r23
    278e:	75 ef       	ldi	r23, 0xF5	; 245
    2790:	e7 2e       	mov	r14, r23
    2792:	7c e3       	ldi	r23, 0x3C	; 60
    2794:	f7 2e       	mov	r15, r23
    2796:	ef e8       	ldi	r30, 0x8F	; 143
    2798:	8e 2e       	mov	r8, r30
    279a:	e2 ec       	ldi	r30, 0xC2	; 194
    279c:	9e 2e       	mov	r9, r30
    279e:	e5 ef       	ldi	r30, 0xF5	; 245
    27a0:	ae 2e       	mov	r10, r30
    27a2:	ec eb       	ldi	r30, 0xBC	; 188
    27a4:	be 2e       	mov	r11, r30
    27a6:	a1 de       	rcall	.-702    	; 0x24ea <loadTimerValues>
    27a8:	20 e0       	ldi	r18, 0x00	; 0
    27aa:	30 e0       	ldi	r19, 0x00	; 0
    27ac:	f9 01       	movw	r30, r18
    27ae:	ee 0f       	add	r30, r30
    27b0:	ff 1f       	adc	r31, r31
    27b2:	ee 0f       	add	r30, r30
    27b4:	ff 1f       	adc	r31, r31
    27b6:	e7 5a       	subi	r30, 0xA7	; 167
    27b8:	fd 4f       	sbci	r31, 0xFD	; 253
    27ba:	dc 01       	movw	r26, r24
    27bc:	4d 91       	ld	r20, X+
    27be:	5d 91       	ld	r21, X+
    27c0:	6d 91       	ld	r22, X+
    27c2:	7d 91       	ld	r23, X+
    27c4:	cd 01       	movw	r24, r26
    27c6:	40 83       	st	Z, r20
    27c8:	51 83       	std	Z+1, r21	; 0x01
    27ca:	62 83       	std	Z+2, r22	; 0x02
    27cc:	73 83       	std	Z+3, r23	; 0x03
    27ce:	2f 5f       	subi	r18, 0xFF	; 255
    27d0:	3f 4f       	sbci	r19, 0xFF	; 255
    27d2:	26 30       	cpi	r18, 0x06	; 6
    27d4:	31 05       	cpc	r19, r1
    27d6:	51 f7       	brne	.-44     	; 0x27ac <main+0xfe>
    27d8:	21 96       	adiw	r28, 0x01	; 1
    27da:	ce 01       	movw	r24, r28
    27dc:	b2 01       	movw	r22, r4
    27de:	40 d3       	rcall	.+1664   	; 0x2e60 <__divmodhi4>
    27e0:	89 2b       	or	r24, r25
    27e2:	09 f7       	brne	.-62     	; 0x27a6 <main+0xf8>
    27e4:	0f 5f       	subi	r16, 0xFF	; 255
    27e6:	1f 4f       	sbci	r17, 0xFF	; 255
    27e8:	c8 01       	movw	r24, r16
    27ea:	b3 01       	movw	r22, r6
    27ec:	39 d3       	rcall	.+1650   	; 0x2e60 <__divmodhi4>
    27ee:	00 97       	sbiw	r24, 0x00	; 0
    27f0:	49 f4       	brne	.+18     	; 0x2804 <main+0x156>
    27f2:	80 92 08 01 	sts	0x0108, r8	; 0x800108 <trans+0x4>
    27f6:	90 92 09 01 	sts	0x0109, r9	; 0x800109 <trans+0x5>
    27fa:	a0 92 0a 01 	sts	0x010A, r10	; 0x80010a <trans+0x6>
    27fe:	b0 92 0b 01 	sts	0x010B, r11	; 0x80010b <trans+0x7>
    2802:	d1 cf       	rjmp	.-94     	; 0x27a6 <main+0xf8>
    2804:	01 97       	sbiw	r24, 0x01	; 1
    2806:	49 f4       	brne	.+18     	; 0x281a <main+0x16c>
    2808:	10 92 08 01 	sts	0x0108, r1	; 0x800108 <trans+0x4>
    280c:	10 92 09 01 	sts	0x0109, r1	; 0x800109 <trans+0x5>
    2810:	10 92 0a 01 	sts	0x010A, r1	; 0x80010a <trans+0x6>
    2814:	10 92 0b 01 	sts	0x010B, r1	; 0x80010b <trans+0x7>
    2818:	c6 cf       	rjmp	.-116    	; 0x27a6 <main+0xf8>
    281a:	c0 92 08 01 	sts	0x0108, r12	; 0x800108 <trans+0x4>
    281e:	d0 92 09 01 	sts	0x0109, r13	; 0x800109 <trans+0x5>
    2822:	e0 92 0a 01 	sts	0x010A, r14	; 0x80010a <trans+0x6>
    2826:	f0 92 0b 01 	sts	0x010B, r15	; 0x80010b <trans+0x7>
    282a:	bd cf       	rjmp	.-134    	; 0x27a6 <main+0xf8>

0000282c <__subsf3>:
    282c:	50 58       	subi	r21, 0x80	; 128

0000282e <__addsf3>:
    282e:	bb 27       	eor	r27, r27
    2830:	aa 27       	eor	r26, r26
    2832:	0e d0       	rcall	.+28     	; 0x2850 <__addsf3x>
    2834:	00 c2       	rjmp	.+1024   	; 0x2c36 <__fp_round>
    2836:	c9 d1       	rcall	.+914    	; 0x2bca <__fp_pscA>
    2838:	30 f0       	brcs	.+12     	; 0x2846 <__addsf3+0x18>
    283a:	ce d1       	rcall	.+924    	; 0x2bd8 <__fp_pscB>
    283c:	20 f0       	brcs	.+8      	; 0x2846 <__addsf3+0x18>
    283e:	31 f4       	brne	.+12     	; 0x284c <__addsf3+0x1e>
    2840:	9f 3f       	cpi	r25, 0xFF	; 255
    2842:	11 f4       	brne	.+4      	; 0x2848 <__addsf3+0x1a>
    2844:	1e f4       	brtc	.+6      	; 0x284c <__addsf3+0x1e>
    2846:	88 c1       	rjmp	.+784    	; 0x2b58 <__fp_nan>
    2848:	0e f4       	brtc	.+2      	; 0x284c <__addsf3+0x1e>
    284a:	e0 95       	com	r30
    284c:	e7 fb       	bst	r30, 7
    284e:	7e c1       	rjmp	.+764    	; 0x2b4c <__fp_inf>

00002850 <__addsf3x>:
    2850:	e9 2f       	mov	r30, r25
    2852:	13 d2       	rcall	.+1062   	; 0x2c7a <__fp_split3>
    2854:	80 f3       	brcs	.-32     	; 0x2836 <__addsf3+0x8>
    2856:	ba 17       	cp	r27, r26
    2858:	62 07       	cpc	r22, r18
    285a:	73 07       	cpc	r23, r19
    285c:	84 07       	cpc	r24, r20
    285e:	95 07       	cpc	r25, r21
    2860:	18 f0       	brcs	.+6      	; 0x2868 <__addsf3x+0x18>
    2862:	71 f4       	brne	.+28     	; 0x2880 <__addsf3x+0x30>
    2864:	9e f5       	brtc	.+102    	; 0x28cc <__addsf3x+0x7c>
    2866:	2b c2       	rjmp	.+1110   	; 0x2cbe <__fp_zero>
    2868:	0e f4       	brtc	.+2      	; 0x286c <__addsf3x+0x1c>
    286a:	e0 95       	com	r30
    286c:	0b 2e       	mov	r0, r27
    286e:	ba 2f       	mov	r27, r26
    2870:	a0 2d       	mov	r26, r0
    2872:	0b 01       	movw	r0, r22
    2874:	b9 01       	movw	r22, r18
    2876:	90 01       	movw	r18, r0
    2878:	0c 01       	movw	r0, r24
    287a:	ca 01       	movw	r24, r20
    287c:	a0 01       	movw	r20, r0
    287e:	11 24       	eor	r1, r1
    2880:	ff 27       	eor	r31, r31
    2882:	59 1b       	sub	r21, r25
    2884:	99 f0       	breq	.+38     	; 0x28ac <__addsf3x+0x5c>
    2886:	59 3f       	cpi	r21, 0xF9	; 249
    2888:	50 f4       	brcc	.+20     	; 0x289e <__addsf3x+0x4e>
    288a:	50 3e       	cpi	r21, 0xE0	; 224
    288c:	68 f1       	brcs	.+90     	; 0x28e8 <__addsf3x+0x98>
    288e:	1a 16       	cp	r1, r26
    2890:	f0 40       	sbci	r31, 0x00	; 0
    2892:	a2 2f       	mov	r26, r18
    2894:	23 2f       	mov	r18, r19
    2896:	34 2f       	mov	r19, r20
    2898:	44 27       	eor	r20, r20
    289a:	58 5f       	subi	r21, 0xF8	; 248
    289c:	f3 cf       	rjmp	.-26     	; 0x2884 <__addsf3x+0x34>
    289e:	46 95       	lsr	r20
    28a0:	37 95       	ror	r19
    28a2:	27 95       	ror	r18
    28a4:	a7 95       	ror	r26
    28a6:	f0 40       	sbci	r31, 0x00	; 0
    28a8:	53 95       	inc	r21
    28aa:	c9 f7       	brne	.-14     	; 0x289e <__addsf3x+0x4e>
    28ac:	7e f4       	brtc	.+30     	; 0x28cc <__addsf3x+0x7c>
    28ae:	1f 16       	cp	r1, r31
    28b0:	ba 0b       	sbc	r27, r26
    28b2:	62 0b       	sbc	r22, r18
    28b4:	73 0b       	sbc	r23, r19
    28b6:	84 0b       	sbc	r24, r20
    28b8:	ba f0       	brmi	.+46     	; 0x28e8 <__addsf3x+0x98>
    28ba:	91 50       	subi	r25, 0x01	; 1
    28bc:	a1 f0       	breq	.+40     	; 0x28e6 <__addsf3x+0x96>
    28be:	ff 0f       	add	r31, r31
    28c0:	bb 1f       	adc	r27, r27
    28c2:	66 1f       	adc	r22, r22
    28c4:	77 1f       	adc	r23, r23
    28c6:	88 1f       	adc	r24, r24
    28c8:	c2 f7       	brpl	.-16     	; 0x28ba <__addsf3x+0x6a>
    28ca:	0e c0       	rjmp	.+28     	; 0x28e8 <__addsf3x+0x98>
    28cc:	ba 0f       	add	r27, r26
    28ce:	62 1f       	adc	r22, r18
    28d0:	73 1f       	adc	r23, r19
    28d2:	84 1f       	adc	r24, r20
    28d4:	48 f4       	brcc	.+18     	; 0x28e8 <__addsf3x+0x98>
    28d6:	87 95       	ror	r24
    28d8:	77 95       	ror	r23
    28da:	67 95       	ror	r22
    28dc:	b7 95       	ror	r27
    28de:	f7 95       	ror	r31
    28e0:	9e 3f       	cpi	r25, 0xFE	; 254
    28e2:	08 f0       	brcs	.+2      	; 0x28e6 <__addsf3x+0x96>
    28e4:	b3 cf       	rjmp	.-154    	; 0x284c <__addsf3+0x1e>
    28e6:	93 95       	inc	r25
    28e8:	88 0f       	add	r24, r24
    28ea:	08 f0       	brcs	.+2      	; 0x28ee <__addsf3x+0x9e>
    28ec:	99 27       	eor	r25, r25
    28ee:	ee 0f       	add	r30, r30
    28f0:	97 95       	ror	r25
    28f2:	87 95       	ror	r24
    28f4:	08 95       	ret

000028f6 <asin>:
    28f6:	9f 93       	push	r25
    28f8:	9f 77       	andi	r25, 0x7F	; 127
    28fa:	ee e3       	ldi	r30, 0x3E	; 62
    28fc:	89 37       	cpi	r24, 0x79	; 121
    28fe:	9e 07       	cpc	r25, r30
    2900:	20 f4       	brcc	.+8      	; 0x290a <asin+0x14>
    2902:	e0 e7       	ldi	r30, 0x70	; 112
    2904:	f0 e0       	ldi	r31, 0x00	; 0
    2906:	50 d1       	rcall	.+672    	; 0x2ba8 <__fp_powsodd>
    2908:	09 c0       	rjmp	.+18     	; 0x291c <asin+0x26>
    290a:	05 d1       	rcall	.+522    	; 0x2b16 <__fp_arccos>
    290c:	90 58       	subi	r25, 0x80	; 128
    290e:	a2 ea       	ldi	r26, 0xA2	; 162
    2910:	2a ed       	ldi	r18, 0xDA	; 218
    2912:	3f e0       	ldi	r19, 0x0F	; 15
    2914:	49 ec       	ldi	r20, 0xC9	; 201
    2916:	5f e3       	ldi	r21, 0x3F	; 63
    2918:	9b df       	rcall	.-202    	; 0x2850 <__addsf3x>
    291a:	8d d1       	rcall	.+794    	; 0x2c36 <__fp_round>
    291c:	0f 90       	pop	r0
    291e:	07 fc       	sbrc	r0, 7
    2920:	90 58       	subi	r25, 0x80	; 128
    2922:	08 95       	ret
    2924:	52 d1       	rcall	.+676    	; 0x2bca <__fp_pscA>
    2926:	58 f0       	brcs	.+22     	; 0x293e <asin+0x48>
    2928:	80 e8       	ldi	r24, 0x80	; 128
    292a:	91 e0       	ldi	r25, 0x01	; 1
    292c:	09 f4       	brne	.+2      	; 0x2930 <asin+0x3a>
    292e:	9e ef       	ldi	r25, 0xFE	; 254
    2930:	53 d1       	rcall	.+678    	; 0x2bd8 <__fp_pscB>
    2932:	28 f0       	brcs	.+10     	; 0x293e <asin+0x48>
    2934:	40 e8       	ldi	r20, 0x80	; 128
    2936:	51 e0       	ldi	r21, 0x01	; 1
    2938:	59 f4       	brne	.+22     	; 0x2950 <atan2+0xe>
    293a:	5e ef       	ldi	r21, 0xFE	; 254
    293c:	09 c0       	rjmp	.+18     	; 0x2950 <atan2+0xe>
    293e:	0c c1       	rjmp	.+536    	; 0x2b58 <__fp_nan>
    2940:	be c1       	rjmp	.+892    	; 0x2cbe <__fp_zero>

00002942 <atan2>:
    2942:	e9 2f       	mov	r30, r25
    2944:	e0 78       	andi	r30, 0x80	; 128
    2946:	99 d1       	rcall	.+818    	; 0x2c7a <__fp_split3>
    2948:	68 f3       	brcs	.-38     	; 0x2924 <asin+0x2e>
    294a:	09 2e       	mov	r0, r25
    294c:	05 2a       	or	r0, r21
    294e:	c1 f3       	breq	.-16     	; 0x2940 <asin+0x4a>
    2950:	26 17       	cp	r18, r22
    2952:	37 07       	cpc	r19, r23
    2954:	48 07       	cpc	r20, r24
    2956:	59 07       	cpc	r21, r25
    2958:	38 f0       	brcs	.+14     	; 0x2968 <atan2+0x26>
    295a:	0e 2e       	mov	r0, r30
    295c:	07 f8       	bld	r0, 7
    295e:	e0 25       	eor	r30, r0
    2960:	69 f0       	breq	.+26     	; 0x297c <atan2+0x3a>
    2962:	e0 25       	eor	r30, r0
    2964:	e0 64       	ori	r30, 0x40	; 64
    2966:	0a c0       	rjmp	.+20     	; 0x297c <atan2+0x3a>
    2968:	ef 63       	ori	r30, 0x3F	; 63
    296a:	07 f8       	bld	r0, 7
    296c:	00 94       	com	r0
    296e:	07 fa       	bst	r0, 7
    2970:	db 01       	movw	r26, r22
    2972:	b9 01       	movw	r22, r18
    2974:	9d 01       	movw	r18, r26
    2976:	dc 01       	movw	r26, r24
    2978:	ca 01       	movw	r24, r20
    297a:	ad 01       	movw	r20, r26
    297c:	ef 93       	push	r30
    297e:	46 d0       	rcall	.+140    	; 0x2a0c <__divsf3_pse>
    2980:	5a d1       	rcall	.+692    	; 0x2c36 <__fp_round>
    2982:	0a d0       	rcall	.+20     	; 0x2998 <atan>
    2984:	5f 91       	pop	r21
    2986:	55 23       	and	r21, r21
    2988:	31 f0       	breq	.+12     	; 0x2996 <atan2+0x54>
    298a:	2b ed       	ldi	r18, 0xDB	; 219
    298c:	3f e0       	ldi	r19, 0x0F	; 15
    298e:	49 e4       	ldi	r20, 0x49	; 73
    2990:	50 fd       	sbrc	r21, 0
    2992:	49 ec       	ldi	r20, 0xC9	; 201
    2994:	4c cf       	rjmp	.-360    	; 0x282e <__addsf3>
    2996:	08 95       	ret

00002998 <atan>:
    2998:	df 93       	push	r29
    299a:	dd 27       	eor	r29, r29
    299c:	b9 2f       	mov	r27, r25
    299e:	bf 77       	andi	r27, 0x7F	; 127
    29a0:	40 e8       	ldi	r20, 0x80	; 128
    29a2:	5f e3       	ldi	r21, 0x3F	; 63
    29a4:	16 16       	cp	r1, r22
    29a6:	17 06       	cpc	r1, r23
    29a8:	48 07       	cpc	r20, r24
    29aa:	5b 07       	cpc	r21, r27
    29ac:	10 f4       	brcc	.+4      	; 0x29b2 <atan+0x1a>
    29ae:	d9 2f       	mov	r29, r25
    29b0:	8d d1       	rcall	.+794    	; 0x2ccc <inverse>
    29b2:	9f 93       	push	r25
    29b4:	8f 93       	push	r24
    29b6:	7f 93       	push	r23
    29b8:	6f 93       	push	r22
    29ba:	3a d2       	rcall	.+1140   	; 0x2e30 <square>
    29bc:	e4 e8       	ldi	r30, 0x84	; 132
    29be:	f0 e0       	ldi	r31, 0x00	; 0
    29c0:	ce d0       	rcall	.+412    	; 0x2b5e <__fp_powser>
    29c2:	39 d1       	rcall	.+626    	; 0x2c36 <__fp_round>
    29c4:	2f 91       	pop	r18
    29c6:	3f 91       	pop	r19
    29c8:	4f 91       	pop	r20
    29ca:	5f 91       	pop	r21
    29cc:	92 d1       	rcall	.+804    	; 0x2cf2 <__mulsf3x>
    29ce:	dd 23       	and	r29, r29
    29d0:	49 f0       	breq	.+18     	; 0x29e4 <atan+0x4c>
    29d2:	90 58       	subi	r25, 0x80	; 128
    29d4:	a2 ea       	ldi	r26, 0xA2	; 162
    29d6:	2a ed       	ldi	r18, 0xDA	; 218
    29d8:	3f e0       	ldi	r19, 0x0F	; 15
    29da:	49 ec       	ldi	r20, 0xC9	; 201
    29dc:	5f e3       	ldi	r21, 0x3F	; 63
    29de:	d0 78       	andi	r29, 0x80	; 128
    29e0:	5d 27       	eor	r21, r29
    29e2:	36 df       	rcall	.-404    	; 0x2850 <__addsf3x>
    29e4:	df 91       	pop	r29
    29e6:	27 c1       	rjmp	.+590    	; 0x2c36 <__fp_round>

000029e8 <cos>:
    29e8:	ff d0       	rcall	.+510    	; 0x2be8 <__fp_rempio2>
    29ea:	e3 95       	inc	r30
    29ec:	35 c1       	rjmp	.+618    	; 0x2c58 <__fp_sinus>

000029ee <__divsf3>:
    29ee:	0c d0       	rcall	.+24     	; 0x2a08 <__divsf3x>
    29f0:	22 c1       	rjmp	.+580    	; 0x2c36 <__fp_round>
    29f2:	f2 d0       	rcall	.+484    	; 0x2bd8 <__fp_pscB>
    29f4:	40 f0       	brcs	.+16     	; 0x2a06 <__divsf3+0x18>
    29f6:	e9 d0       	rcall	.+466    	; 0x2bca <__fp_pscA>
    29f8:	30 f0       	brcs	.+12     	; 0x2a06 <__divsf3+0x18>
    29fa:	21 f4       	brne	.+8      	; 0x2a04 <__divsf3+0x16>
    29fc:	5f 3f       	cpi	r21, 0xFF	; 255
    29fe:	19 f0       	breq	.+6      	; 0x2a06 <__divsf3+0x18>
    2a00:	a5 c0       	rjmp	.+330    	; 0x2b4c <__fp_inf>
    2a02:	51 11       	cpse	r21, r1
    2a04:	5d c1       	rjmp	.+698    	; 0x2cc0 <__fp_szero>
    2a06:	a8 c0       	rjmp	.+336    	; 0x2b58 <__fp_nan>

00002a08 <__divsf3x>:
    2a08:	38 d1       	rcall	.+624    	; 0x2c7a <__fp_split3>
    2a0a:	98 f3       	brcs	.-26     	; 0x29f2 <__divsf3+0x4>

00002a0c <__divsf3_pse>:
    2a0c:	99 23       	and	r25, r25
    2a0e:	c9 f3       	breq	.-14     	; 0x2a02 <__divsf3+0x14>
    2a10:	55 23       	and	r21, r21
    2a12:	b1 f3       	breq	.-20     	; 0x2a00 <__divsf3+0x12>
    2a14:	95 1b       	sub	r25, r21
    2a16:	55 0b       	sbc	r21, r21
    2a18:	bb 27       	eor	r27, r27
    2a1a:	aa 27       	eor	r26, r26
    2a1c:	62 17       	cp	r22, r18
    2a1e:	73 07       	cpc	r23, r19
    2a20:	84 07       	cpc	r24, r20
    2a22:	38 f0       	brcs	.+14     	; 0x2a32 <__divsf3_pse+0x26>
    2a24:	9f 5f       	subi	r25, 0xFF	; 255
    2a26:	5f 4f       	sbci	r21, 0xFF	; 255
    2a28:	22 0f       	add	r18, r18
    2a2a:	33 1f       	adc	r19, r19
    2a2c:	44 1f       	adc	r20, r20
    2a2e:	aa 1f       	adc	r26, r26
    2a30:	a9 f3       	breq	.-22     	; 0x2a1c <__divsf3_pse+0x10>
    2a32:	33 d0       	rcall	.+102    	; 0x2a9a <__divsf3_pse+0x8e>
    2a34:	0e 2e       	mov	r0, r30
    2a36:	3a f0       	brmi	.+14     	; 0x2a46 <__divsf3_pse+0x3a>
    2a38:	e0 e8       	ldi	r30, 0x80	; 128
    2a3a:	30 d0       	rcall	.+96     	; 0x2a9c <__divsf3_pse+0x90>
    2a3c:	91 50       	subi	r25, 0x01	; 1
    2a3e:	50 40       	sbci	r21, 0x00	; 0
    2a40:	e6 95       	lsr	r30
    2a42:	00 1c       	adc	r0, r0
    2a44:	ca f7       	brpl	.-14     	; 0x2a38 <__divsf3_pse+0x2c>
    2a46:	29 d0       	rcall	.+82     	; 0x2a9a <__divsf3_pse+0x8e>
    2a48:	fe 2f       	mov	r31, r30
    2a4a:	27 d0       	rcall	.+78     	; 0x2a9a <__divsf3_pse+0x8e>
    2a4c:	66 0f       	add	r22, r22
    2a4e:	77 1f       	adc	r23, r23
    2a50:	88 1f       	adc	r24, r24
    2a52:	bb 1f       	adc	r27, r27
    2a54:	26 17       	cp	r18, r22
    2a56:	37 07       	cpc	r19, r23
    2a58:	48 07       	cpc	r20, r24
    2a5a:	ab 07       	cpc	r26, r27
    2a5c:	b0 e8       	ldi	r27, 0x80	; 128
    2a5e:	09 f0       	breq	.+2      	; 0x2a62 <__divsf3_pse+0x56>
    2a60:	bb 0b       	sbc	r27, r27
    2a62:	80 2d       	mov	r24, r0
    2a64:	bf 01       	movw	r22, r30
    2a66:	ff 27       	eor	r31, r31
    2a68:	93 58       	subi	r25, 0x83	; 131
    2a6a:	5f 4f       	sbci	r21, 0xFF	; 255
    2a6c:	2a f0       	brmi	.+10     	; 0x2a78 <__divsf3_pse+0x6c>
    2a6e:	9e 3f       	cpi	r25, 0xFE	; 254
    2a70:	51 05       	cpc	r21, r1
    2a72:	68 f0       	brcs	.+26     	; 0x2a8e <__divsf3_pse+0x82>
    2a74:	6b c0       	rjmp	.+214    	; 0x2b4c <__fp_inf>
    2a76:	24 c1       	rjmp	.+584    	; 0x2cc0 <__fp_szero>
    2a78:	5f 3f       	cpi	r21, 0xFF	; 255
    2a7a:	ec f3       	brlt	.-6      	; 0x2a76 <__divsf3_pse+0x6a>
    2a7c:	98 3e       	cpi	r25, 0xE8	; 232
    2a7e:	dc f3       	brlt	.-10     	; 0x2a76 <__divsf3_pse+0x6a>
    2a80:	86 95       	lsr	r24
    2a82:	77 95       	ror	r23
    2a84:	67 95       	ror	r22
    2a86:	b7 95       	ror	r27
    2a88:	f7 95       	ror	r31
    2a8a:	9f 5f       	subi	r25, 0xFF	; 255
    2a8c:	c9 f7       	brne	.-14     	; 0x2a80 <__divsf3_pse+0x74>
    2a8e:	88 0f       	add	r24, r24
    2a90:	91 1d       	adc	r25, r1
    2a92:	96 95       	lsr	r25
    2a94:	87 95       	ror	r24
    2a96:	97 f9       	bld	r25, 7
    2a98:	08 95       	ret
    2a9a:	e1 e0       	ldi	r30, 0x01	; 1
    2a9c:	66 0f       	add	r22, r22
    2a9e:	77 1f       	adc	r23, r23
    2aa0:	88 1f       	adc	r24, r24
    2aa2:	bb 1f       	adc	r27, r27
    2aa4:	62 17       	cp	r22, r18
    2aa6:	73 07       	cpc	r23, r19
    2aa8:	84 07       	cpc	r24, r20
    2aaa:	ba 07       	cpc	r27, r26
    2aac:	20 f0       	brcs	.+8      	; 0x2ab6 <__divsf3_pse+0xaa>
    2aae:	62 1b       	sub	r22, r18
    2ab0:	73 0b       	sbc	r23, r19
    2ab2:	84 0b       	sbc	r24, r20
    2ab4:	ba 0b       	sbc	r27, r26
    2ab6:	ee 1f       	adc	r30, r30
    2ab8:	88 f7       	brcc	.-30     	; 0x2a9c <__divsf3_pse+0x90>
    2aba:	e0 95       	com	r30
    2abc:	08 95       	ret

00002abe <__fixunssfsi>:
    2abe:	e5 d0       	rcall	.+458    	; 0x2c8a <__fp_splitA>
    2ac0:	88 f0       	brcs	.+34     	; 0x2ae4 <__fixunssfsi+0x26>
    2ac2:	9f 57       	subi	r25, 0x7F	; 127
    2ac4:	90 f0       	brcs	.+36     	; 0x2aea <__fixunssfsi+0x2c>
    2ac6:	b9 2f       	mov	r27, r25
    2ac8:	99 27       	eor	r25, r25
    2aca:	b7 51       	subi	r27, 0x17	; 23
    2acc:	a0 f0       	brcs	.+40     	; 0x2af6 <__fixunssfsi+0x38>
    2ace:	d1 f0       	breq	.+52     	; 0x2b04 <__fixunssfsi+0x46>
    2ad0:	66 0f       	add	r22, r22
    2ad2:	77 1f       	adc	r23, r23
    2ad4:	88 1f       	adc	r24, r24
    2ad6:	99 1f       	adc	r25, r25
    2ad8:	1a f0       	brmi	.+6      	; 0x2ae0 <__fixunssfsi+0x22>
    2ada:	ba 95       	dec	r27
    2adc:	c9 f7       	brne	.-14     	; 0x2ad0 <__fixunssfsi+0x12>
    2ade:	12 c0       	rjmp	.+36     	; 0x2b04 <__fixunssfsi+0x46>
    2ae0:	b1 30       	cpi	r27, 0x01	; 1
    2ae2:	81 f0       	breq	.+32     	; 0x2b04 <__fixunssfsi+0x46>
    2ae4:	ec d0       	rcall	.+472    	; 0x2cbe <__fp_zero>
    2ae6:	b1 e0       	ldi	r27, 0x01	; 1
    2ae8:	08 95       	ret
    2aea:	e9 c0       	rjmp	.+466    	; 0x2cbe <__fp_zero>
    2aec:	67 2f       	mov	r22, r23
    2aee:	78 2f       	mov	r23, r24
    2af0:	88 27       	eor	r24, r24
    2af2:	b8 5f       	subi	r27, 0xF8	; 248
    2af4:	39 f0       	breq	.+14     	; 0x2b04 <__fixunssfsi+0x46>
    2af6:	b9 3f       	cpi	r27, 0xF9	; 249
    2af8:	cc f3       	brlt	.-14     	; 0x2aec <__fixunssfsi+0x2e>
    2afa:	86 95       	lsr	r24
    2afc:	77 95       	ror	r23
    2afe:	67 95       	ror	r22
    2b00:	b3 95       	inc	r27
    2b02:	d9 f7       	brne	.-10     	; 0x2afa <__fixunssfsi+0x3c>
    2b04:	3e f4       	brtc	.+14     	; 0x2b14 <__fixunssfsi+0x56>
    2b06:	90 95       	com	r25
    2b08:	80 95       	com	r24
    2b0a:	70 95       	com	r23
    2b0c:	61 95       	neg	r22
    2b0e:	7f 4f       	sbci	r23, 0xFF	; 255
    2b10:	8f 4f       	sbci	r24, 0xFF	; 255
    2b12:	9f 4f       	sbci	r25, 0xFF	; 255
    2b14:	08 95       	ret

00002b16 <__fp_arccos>:
    2b16:	df 93       	push	r29
    2b18:	cf 93       	push	r28
    2b1a:	1f 93       	push	r17
    2b1c:	0f 93       	push	r16
    2b1e:	8b 01       	movw	r16, r22
    2b20:	ec 01       	movw	r28, r24
    2b22:	e1 eb       	ldi	r30, 0xB1	; 177
    2b24:	f0 e0       	ldi	r31, 0x00	; 0
    2b26:	1b d0       	rcall	.+54     	; 0x2b5e <__fp_powser>
    2b28:	86 d0       	rcall	.+268    	; 0x2c36 <__fp_round>
    2b2a:	98 01       	movw	r18, r16
    2b2c:	ae 01       	movw	r20, r28
    2b2e:	8b 01       	movw	r16, r22
    2b30:	ec 01       	movw	r28, r24
    2b32:	60 e0       	ldi	r22, 0x00	; 0
    2b34:	70 e0       	ldi	r23, 0x00	; 0
    2b36:	80 e8       	ldi	r24, 0x80	; 128
    2b38:	9f e3       	ldi	r25, 0x3F	; 63
    2b3a:	78 de       	rcall	.-784    	; 0x282c <__subsf3>
    2b3c:	3b d1       	rcall	.+630    	; 0x2db4 <sqrt>
    2b3e:	98 01       	movw	r18, r16
    2b40:	ae 01       	movw	r20, r28
    2b42:	0f 91       	pop	r16
    2b44:	1f 91       	pop	r17
    2b46:	cf 91       	pop	r28
    2b48:	df 91       	pop	r29
    2b4a:	d3 c0       	rjmp	.+422    	; 0x2cf2 <__mulsf3x>

00002b4c <__fp_inf>:
    2b4c:	97 f9       	bld	r25, 7
    2b4e:	9f 67       	ori	r25, 0x7F	; 127
    2b50:	80 e8       	ldi	r24, 0x80	; 128
    2b52:	70 e0       	ldi	r23, 0x00	; 0
    2b54:	60 e0       	ldi	r22, 0x00	; 0
    2b56:	08 95       	ret

00002b58 <__fp_nan>:
    2b58:	9f ef       	ldi	r25, 0xFF	; 255
    2b5a:	80 ec       	ldi	r24, 0xC0	; 192
    2b5c:	08 95       	ret

00002b5e <__fp_powser>:
    2b5e:	df 93       	push	r29
    2b60:	cf 93       	push	r28
    2b62:	1f 93       	push	r17
    2b64:	0f 93       	push	r16
    2b66:	ff 92       	push	r15
    2b68:	ef 92       	push	r14
    2b6a:	df 92       	push	r13
    2b6c:	7b 01       	movw	r14, r22
    2b6e:	8c 01       	movw	r16, r24
    2b70:	68 94       	set
    2b72:	05 c0       	rjmp	.+10     	; 0x2b7e <__fp_powser+0x20>
    2b74:	da 2e       	mov	r13, r26
    2b76:	ef 01       	movw	r28, r30
    2b78:	bc d0       	rcall	.+376    	; 0x2cf2 <__mulsf3x>
    2b7a:	fe 01       	movw	r30, r28
    2b7c:	e8 94       	clt
    2b7e:	a5 91       	lpm	r26, Z+
    2b80:	25 91       	lpm	r18, Z+
    2b82:	35 91       	lpm	r19, Z+
    2b84:	45 91       	lpm	r20, Z+
    2b86:	55 91       	lpm	r21, Z+
    2b88:	ae f3       	brts	.-22     	; 0x2b74 <__fp_powser+0x16>
    2b8a:	ef 01       	movw	r28, r30
    2b8c:	61 de       	rcall	.-830    	; 0x2850 <__addsf3x>
    2b8e:	fe 01       	movw	r30, r28
    2b90:	97 01       	movw	r18, r14
    2b92:	a8 01       	movw	r20, r16
    2b94:	da 94       	dec	r13
    2b96:	79 f7       	brne	.-34     	; 0x2b76 <__fp_powser+0x18>
    2b98:	df 90       	pop	r13
    2b9a:	ef 90       	pop	r14
    2b9c:	ff 90       	pop	r15
    2b9e:	0f 91       	pop	r16
    2ba0:	1f 91       	pop	r17
    2ba2:	cf 91       	pop	r28
    2ba4:	df 91       	pop	r29
    2ba6:	08 95       	ret

00002ba8 <__fp_powsodd>:
    2ba8:	9f 93       	push	r25
    2baa:	8f 93       	push	r24
    2bac:	7f 93       	push	r23
    2bae:	6f 93       	push	r22
    2bb0:	ff 93       	push	r31
    2bb2:	ef 93       	push	r30
    2bb4:	9b 01       	movw	r18, r22
    2bb6:	ac 01       	movw	r20, r24
    2bb8:	90 d0       	rcall	.+288    	; 0x2cda <__mulsf3>
    2bba:	ef 91       	pop	r30
    2bbc:	ff 91       	pop	r31
    2bbe:	cf df       	rcall	.-98     	; 0x2b5e <__fp_powser>
    2bc0:	2f 91       	pop	r18
    2bc2:	3f 91       	pop	r19
    2bc4:	4f 91       	pop	r20
    2bc6:	5f 91       	pop	r21
    2bc8:	88 c0       	rjmp	.+272    	; 0x2cda <__mulsf3>

00002bca <__fp_pscA>:
    2bca:	00 24       	eor	r0, r0
    2bcc:	0a 94       	dec	r0
    2bce:	16 16       	cp	r1, r22
    2bd0:	17 06       	cpc	r1, r23
    2bd2:	18 06       	cpc	r1, r24
    2bd4:	09 06       	cpc	r0, r25
    2bd6:	08 95       	ret

00002bd8 <__fp_pscB>:
    2bd8:	00 24       	eor	r0, r0
    2bda:	0a 94       	dec	r0
    2bdc:	12 16       	cp	r1, r18
    2bde:	13 06       	cpc	r1, r19
    2be0:	14 06       	cpc	r1, r20
    2be2:	05 06       	cpc	r0, r21
    2be4:	08 95       	ret
    2be6:	b8 cf       	rjmp	.-144    	; 0x2b58 <__fp_nan>

00002be8 <__fp_rempio2>:
    2be8:	50 d0       	rcall	.+160    	; 0x2c8a <__fp_splitA>
    2bea:	e8 f3       	brcs	.-6      	; 0x2be6 <__fp_pscB+0xe>
    2bec:	e8 94       	clt
    2bee:	e0 e0       	ldi	r30, 0x00	; 0
    2bf0:	bb 27       	eor	r27, r27
    2bf2:	9f 57       	subi	r25, 0x7F	; 127
    2bf4:	f0 f0       	brcs	.+60     	; 0x2c32 <__fp_rempio2+0x4a>
    2bf6:	2a ed       	ldi	r18, 0xDA	; 218
    2bf8:	3f e0       	ldi	r19, 0x0F	; 15
    2bfa:	49 ec       	ldi	r20, 0xC9	; 201
    2bfc:	06 c0       	rjmp	.+12     	; 0x2c0a <__fp_rempio2+0x22>
    2bfe:	ee 0f       	add	r30, r30
    2c00:	bb 0f       	add	r27, r27
    2c02:	66 1f       	adc	r22, r22
    2c04:	77 1f       	adc	r23, r23
    2c06:	88 1f       	adc	r24, r24
    2c08:	28 f0       	brcs	.+10     	; 0x2c14 <__fp_rempio2+0x2c>
    2c0a:	b2 3a       	cpi	r27, 0xA2	; 162
    2c0c:	62 07       	cpc	r22, r18
    2c0e:	73 07       	cpc	r23, r19
    2c10:	84 07       	cpc	r24, r20
    2c12:	28 f0       	brcs	.+10     	; 0x2c1e <__fp_rempio2+0x36>
    2c14:	b2 5a       	subi	r27, 0xA2	; 162
    2c16:	62 0b       	sbc	r22, r18
    2c18:	73 0b       	sbc	r23, r19
    2c1a:	84 0b       	sbc	r24, r20
    2c1c:	e3 95       	inc	r30
    2c1e:	9a 95       	dec	r25
    2c20:	72 f7       	brpl	.-36     	; 0x2bfe <__fp_rempio2+0x16>
    2c22:	80 38       	cpi	r24, 0x80	; 128
    2c24:	30 f4       	brcc	.+12     	; 0x2c32 <__fp_rempio2+0x4a>
    2c26:	9a 95       	dec	r25
    2c28:	bb 0f       	add	r27, r27
    2c2a:	66 1f       	adc	r22, r22
    2c2c:	77 1f       	adc	r23, r23
    2c2e:	88 1f       	adc	r24, r24
    2c30:	d2 f7       	brpl	.-12     	; 0x2c26 <__fp_rempio2+0x3e>
    2c32:	90 48       	sbci	r25, 0x80	; 128
    2c34:	02 c1       	rjmp	.+516    	; 0x2e3a <__fp_mpack_finite>

00002c36 <__fp_round>:
    2c36:	09 2e       	mov	r0, r25
    2c38:	03 94       	inc	r0
    2c3a:	00 0c       	add	r0, r0
    2c3c:	11 f4       	brne	.+4      	; 0x2c42 <__fp_round+0xc>
    2c3e:	88 23       	and	r24, r24
    2c40:	52 f0       	brmi	.+20     	; 0x2c56 <__fp_round+0x20>
    2c42:	bb 0f       	add	r27, r27
    2c44:	40 f4       	brcc	.+16     	; 0x2c56 <__fp_round+0x20>
    2c46:	bf 2b       	or	r27, r31
    2c48:	11 f4       	brne	.+4      	; 0x2c4e <__fp_round+0x18>
    2c4a:	60 ff       	sbrs	r22, 0
    2c4c:	04 c0       	rjmp	.+8      	; 0x2c56 <__fp_round+0x20>
    2c4e:	6f 5f       	subi	r22, 0xFF	; 255
    2c50:	7f 4f       	sbci	r23, 0xFF	; 255
    2c52:	8f 4f       	sbci	r24, 0xFF	; 255
    2c54:	9f 4f       	sbci	r25, 0xFF	; 255
    2c56:	08 95       	ret

00002c58 <__fp_sinus>:
    2c58:	ef 93       	push	r30
    2c5a:	e0 ff       	sbrs	r30, 0
    2c5c:	06 c0       	rjmp	.+12     	; 0x2c6a <__fp_sinus+0x12>
    2c5e:	a2 ea       	ldi	r26, 0xA2	; 162
    2c60:	2a ed       	ldi	r18, 0xDA	; 218
    2c62:	3f e0       	ldi	r19, 0x0F	; 15
    2c64:	49 ec       	ldi	r20, 0xC9	; 201
    2c66:	5f eb       	ldi	r21, 0xBF	; 191
    2c68:	f3 dd       	rcall	.-1050   	; 0x2850 <__addsf3x>
    2c6a:	e5 df       	rcall	.-54     	; 0x2c36 <__fp_round>
    2c6c:	0f 90       	pop	r0
    2c6e:	03 94       	inc	r0
    2c70:	01 fc       	sbrc	r0, 1
    2c72:	90 58       	subi	r25, 0x80	; 128
    2c74:	e9 ed       	ldi	r30, 0xD9	; 217
    2c76:	f0 e0       	ldi	r31, 0x00	; 0
    2c78:	97 cf       	rjmp	.-210    	; 0x2ba8 <__fp_powsodd>

00002c7a <__fp_split3>:
    2c7a:	57 fd       	sbrc	r21, 7
    2c7c:	90 58       	subi	r25, 0x80	; 128
    2c7e:	44 0f       	add	r20, r20
    2c80:	55 1f       	adc	r21, r21
    2c82:	59 f0       	breq	.+22     	; 0x2c9a <__fp_splitA+0x10>
    2c84:	5f 3f       	cpi	r21, 0xFF	; 255
    2c86:	71 f0       	breq	.+28     	; 0x2ca4 <__fp_splitA+0x1a>
    2c88:	47 95       	ror	r20

00002c8a <__fp_splitA>:
    2c8a:	88 0f       	add	r24, r24
    2c8c:	97 fb       	bst	r25, 7
    2c8e:	99 1f       	adc	r25, r25
    2c90:	61 f0       	breq	.+24     	; 0x2caa <__fp_splitA+0x20>
    2c92:	9f 3f       	cpi	r25, 0xFF	; 255
    2c94:	79 f0       	breq	.+30     	; 0x2cb4 <__fp_splitA+0x2a>
    2c96:	87 95       	ror	r24
    2c98:	08 95       	ret
    2c9a:	12 16       	cp	r1, r18
    2c9c:	13 06       	cpc	r1, r19
    2c9e:	14 06       	cpc	r1, r20
    2ca0:	55 1f       	adc	r21, r21
    2ca2:	f2 cf       	rjmp	.-28     	; 0x2c88 <__fp_split3+0xe>
    2ca4:	46 95       	lsr	r20
    2ca6:	f1 df       	rcall	.-30     	; 0x2c8a <__fp_splitA>
    2ca8:	08 c0       	rjmp	.+16     	; 0x2cba <__fp_splitA+0x30>
    2caa:	16 16       	cp	r1, r22
    2cac:	17 06       	cpc	r1, r23
    2cae:	18 06       	cpc	r1, r24
    2cb0:	99 1f       	adc	r25, r25
    2cb2:	f1 cf       	rjmp	.-30     	; 0x2c96 <__fp_splitA+0xc>
    2cb4:	86 95       	lsr	r24
    2cb6:	71 05       	cpc	r23, r1
    2cb8:	61 05       	cpc	r22, r1
    2cba:	08 94       	sec
    2cbc:	08 95       	ret

00002cbe <__fp_zero>:
    2cbe:	e8 94       	clt

00002cc0 <__fp_szero>:
    2cc0:	bb 27       	eor	r27, r27
    2cc2:	66 27       	eor	r22, r22
    2cc4:	77 27       	eor	r23, r23
    2cc6:	cb 01       	movw	r24, r22
    2cc8:	97 f9       	bld	r25, 7
    2cca:	08 95       	ret

00002ccc <inverse>:
    2ccc:	9b 01       	movw	r18, r22
    2cce:	ac 01       	movw	r20, r24
    2cd0:	60 e0       	ldi	r22, 0x00	; 0
    2cd2:	70 e0       	ldi	r23, 0x00	; 0
    2cd4:	80 e8       	ldi	r24, 0x80	; 128
    2cd6:	9f e3       	ldi	r25, 0x3F	; 63
    2cd8:	8a ce       	rjmp	.-748    	; 0x29ee <__divsf3>

00002cda <__mulsf3>:
    2cda:	0b d0       	rcall	.+22     	; 0x2cf2 <__mulsf3x>
    2cdc:	ac cf       	rjmp	.-168    	; 0x2c36 <__fp_round>
    2cde:	75 df       	rcall	.-278    	; 0x2bca <__fp_pscA>
    2ce0:	28 f0       	brcs	.+10     	; 0x2cec <__mulsf3+0x12>
    2ce2:	7a df       	rcall	.-268    	; 0x2bd8 <__fp_pscB>
    2ce4:	18 f0       	brcs	.+6      	; 0x2cec <__mulsf3+0x12>
    2ce6:	95 23       	and	r25, r21
    2ce8:	09 f0       	breq	.+2      	; 0x2cec <__mulsf3+0x12>
    2cea:	30 cf       	rjmp	.-416    	; 0x2b4c <__fp_inf>
    2cec:	35 cf       	rjmp	.-406    	; 0x2b58 <__fp_nan>
    2cee:	11 24       	eor	r1, r1
    2cf0:	e7 cf       	rjmp	.-50     	; 0x2cc0 <__fp_szero>

00002cf2 <__mulsf3x>:
    2cf2:	c3 df       	rcall	.-122    	; 0x2c7a <__fp_split3>
    2cf4:	a0 f3       	brcs	.-24     	; 0x2cde <__mulsf3+0x4>

00002cf6 <__mulsf3_pse>:
    2cf6:	95 9f       	mul	r25, r21
    2cf8:	d1 f3       	breq	.-12     	; 0x2cee <__mulsf3+0x14>
    2cfa:	95 0f       	add	r25, r21
    2cfc:	50 e0       	ldi	r21, 0x00	; 0
    2cfe:	55 1f       	adc	r21, r21
    2d00:	62 9f       	mul	r22, r18
    2d02:	f0 01       	movw	r30, r0
    2d04:	72 9f       	mul	r23, r18
    2d06:	bb 27       	eor	r27, r27
    2d08:	f0 0d       	add	r31, r0
    2d0a:	b1 1d       	adc	r27, r1
    2d0c:	63 9f       	mul	r22, r19
    2d0e:	aa 27       	eor	r26, r26
    2d10:	f0 0d       	add	r31, r0
    2d12:	b1 1d       	adc	r27, r1
    2d14:	aa 1f       	adc	r26, r26
    2d16:	64 9f       	mul	r22, r20
    2d18:	66 27       	eor	r22, r22
    2d1a:	b0 0d       	add	r27, r0
    2d1c:	a1 1d       	adc	r26, r1
    2d1e:	66 1f       	adc	r22, r22
    2d20:	82 9f       	mul	r24, r18
    2d22:	22 27       	eor	r18, r18
    2d24:	b0 0d       	add	r27, r0
    2d26:	a1 1d       	adc	r26, r1
    2d28:	62 1f       	adc	r22, r18
    2d2a:	73 9f       	mul	r23, r19
    2d2c:	b0 0d       	add	r27, r0
    2d2e:	a1 1d       	adc	r26, r1
    2d30:	62 1f       	adc	r22, r18
    2d32:	83 9f       	mul	r24, r19
    2d34:	a0 0d       	add	r26, r0
    2d36:	61 1d       	adc	r22, r1
    2d38:	22 1f       	adc	r18, r18
    2d3a:	74 9f       	mul	r23, r20
    2d3c:	33 27       	eor	r19, r19
    2d3e:	a0 0d       	add	r26, r0
    2d40:	61 1d       	adc	r22, r1
    2d42:	23 1f       	adc	r18, r19
    2d44:	84 9f       	mul	r24, r20
    2d46:	60 0d       	add	r22, r0
    2d48:	21 1d       	adc	r18, r1
    2d4a:	82 2f       	mov	r24, r18
    2d4c:	76 2f       	mov	r23, r22
    2d4e:	6a 2f       	mov	r22, r26
    2d50:	11 24       	eor	r1, r1
    2d52:	9f 57       	subi	r25, 0x7F	; 127
    2d54:	50 40       	sbci	r21, 0x00	; 0
    2d56:	8a f0       	brmi	.+34     	; 0x2d7a <__mulsf3_pse+0x84>
    2d58:	e1 f0       	breq	.+56     	; 0x2d92 <__mulsf3_pse+0x9c>
    2d5a:	88 23       	and	r24, r24
    2d5c:	4a f0       	brmi	.+18     	; 0x2d70 <__mulsf3_pse+0x7a>
    2d5e:	ee 0f       	add	r30, r30
    2d60:	ff 1f       	adc	r31, r31
    2d62:	bb 1f       	adc	r27, r27
    2d64:	66 1f       	adc	r22, r22
    2d66:	77 1f       	adc	r23, r23
    2d68:	88 1f       	adc	r24, r24
    2d6a:	91 50       	subi	r25, 0x01	; 1
    2d6c:	50 40       	sbci	r21, 0x00	; 0
    2d6e:	a9 f7       	brne	.-22     	; 0x2d5a <__mulsf3_pse+0x64>
    2d70:	9e 3f       	cpi	r25, 0xFE	; 254
    2d72:	51 05       	cpc	r21, r1
    2d74:	70 f0       	brcs	.+28     	; 0x2d92 <__mulsf3_pse+0x9c>
    2d76:	ea ce       	rjmp	.-556    	; 0x2b4c <__fp_inf>
    2d78:	a3 cf       	rjmp	.-186    	; 0x2cc0 <__fp_szero>
    2d7a:	5f 3f       	cpi	r21, 0xFF	; 255
    2d7c:	ec f3       	brlt	.-6      	; 0x2d78 <__mulsf3_pse+0x82>
    2d7e:	98 3e       	cpi	r25, 0xE8	; 232
    2d80:	dc f3       	brlt	.-10     	; 0x2d78 <__mulsf3_pse+0x82>
    2d82:	86 95       	lsr	r24
    2d84:	77 95       	ror	r23
    2d86:	67 95       	ror	r22
    2d88:	b7 95       	ror	r27
    2d8a:	f7 95       	ror	r31
    2d8c:	e7 95       	ror	r30
    2d8e:	9f 5f       	subi	r25, 0xFF	; 255
    2d90:	c1 f7       	brne	.-16     	; 0x2d82 <__mulsf3_pse+0x8c>
    2d92:	fe 2b       	or	r31, r30
    2d94:	88 0f       	add	r24, r24
    2d96:	91 1d       	adc	r25, r1
    2d98:	96 95       	lsr	r25
    2d9a:	87 95       	ror	r24
    2d9c:	97 f9       	bld	r25, 7
    2d9e:	08 95       	ret

00002da0 <sin>:
    2da0:	9f 93       	push	r25
    2da2:	22 df       	rcall	.-444    	; 0x2be8 <__fp_rempio2>
    2da4:	0f 90       	pop	r0
    2da6:	07 fc       	sbrc	r0, 7
    2da8:	ee 5f       	subi	r30, 0xFE	; 254
    2daa:	56 cf       	rjmp	.-340    	; 0x2c58 <__fp_sinus>
    2dac:	11 f4       	brne	.+4      	; 0x2db2 <sin+0x12>
    2dae:	0e f4       	brtc	.+2      	; 0x2db2 <sin+0x12>
    2db0:	d3 ce       	rjmp	.-602    	; 0x2b58 <__fp_nan>
    2db2:	41 c0       	rjmp	.+130    	; 0x2e36 <__fp_mpack>

00002db4 <sqrt>:
    2db4:	6a df       	rcall	.-300    	; 0x2c8a <__fp_splitA>
    2db6:	d0 f3       	brcs	.-12     	; 0x2dac <sin+0xc>
    2db8:	99 23       	and	r25, r25
    2dba:	d9 f3       	breq	.-10     	; 0x2db2 <sin+0x12>
    2dbc:	ce f3       	brts	.-14     	; 0x2db0 <sin+0x10>
    2dbe:	9f 57       	subi	r25, 0x7F	; 127
    2dc0:	55 0b       	sbc	r21, r21
    2dc2:	87 ff       	sbrs	r24, 7
    2dc4:	46 d0       	rcall	.+140    	; 0x2e52 <__fp_norm2>
    2dc6:	00 24       	eor	r0, r0
    2dc8:	a0 e6       	ldi	r26, 0x60	; 96
    2dca:	40 ea       	ldi	r20, 0xA0	; 160
    2dcc:	90 01       	movw	r18, r0
    2dce:	80 58       	subi	r24, 0x80	; 128
    2dd0:	56 95       	lsr	r21
    2dd2:	97 95       	ror	r25
    2dd4:	28 f4       	brcc	.+10     	; 0x2de0 <sqrt+0x2c>
    2dd6:	80 5c       	subi	r24, 0xC0	; 192
    2dd8:	66 0f       	add	r22, r22
    2dda:	77 1f       	adc	r23, r23
    2ddc:	88 1f       	adc	r24, r24
    2dde:	20 f0       	brcs	.+8      	; 0x2de8 <sqrt+0x34>
    2de0:	26 17       	cp	r18, r22
    2de2:	37 07       	cpc	r19, r23
    2de4:	48 07       	cpc	r20, r24
    2de6:	30 f4       	brcc	.+12     	; 0x2df4 <sqrt+0x40>
    2de8:	62 1b       	sub	r22, r18
    2dea:	73 0b       	sbc	r23, r19
    2dec:	84 0b       	sbc	r24, r20
    2dee:	20 29       	or	r18, r0
    2df0:	31 29       	or	r19, r1
    2df2:	4a 2b       	or	r20, r26
    2df4:	a6 95       	lsr	r26
    2df6:	17 94       	ror	r1
    2df8:	07 94       	ror	r0
    2dfa:	20 25       	eor	r18, r0
    2dfc:	31 25       	eor	r19, r1
    2dfe:	4a 27       	eor	r20, r26
    2e00:	58 f7       	brcc	.-42     	; 0x2dd8 <sqrt+0x24>
    2e02:	66 0f       	add	r22, r22
    2e04:	77 1f       	adc	r23, r23
    2e06:	88 1f       	adc	r24, r24
    2e08:	20 f0       	brcs	.+8      	; 0x2e12 <sqrt+0x5e>
    2e0a:	26 17       	cp	r18, r22
    2e0c:	37 07       	cpc	r19, r23
    2e0e:	48 07       	cpc	r20, r24
    2e10:	30 f4       	brcc	.+12     	; 0x2e1e <sqrt+0x6a>
    2e12:	62 0b       	sbc	r22, r18
    2e14:	73 0b       	sbc	r23, r19
    2e16:	84 0b       	sbc	r24, r20
    2e18:	20 0d       	add	r18, r0
    2e1a:	31 1d       	adc	r19, r1
    2e1c:	41 1d       	adc	r20, r1
    2e1e:	a0 95       	com	r26
    2e20:	81 f7       	brne	.-32     	; 0x2e02 <sqrt+0x4e>
    2e22:	b9 01       	movw	r22, r18
    2e24:	84 2f       	mov	r24, r20
    2e26:	91 58       	subi	r25, 0x81	; 129
    2e28:	88 0f       	add	r24, r24
    2e2a:	96 95       	lsr	r25
    2e2c:	87 95       	ror	r24
    2e2e:	08 95       	ret

00002e30 <square>:
    2e30:	9b 01       	movw	r18, r22
    2e32:	ac 01       	movw	r20, r24
    2e34:	52 cf       	rjmp	.-348    	; 0x2cda <__mulsf3>

00002e36 <__fp_mpack>:
    2e36:	9f 3f       	cpi	r25, 0xFF	; 255
    2e38:	31 f0       	breq	.+12     	; 0x2e46 <__fp_mpack_finite+0xc>

00002e3a <__fp_mpack_finite>:
    2e3a:	91 50       	subi	r25, 0x01	; 1
    2e3c:	20 f4       	brcc	.+8      	; 0x2e46 <__fp_mpack_finite+0xc>
    2e3e:	87 95       	ror	r24
    2e40:	77 95       	ror	r23
    2e42:	67 95       	ror	r22
    2e44:	b7 95       	ror	r27
    2e46:	88 0f       	add	r24, r24
    2e48:	91 1d       	adc	r25, r1
    2e4a:	96 95       	lsr	r25
    2e4c:	87 95       	ror	r24
    2e4e:	97 f9       	bld	r25, 7
    2e50:	08 95       	ret

00002e52 <__fp_norm2>:
    2e52:	91 50       	subi	r25, 0x01	; 1
    2e54:	50 40       	sbci	r21, 0x00	; 0
    2e56:	66 0f       	add	r22, r22
    2e58:	77 1f       	adc	r23, r23
    2e5a:	88 1f       	adc	r24, r24
    2e5c:	d2 f7       	brpl	.-12     	; 0x2e52 <__fp_norm2>
    2e5e:	08 95       	ret

00002e60 <__divmodhi4>:
    2e60:	97 fb       	bst	r25, 7
    2e62:	07 2e       	mov	r0, r23
    2e64:	16 f4       	brtc	.+4      	; 0x2e6a <__divmodhi4+0xa>
    2e66:	00 94       	com	r0
    2e68:	06 d0       	rcall	.+12     	; 0x2e76 <__divmodhi4_neg1>
    2e6a:	77 fd       	sbrc	r23, 7
    2e6c:	08 d0       	rcall	.+16     	; 0x2e7e <__divmodhi4_neg2>
    2e6e:	0b d0       	rcall	.+22     	; 0x2e86 <__udivmodhi4>
    2e70:	07 fc       	sbrc	r0, 7
    2e72:	05 d0       	rcall	.+10     	; 0x2e7e <__divmodhi4_neg2>
    2e74:	3e f4       	brtc	.+14     	; 0x2e84 <__divmodhi4_exit>

00002e76 <__divmodhi4_neg1>:
    2e76:	90 95       	com	r25
    2e78:	81 95       	neg	r24
    2e7a:	9f 4f       	sbci	r25, 0xFF	; 255
    2e7c:	08 95       	ret

00002e7e <__divmodhi4_neg2>:
    2e7e:	70 95       	com	r23
    2e80:	61 95       	neg	r22
    2e82:	7f 4f       	sbci	r23, 0xFF	; 255

00002e84 <__divmodhi4_exit>:
    2e84:	08 95       	ret

00002e86 <__udivmodhi4>:
    2e86:	aa 1b       	sub	r26, r26
    2e88:	bb 1b       	sub	r27, r27
    2e8a:	51 e1       	ldi	r21, 0x11	; 17
    2e8c:	07 c0       	rjmp	.+14     	; 0x2e9c <__udivmodhi4_ep>

00002e8e <__udivmodhi4_loop>:
    2e8e:	aa 1f       	adc	r26, r26
    2e90:	bb 1f       	adc	r27, r27
    2e92:	a6 17       	cp	r26, r22
    2e94:	b7 07       	cpc	r27, r23
    2e96:	10 f0       	brcs	.+4      	; 0x2e9c <__udivmodhi4_ep>
    2e98:	a6 1b       	sub	r26, r22
    2e9a:	b7 0b       	sbc	r27, r23

00002e9c <__udivmodhi4_ep>:
    2e9c:	88 1f       	adc	r24, r24
    2e9e:	99 1f       	adc	r25, r25
    2ea0:	5a 95       	dec	r21
    2ea2:	a9 f7       	brne	.-22     	; 0x2e8e <__udivmodhi4_loop>
    2ea4:	80 95       	com	r24
    2ea6:	90 95       	com	r25
    2ea8:	bc 01       	movw	r22, r24
    2eaa:	cd 01       	movw	r24, r26
    2eac:	08 95       	ret

00002eae <_exit>:
    2eae:	f8 94       	cli

00002eb0 <__stop_program>:
    2eb0:	ff cf       	rjmp	.-2      	; 0x2eb0 <__stop_program>
